
cafe03b2-aa3c-4536-bbe4-fc78716d0505.elf:     file format elf64-littleaarch64
cafe03b2-aa3c-4536-bbe4-fc78716d0505.elf
architecture: aarch64, flags 0x00000150:
HAS_SYMS, DYNAMIC, D_PAGED
start address 0x0000000000000020

Program Header:
    LOAD off    0x0000000000010000 vaddr 0x0000000000000000 paddr 0x0000000000000000 align 2**16
         filesz 0x000000000000ed64 memsz 0x000000000000ed64 flags r-x
    LOAD off    0x000000000001ed68 vaddr 0x000000000000ed68 paddr 0x000000000000ed68 align 2**16
         filesz 0x0000000000002194 memsz 0x0000000000002194 flags r--
    LOAD off    0x0000000000021000 vaddr 0x0000000000011000 paddr 0x0000000000011000 align 2**16
         filesz 0x0000000000000134 memsz 0x000000000000ad58 flags rw-
 DYNAMIC off    0x0000000000020c20 vaddr 0x0000000000010c20 paddr 0x0000000000010c20 align 2**3
         filesz 0x0000000000000100 memsz 0x0000000000000100 flags rw-

Dynamic Section:
  HASH                 0x0000000000010eb8
  STRTAB               0x0000000000010e40
  SYMTAB               0x0000000000010d20
  STRSZ                0x0000000000000078
  SYMENT               0x0000000000000018
  DEBUG                0x0000000000000000
  RELA                 0x0000000000010888
  RELASZ               0x0000000000000330
  RELAENT              0x0000000000000018
  FLAGS_1              0x0000000008000000
  RELACOUNT            0x0000000000000019
private flags = 0:

Sections:
Idx Name          Size      VMA               LMA               File off  Algn
  0 .ta_head      00000020  0000000000000000  0000000000000000  00010000  2**3
                  CONTENTS, ALLOC, LOAD, DATA
  1 .text         0000ed44  0000000000000020  0000000000000020  00010020  2**2
                  CONTENTS, ALLOC, LOAD, READONLY, CODE
  2 .rodata       00001b1c  000000000000ed68  000000000000ed68  0001ed68  2**3
                  CONTENTS, ALLOC, LOAD, READONLY, DATA
  3 .dynsym       00000120  0000000000010d20  0000000000010d20  00020d20  2**3
                  CONTENTS, ALLOC, LOAD, READONLY, DATA
  4 .rela.dyn     00000258  0000000000010888  0000000000010888  00020888  2**3
                  CONTENTS, ALLOC, LOAD, READONLY, DATA
  5 .got          00000068  0000000000010ae0  0000000000010ae0  00020ae0  2**3
                  CONTENTS, ALLOC, LOAD, DATA
  6 .rela.got     000000d8  0000000000010b48  0000000000010b48  00020b48  2**3
                  CONTENTS, ALLOC, LOAD, READONLY, DATA
  7 .dynamic      00000100  0000000000010c20  0000000000010c20  00020c20  2**3
                  CONTENTS, ALLOC, LOAD, DATA
  8 .dynstr       00000078  0000000000010e40  0000000000010e40  00020e40  2**0
                  CONTENTS, ALLOC, LOAD, READONLY, DATA
  9 .hash         00000044  0000000000010eb8  0000000000010eb8  00020eb8  2**3
                  CONTENTS, ALLOC, LOAD, READONLY, DATA
 10 .data         00000134  0000000000011000  0000000000011000  00021000  2**3
                  CONTENTS, ALLOC, LOAD, DATA
 11 .bss          0000ac20  0000000000011138  0000000000011138  00021134  2**3
                  ALLOC
 12 .debug_info   0000ab39  0000000000000000  0000000000000000  00021134  2**0
                  CONTENTS, READONLY, DEBUGGING
 13 .debug_abbrev 00002d3e  0000000000000000  0000000000000000  0002bc6d  2**0
                  CONTENTS, READONLY, DEBUGGING
 14 .debug_loc    00005682  0000000000000000  0000000000000000  0002e9ab  2**0
                  CONTENTS, READONLY, DEBUGGING
 15 .debug_aranges 00000750  0000000000000000  0000000000000000  00034030  2**4
                  CONTENTS, READONLY, DEBUGGING
 16 .debug_line   00003ca4  0000000000000000  0000000000000000  00034780  2**0
                  CONTENTS, READONLY, DEBUGGING
 17 .debug_str    00002438  0000000000000000  0000000000000000  00038424  2**0
                  CONTENTS, READONLY, DEBUGGING
 18 .comment      0000002d  0000000000000000  0000000000000000  0003a85c  2**0
                  CONTENTS, READONLY
 19 .debug_frame  00002980  0000000000000000  0000000000000000  0003a890  2**3
                  CONTENTS, READONLY, DEBUGGING
SYMBOL TABLE:
0000000000000000 l    d  .ta_head	0000000000000000 .ta_head
0000000000000020 l    d  .text	0000000000000000 .text
000000000000ed68 l    d  .rodata	0000000000000000 .rodata
0000000000010888 l    d  .rela.dyn	0000000000000000 .rela.dyn
0000000000010ae0 l    d  .got	0000000000000000 .got
0000000000010b48 l    d  .rela.got	0000000000000000 .rela.got
0000000000010c20 l    d  .dynamic	0000000000000000 .dynamic
0000000000010d20 l    d  .dynsym	0000000000000000 .dynsym
0000000000010e40 l    d  .dynstr	0000000000000000 .dynstr
0000000000010eb8 l    d  .hash	0000000000000000 .hash
0000000000011000 l    d  .data	0000000000000000 .data
0000000000011138 l    d  .bss	0000000000000000 .bss
0000000000000000 l    d  .debug_info	0000000000000000 .debug_info
0000000000000000 l    d  .debug_abbrev	0000000000000000 .debug_abbrev
0000000000000000 l    d  .debug_loc	0000000000000000 .debug_loc
0000000000000000 l    d  .debug_aranges	0000000000000000 .debug_aranges
0000000000000000 l    d  .debug_line	0000000000000000 .debug_line
0000000000000000 l    d  .debug_str	0000000000000000 .debug_str
0000000000000000 l    d  .comment	0000000000000000 .comment
0000000000000000 l    d  .debug_frame	0000000000000000 .debug_frame
0000000000000000 l    df *ABS*	0000000000000000 user_ta_header.c
000000000000ede8 l     O .rodata	0000000000000001 __compound_literal.0
000000000000ede9 l     O .rodata	0000000000000001 __compound_literal.1
000000000000edea l     O .rodata	0000000000000001 __compound_literal.2
000000000000edec l     O .rodata	0000000000000004 __compound_literal.3
000000000000edf0 l     O .rodata	0000000000000004 __compound_literal.4
000000000000edf4 l     O .rodata	0000000000000004 __compound_literal.5
0000000000000000 l    df *ABS*	0000000000000000 boot_secure_os_ta.c
000000000000ed88 l     O .rodata	0000000000000014 __func__.3756
000000000000eda0 l     O .rodata	0000000000000015 __func__.3760
000000000000edb8 l     O .rodata	000000000000001a __func__.3770
0000000000000000 l    df *ABS*	0000000000000000 user_ta_entry.c
000000000000012c l     F .text	0000000000000008 __utee_gprof_init
0000000000000134 l     F .text	0000000000000008 __utee_gprof_fini
00000000000110e0 l     O .data	0000000000000010 ta_sessions
000000000001bd4c l     O .bss	0000000000000004 ta_ref_count
000000000001bd50 l     O .bss	0000000000000001 context_init
000000000000013c l     F .text	0000000000000064 ta_header_save_params
00000000000001a0 l     F .text	000000000000005c ta_header_get_session
00000000000001fc l     F .text	0000000000000154 ta_header_add_session
0000000000000350 l     F .text	00000000000000f0 ta_header_remove_session
0000000000000440 l     F .text	00000000000000c8 entry_open_session
0000000000000508 l     F .text	000000000000004c entry_close_session
0000000000000554 l     F .text	00000000000000a0 entry_invoke_command
000000000000ef20 l     O .rodata	000000000000000d __func__.4291
0000000000000000 l    df *ABS*	0000000000000000 utee_syscalls_a64.o
0000000000000000 l    df *ABS*	0000000000000000 gprof_a64.o
0000000000000000 l    df *ABS*	0000000000000000 tee_api_arith.c
0000000000019180 l     O .bss	0000000000001b40 mempool_u32
00000000000110f0 l     O .data	0000000000000008 mempool
0000000000000a1c l     F .text	0000000000000058 TEE_BigInt_Panic
000000000000efa8 l     O .rodata	0000000000000011 __func__.4068
000000000000efc0 l     O .rodata	0000000000000021 __func__.4104
000000000000efe8 l     O .rodata	000000000000001f __func__.4113
000000000000f008 l     O .rodata	0000000000000017 __func__.4125
0000000000000000 l    df *ABS*	0000000000000000 tee_api.c
000000000000f020 l     O .rodata	0000000000000004 DEFAULT_TEE_MALLOC_HINT
000000000001acc0 l     O .bss	0000000000000008 tee_api_instance_data
000000000000f038 l     O .rodata	0000000000000013 __func__.4259
000000000000f050 l     O .rodata	0000000000000014 __func__.4271
000000000000f068 l     O .rodata	0000000000000017 __func__.4282
000000000000f080 l     O .rodata	0000000000000015 __func__.4288
000000000000f098 l     O .rodata	0000000000000012 __func__.4321
000000000000f0b0 l     O .rodata	0000000000000009 __func__.4326
000000000000f0c0 l     O .rodata	0000000000000018 __func__.4331
000000000000f0d8 l     O .rodata	0000000000000018 __func__.4336
000000000000f0f0 l     O .rodata	000000000000000f __func__.4341
0000000000000000 l    df *ABS*	0000000000000000 tee_api_panic.c
0000000000000000 l    df *ABS*	0000000000000000 utee_misc.c
0000000000000000 l    df *ABS*	0000000000000000 tee_user_mem.c
000000000000f100 l     O .rodata	0000000000000004 DEFAULT_TEE_MALLOC_HINT
00000000000110f8 l     O .data	0000000000000008 ARTIST
000000000000f108 l     O .rodata	0000000000000008 CANARY_LINE_SIZE
0000000000002364 l     F .text	0000000000000018 buf_addr
000000000000237c l     F .text	0000000000000024 buf_size
00000000000023a0 l     F .text	0000000000000018 elem_addr
00000000000023b8 l     F .text	0000000000000064 is_buffer_valid
000000000000241c l     F .text	000000000000008c print_buf
000000000001acc8 l     O .bss	0000000000000008 heap_level
000000000001acd0 l     O .bss	0000000000000010 global_stats
00000000000024a8 l     F .text	0000000000000070 heap_inc
0000000000002518 l     F .text	0000000000000070 heap_dec
0000000000002588 l     F .text	0000000000000088 check_elem_end
000000000000f240 l     O .rodata	000000000000000f __func__.3875
0000000000002610 l     F .text	000000000000015c check_elem
000000000000f250 l     O .rodata	000000000000000b __func__.3880
000000000000276c l     F .text	0000000000000078 is_mem_coherent
000000000000f260 l     O .rodata	0000000000000010 __func__.3885
000000000000f270 l     O .rodata	0000000000000013 __func__.3900
000000000000f288 l     O .rodata	0000000000000012 __func__.3917
000000000000f2a0 l     O .rodata	0000000000000018 __func__.3925
0000000000002cf4 l     F .text	0000000000000090 tee_user_mem_status
000000000000f2b8 l     O .rodata	0000000000000014 __func__.3930
0000000000000000 l    df *ABS*	0000000000000000 trace_ext.c
000000000000f2d0 l     O .rodata	000000000000000a prefix.3608
000000000000f2e0 l     O .rodata	0000000000000011 failed.3609
000000000000f2f8 l     O .rodata	0000000000000005 trunc.3610
0000000000000000 l    df *ABS*	0000000000000000 assert.c
0000000000000000 l    df *ABS*	0000000000000000 bget_malloc.c
000000000000306c l     F .text	0000000000000008 malloc_lock
0000000000003074 l     F .text	0000000000000014 malloc_unlock
0000000000003088 l     F .text	0000000000000018 tag_asan_free
00000000000030a0 l     F .text	0000000000000018 tag_asan_alloced
0000000000011110 l     O .data	0000000000000020 freelist
000000000001ace0 l     O .bss	0000000000000008 totalloc
000000000001ace8 l     O .bss	0000000000000008 numget
000000000001acf0 l     O .bss	0000000000000008 numrel
000000000000f780 l     O .rodata	0000000000000005 __func__.3289
000000000000f788 l     O .rodata	0000000000000006 __func__.3303
000000000000f790 l     O .rodata	0000000000000006 __func__.3311
000000000000f798 l     O .rodata	0000000000000005 __func__.3318
000000000000f7a0 l     O .rodata	0000000000000006 __func__.3326
000000000000f7a8 l     O .rodata	0000000000000007 __func__.3335
000000000001acf8 l     O .bss	0000000000000008 malloc_pool
000000000001ad00 l     O .bss	0000000000000008 malloc_pool_len
000000000001ad08 l     O .bss	0000000000000038 mstats
0000000000003d40 l     F .text	00000000000000cc raw_malloc_return_hook
0000000000003eb8 l     F .text	0000000000000008 raw_malloc_validate_pools
0000000000003ec0 l     F .text	0000000000000034 bpool_foreach_iterator_init
0000000000003ef4 l     F .text	0000000000000138 bpool_foreach_pool
000000000000f7b0 l     O .rodata	0000000000000013 __func__.3374
000000000000402c l     F .text	00000000000000c4 bpool_foreach
00000000000040f0 l     F .text	000000000000008c raw_malloc
000000000000417c l     F .text	0000000000000030 raw_free
00000000000041ac l     F .text	00000000000000a8 raw_calloc
0000000000004254 l     F .text	0000000000000094 raw_realloc
00000000000042e8 l     F .text	00000000000001c4 create_free_block
000000000000f7c8 l     O .rodata	0000000000000012 __func__.3421
00000000000044ac l     F .text	00000000000001e8 brel_before
000000000000f7e0 l     O .rodata	000000000000000c __func__.3430
0000000000004694 l     F .text	0000000000000314 brel_after
000000000000f7f0 l     O .rodata	000000000000000b __func__.3440
00000000000049a8 l     F .text	0000000000000200 raw_memalign
000000000000f800 l     O .rodata	000000000000000d __func__.3454
0000000000004ba8 l     F .text	0000000000000074 bget_buf_size
000000000000f810 l     O .rodata	000000000000000e __func__.3460
0000000000004ccc l     F .text	000000000000002c realloc_unlocked
0000000000004d78 l     F .text	0000000000000030 get_payload_start_size
000000000000f820 l     O .rodata	0000000000000010 __func__.3506
0000000000000000 l    df *ABS*	0000000000000000 snprintf.c
0000000000000000 l    df *ABS*	0000000000000000 memcmp.c
0000000000000000 l    df *ABS*	0000000000000000 memcpy.c
0000000000000000 l    df *ABS*	0000000000000000 memmove.c
0000000000000000 l    df *ABS*	0000000000000000 memset.c
0000000000000000 l    df *ABS*	0000000000000000 strlen.c
0000000000000000 l    df *ABS*	0000000000000000 snprintk.c
000000000000f830 l     O .rodata	0000000000000011 hexdigits
000000000000f848 l     O .rodata	0000000000000011 HEXDIGITS
0000000000005d04 l     F .text	0000000000001e90 kprintf
0000000000005c14 l     F .text	00000000000000f0 uuid2str
0000000000000000 l    df *ABS*	0000000000000000 strlcpy.c
0000000000000000 l    df *ABS*	0000000000000000 trace.c
0000000000007cac l     F .text	0000000000000074 trace_level_to_string
000000000000fa60 l     O .rodata	000000000000002d lvl_strs.3167
0000000000000000 l    df *ABS*	0000000000000000 memchr.c
0000000000000000 l    df *ABS*	0000000000000000 mpa_misc.c
0000000000000000 l    df *ABS*	0000000000000000 mpa_montgomery.c
0000000000000000 l    df *ABS*	0000000000000000 mpa_primetest.c
0000000000010700 l     O .rodata	00000000000000b8 const_small_prime_factors
00000000000107b8 l     O .rodata	0000000000000010 const_miller_rabin_proof_limit
00000000000107c8 l     O .rodata	000000000000000c const_two
0000000000008d34 l     F .text	00000000000000d4 is_small_prime
0000000000008e08 l     F .text	0000000000000070 has_small_factors
0000000000008e78 l     F .text	0000000000000370 primality_test_miller_rabin
0000000000008cfc l     F .text	0000000000000038 check_table
00000000000107d8 l     O .rodata	000000000000001c proof_a.3548
0000000000000000 l    df *ABS*	0000000000000000 mpa_conv.c
0000000000000000 l    df *ABS*	0000000000000000 mpa_div.c
00000000000093b8 l     F .text	00000000000000cc __mpa_soft_div
00000000000094c8 l     F .text	00000000000009bc __mpa_div_q_r_internal
0000000000000000 l    df *ABS*	0000000000000000 mpa_gcd.c
000000000000a3bc l     F .text	0000000000000180 __mpa_divby2
000000000000a53c l     F .text	000000000000039c __mpa_egcd
000000000000a8d8 l     F .text	00000000000001b0 __mpa_gcd
0000000000000000 l    df *ABS*	0000000000000000 mpa_mem_static.c
0000000000000000 l    df *ABS*	0000000000000000 mpa_mul.c
0000000000000000 l    df *ABS*	0000000000000000 mpa_random.c
000000000001ad40 l     O .bss	0000000000000008 get_rng_array
000000000000b8dc l     F .text	0000000000000038 get_random_byte
0000000000000000 l    df *ABS*	0000000000000000 mpa_shift.c
0000000000000000 l    df *ABS*	0000000000000000 mpa_addsub.c
0000000000000000 l    df *ABS*	0000000000000000 mpa_cmp.c
0000000000000000 l    df *ABS*	0000000000000000 mpa_expmod.c
0000000000000000 l    df *ABS*	0000000000000000 mpa_init.c
0000000000000000 l    df *ABS*	0000000000000000 mpa_io.c
000000000000dbc8 l     F .text	0000000000000058 __mpa_isspace
000000000000dc20 l     F .text	00000000000000d0 __mpa_is_char_in_base
000000000000dcf0 l     F .text	0000000000000080 __mpa_digit_value
000000000000dd70 l     F .text	000000000000001c __mpa_digitstr_to_binary_wsize_base_16
000000000000dd8c l     F .text	0000000000000070 __mpa_nibble_to_char
000000000000ddfc l     F .text	0000000000000084 __mpa_word_to_hexstr
000000000000de80 l     F .text	00000000000001b4 __mpa_mpanum_to_hexstr
000000000000e034 l     F .text	0000000000000064 __mpa_count_leading_zero_bits
000000000000e098 l     F .text	000000000000008c __mpa_size_in_base_255
0000000000010868 l     O .rodata	000000000000000c __func__.3622
000000000001ad48 l     O .bss	0000000000001002 buf.3608
0000000000010878 l     O .rodata	000000000000000c __func__.3636
000000000000e68c l     F .text	0000000000000084 set_word
000000000000e888 l     F .text	0000000000000060 get_word
0000000000000000 l    df *ABS*	0000000000000000 mpa_modulus.c
0000000000000000 l    df *ABS*	0000000000000000 
0000000000010c20 l     O *ABS*	0000000000000000 _DYNAMIC
0000000000010af8 l     O *ABS*	0000000000000000 _GLOBAL_OFFSET_TABLE_
00000000000009e8 g     F .text	000000000000000c utee_se_channel_transmit
0000000000000a0c g     F .text	000000000000000c utee_boot
000000000000da84 g     F .text	0000000000000060 mpa_init_static
0000000000008398 g     F .text	0000000000000074 mpa_copy
0000000000001674 g     F .text	000000000000007c TEE_BigIntConvertToFMM
0000000000001444 g     F .text	0000000000000034 TEE_BigIntSquareMod
0000000000000e6c g     F .text	0000000000000044 TEE_BigIntShiftRight
0000000000009250 g     F .text	00000000000000e8 mpa_get_S32
0000000000008458 g     F .text	00000000000000b8 mpa_highest_bit_index
00000000000008b0 g     F .text	000000000000000c utee_storage_obj_create
00000000000009c4 g     F .text	000000000000000c utee_se_session_close
00000000000006b8 g     F .text	000000000000000c utee_return
0000000000000964 g     F .text	000000000000000c utee_se_service_get_readers
00000000000021cc g     F .text	0000000000000028 TEE_Realloc
0000000000009e84 g     F .text	00000000000001e4 __mpa_div_q_r_internal_word
00000000000029b4 g     F .text	0000000000000110 tee_user_mem_realloc
000000000000cd48 g     F .text	00000000000002f8 mpa_sub
0000000000002e00 g     F .text	00000000000001d0 printf
0000000000002ac4 g     F .text	0000000000000198 tee_user_mem_free
00000000000006c4 g     F .text	000000000000000c utee_log
000000000000fac4 g     O .rodata	0000000000000004 NR_STORED_PRIMES
0000000000001bf8 g     F .text	00000000000000f4 TEE_InvokeTACommand
00000000000085a4 g     F .text	0000000000000038 mpa_can_hold
000000000000b3d0 g     F .text	0000000000000118 __mpa_abs_mul_word
0000000000008c1c g     F .text	000000000000006c mpa_montgomery_mul
0000000000005ad8 g     F .text	0000000000000064 vsnprintk
00000000000085dc g     F .text	0000000000000028 mpa_parity
0000000000005574 g     F .text	000000000000020c memmove
000000000000c548 g     F .text	0000000000000068 __mpa_full_adder_ackum
00000000000051ac g     F .text	00000000000000bc snprintf
0000000000000e40 g     F .text	000000000000002c TEE_BigIntCmpS32
0000000000000f10 g     F .text	0000000000000058 TEE_BigIntAdd
00000000000006e8 g     F .text	000000000000000c utee_get_property_name_to_index
000000000000ede0 g     O .rodata	0000000000000008 ta_heap_size
000000000000fac0 g     O .rodata	0000000000000004 MAX_TABULATED_PRIME
00000000000022bc g     F .text	000000000000001c utee_malloc
000000000000076c g     F .text	000000000000000c utee_cryp_state_alloc
0000000000000874 g     F .text	000000000000000c utee_authenc_enc_final
000000000000b35c g     F .text	0000000000000074 __mpa_mul_add_word_cum
0000000000000fc0 g     F .text	0000000000000038 TEE_BigIntNeg
000000000000a274 g     F .text	0000000000000148 mpa_div
0000000000000020 g       .text	0000000000000000 __text_start
000000000000fab0 g     O .rodata	000000000000000c const_one
0000000000005094 g     F .text	0000000000000118 malloc_buffer_overlaps_heap
000000000000d624 g     F .text	000000000000002c __mpa_abs_less_than
000000000000128c g     F .text	00000000000000bc TEE_BigIntSubMod
000000000000b914 g     F .text	00000000000001d4 mpa_get_random
0000000000002340 g     F .text	0000000000000024 get_rng_array
0000000000007d20 g     F .text	00000000000003ec trace_printf
000000000000094c g     F .text	000000000000000c utee_se_service_open
00000000000053f4 g     F .text	0000000000000180 memcpy
0000000000000784 g     F .text	000000000000000c utee_cryp_state_free
0000000000008350 g     F .text	0000000000000048 mpa_wipe
00000000000016f0 g     F .text	00000000000000c0 TEE_BigIntConvertFromFMM
00000000000022a0 g     F .text	0000000000000014 TEE_Panic
00000000000009dc g     F .text	000000000000000c utee_se_channel_get_select_resp
0000000000002fd0 g     F .text	000000000000002c puts
00000000000017b0 g     F .text	0000000000000080 TEE_BigIntComputeFMM
0000000000009338 g     F .text	0000000000000040 mpa_set_word
0000000000003e60 g     F .text	0000000000000058 malloc_get_stats
000000000000bde8 g     F .text	0000000000000388 mpa_shift_left
00000000000007cc g     F .text	000000000000000c utee_cipher_final
000000000000b688 g     F .text	0000000000000130 mpa_mul
0000000000002144 g     F .text	0000000000000064 TEE_GetREETime
0000000000011000 g     O .data	00000000000000d8 ta_props
0000000000004c1c g     F .text	000000000000003c malloc
0000000000000808 g     F .text	000000000000000c utee_cryp_obj_close
0000000000000988 g     F .text	000000000000000c utee_se_reader_open_session
0000000000005268 g     F .text	0000000000000064 vsnprintf
0000000000011130 g     O .data	0000000000000004 trace_level
00000000000022b4 g     F .text	0000000000000008 utee_get_ta_exec_id
0000000000000e0c g     F .text	0000000000000034 TEE_BigIntCmp
00000000000022d8 g     F .text	0000000000000024 utee_realloc
000000000000ef08 g     O .rodata	0000000000000008 ta_num_props
0000000000003500 g     F .text	00000000000000e8 bgetr
0000000000000868 g     F .text	000000000000000c utee_authenc_update_payload
0000000000000c88 g     F .text	00000000000000c0 TEE_BigIntConvertToOctetString
0000000000000a00 g     F .text	000000000000000c utee_cache_operation
0000000000000850 g     F .text	000000000000000c utee_authenc_init
0000000000000eb0 g     F .text	0000000000000038 TEE_BigIntGetBit
000000000000edd8 g     O .rodata	0000000000000008 trace_ext_prefix
000000000000c5b0 g     F .text	00000000000001e4 __mpa_abs_add
000000000000342c g     F .text	00000000000000d4 bgetz
0000000000001e80 g     F .text	0000000000000010 TEE_GetInstanceData
0000000000001f88 g     F .text	0000000000000070 TEE_Wait
000000000000091c g     F .text	000000000000000c utee_storage_obj_write
000000000000b1f0 g     F .text	0000000000000108 mpa_free_static_temp_var
0000000000008c88 g     F .text	0000000000000074 mpa_is_prob_prime
00000000000009f4 g     F .text	000000000000000c utee_se_channel_close
000000000000b7b8 g     F .text	0000000000000100 mpa_mul_word
000000000000223c g     F .text	0000000000000028 TEE_CacheFlush
0000000000000058 g     F .text	0000000000000038 TA_DestroyEntryPoint
0000000000002ffc g     F .text	0000000000000060 _assert_log
0000000000000bb0 g     F .text	0000000000000024 TEE_BigIntFMMContextSizeInU32
000000000000a068 g     F .text	000000000000020c __mpa_div_q_r
0000000000000a74 g     F .text	0000000000000038 _TEE_MathAPI_Init
0000000000000904 g     F .text	000000000000000c utee_storage_next_enum
0000000000011138 g     O .bss	0000000000008000 ta_heap
0000000000001478 g     F .text	000000000000008c TEE_BigIntInvMod
00000000000000c8 g     F .text	000000000000003c TA_CloseSessionEntryPoint
0000000000000778 g     F .text	000000000000000c utee_cryp_state_copy
0000000000000104 g     F .text	0000000000000020 TA_InvokeCommandEntryPoint
000000000000e710 g     F .text	0000000000000178 mpa_set_oct_str
00000000000009b8 g     F .text	000000000000000c utee_se_session_open_channel
000000000000bb88 g     F .text	0000000000000130 __mpa_shift_words_left
00000000000007fc g     F .text	000000000000000c utee_cryp_obj_alloc
0000000000000760 g     F .text	000000000000000c utee_set_ta_time
00000000000007f0 g     F .text	000000000000000c utee_cryp_obj_get_attr
0000000000008758 g     F .text	0000000000000158 __mpa_montgomery_sub_ack
0000000000004c88 g     F .text	0000000000000044 calloc
00000000000021a8 g     F .text	0000000000000024 TEE_Malloc
000000000000073c g     F .text	000000000000000c utee_mask_cancellation
0000000000000814 g     F .text	000000000000000c utee_cryp_obj_reset
0000000000001df8 g     F .text	0000000000000064 TEE_CheckMemoryAccessRights
000000000001bd58 g       .bss	0000000000000000 __gprof_buf_end
000000000000d040 g     F .text	000000000000003c mpa_neg
000000000000fac8 g     O .rodata	0000000000000c38 PRIME_TABLE
0000000000000090 g     F .text	0000000000000038 TA_OpenSessionEntryPoint
000000000000aa88 g     F .text	0000000000000188 mpa_gcd
000000000000840c g     F .text	000000000000004c mpa_abs
00000000000008f8 g     F .text	000000000000000c utee_storage_start_enum
000000000000e12c g     F .text	0000000000000494 mpa_set_str
00000000000008c8 g     F .text	000000000000000c utee_storage_obj_rename
0000000000019138 g     O .bss	0000000000000004 ta_param_types
0000000000001610 g     F .text	0000000000000064 TEE_BigIntIsProbablePrime
000000000000b1c4 g     F .text	000000000000002c mpa_alloc_static_temp_var
000000000000b8b8 g     F .text	0000000000000024 mpa_set_random_generator
00000000000006dc g     F .text	000000000000000c utee_get_property
0000000000000aac g     F .text	0000000000000028 TEE_BigIntInit
0000000000001e90 g     F .text	0000000000000030 TEE_MemMove
0000000000000bd4 g     F .text	00000000000000b4 TEE_BigIntConvertFromOctetString
00000000000110d8 g     O .data	0000000000000008 _ref__utee_mcount
0000000000008130 g     F .text	00000000000001b8 memchr
0000000000001d28 g     F .text	0000000000000068 TEE_UnmaskCancellation
000000000000ebc0 g     F .text	0000000000000070 mpa_mul_mod
00000000000008bc g     F .text	000000000000000c utee_storage_obj_del
0000000000000934 g     F .text	000000000000000c utee_storage_obj_seek
0000000000008a90 g     F .text	000000000000018c mpa_compute_fmm_context
000000000000079c g     F .text	000000000000000c utee_hash_update
000000000000af20 g     F .text	0000000000000074 mpa_init_scratch_mem_sync
0000000000000a18  w    F .text	0000000000000004 __utee_mcount
0000000000001124 g     F .text	00000000000000ac TEE_BigIntMod
00000000000009d0 g     F .text	000000000000000c utee_se_channel_select_next
0000000000000700 g     F .text	000000000000000c utee_close_ta_session
000000000000109c g     F .text	0000000000000088 TEE_BigIntDiv
0000000000007b94 g     F .text	00000000000000b8 strlcpy
0000000000003e0c g     F .text	0000000000000054 malloc_reset_stats
00000000000007c0 g     F .text	000000000000000c utee_cipher_update
00000000000009ac g     F .text	000000000000000c utee_se_session_get_atr
0000000000004cf8 g     F .text	000000000000003c realloc
000000000000c794 g     F .text	0000000000000160 __mpa_abs_add_ackum
0000000000000898 g     F .text	000000000000000c utee_asymm_verify
0000000000000ff8 g     F .text	0000000000000058 TEE_BigIntMul
0000000000009378 g     F .text	0000000000000040 mpa_get_word
0000000000001ef0 g     F .text	0000000000000034 TEE_MemFill
00000000000052cc g     F .text	0000000000000128 memcmp
0000000000004da8 g     F .text	0000000000000218 malloc_add_pool
0000000000007c9c g     F .text	0000000000000010 trace_get_level
0000000000000844 g     F .text	000000000000000c utee_cryp_random_number_generate
0000000000000b90 g     F .text	0000000000000020 TEE_BigIntFMMSizeInU32
0000000000000ad4 g     F .text	0000000000000050 TEE_BigIntInitFMM
000000000000088c g     F .text	000000000000000c utee_asymm_operate
00000000000005f4 g     F .text	00000000000000c4 __utee_entry
000000000000ed64 g       .text	0000000000000000 __text_end
0000000000001504 g     F .text	0000000000000094 TEE_BigIntRelativePrime
000000000000bae8 g     F .text	00000000000000a0 mpa_get_random_digits
0000000000003a94 g     F .text	0000000000000184 bpool
00000000000091e8 g     F .text	0000000000000068 mpa_set_S32
000000000000dae4 g     F .text	00000000000000e4 mpa_init_static_fmm_context
0000000000001cec g     F .text	000000000000003c TEE_GetCancellationFlag
0000000000000958 g     F .text	000000000000000c utee_se_service_close
00000000000027e4 g     F .text	00000000000001d0 tee_user_mem_alloc
0000000000011100 g     O .data	0000000000000010 user_mem_head
00000000000020c4 g     F .text	0000000000000080 TEE_SetTAPersistentTime
000000000000d07c g     F .text	00000000000001f8 mpa_add_word
0000000000000970 g     F .text	000000000000000c utee_se_reader_get_prop
0000000000005780 g     F .text	00000000000001cc memset
0000000000001ff8 g     F .text	00000000000000cc TEE_GetTAPersistentTime
000000000000810c g     F .text	0000000000000024 dhex_dump
0000000000001d90 g     F .text	0000000000000068 TEE_MaskCancellation
000000000000c4e4 g     F .text	0000000000000064 __mpa_full_sub
0000000000000910 g     F .text	000000000000000c utee_storage_obj_read
00000000000022fc g     F .text	0000000000000024 utee_calloc
0000000000000820 g     F .text	000000000000000c utee_cryp_obj_populate
000000000000d650 g     F .text	00000000000000dc mpa_cmp
000000000000ec30 g     F .text	0000000000000134 mpa_inv_mod
000000000000d274 g     F .text	0000000000000200 mpa_sub_word
000000000000b2f8 g     F .text	0000000000000064 __mpa_mul_add_word
000000000000ca8c g     F .text	00000000000002bc mpa_add
000000000000d834 g     F .text	0000000000000250 mpa_exp_mod
000000000000bcb8 g     F .text	0000000000000130 __mpa_shift_words_right
0000000000007c4c g     F .text	0000000000000050 trace_set_level
00000000000009a0 g     F .text	000000000000000c utee_se_session_is_closed
00000000000007d8 g     F .text	000000000000000c utee_cryp_obj_get_info
00000000000008d4 g     F .text	000000000000000c utee_storage_alloc_enum
00000000000008ec g     F .text	000000000000000c utee_storage_reset_enum
0000000000000928 g     F .text	000000000000000c utee_storage_obj_trunc
000000000000eaa4 g     F .text	000000000000003c mpa_mod
000000000000d5f4 g     F .text	0000000000000030 __mpa_abs_greater_than
0000000000000d78 g     F .text	0000000000000094 TEE_BigIntConvertToS32
0000000000000f68 g     F .text	0000000000000058 TEE_BigIntSub
0000000000000718 g     F .text	000000000000000c utee_get_cancellation_flag
0000000000000790 g     F .text	000000000000000c utee_hash_init
0000000000000124 g     F .text	0000000000000008 tahead_get_trace_level
0000000000001830 g     F .text	0000000000000184 __utee_from_param
000000000000faa0 g     O .rodata	0000000000000010 Const_1_LShift_Base
00000000000019b4 g     F .text	000000000000013c __utee_to_param
0000000000004d34 g     F .text	0000000000000044 memalign
0000000000000d48 g     F .text	0000000000000030 TEE_BigIntConvertFromS32
000000000000eb50 g     F .text	0000000000000070 mpa_sub_mod
00000000000007e4 g     F .text	000000000000000c utee_cryp_obj_restrict_usage
0000000000004fc0 g     F .text	00000000000000d4 malloc_buffer_is_within_alloced
000000000000082c g     F .text	000000000000000c utee_cryp_obj_copy
000000000000c170 g     F .text	0000000000000310 mpa_shift_right
0000000000000b24 g     F .text	000000000000006c TEE_BigIntInitFMMContext
0000000000000838 g     F .text	000000000000000c utee_cryp_derive_key
00000000000088b0 g     F .text	00000000000001e0 __mpa_montgomery_mul
000000000000e8e8 g     F .text	00000000000001bc mpa_get_oct_str
000000000000d72c g     F .text	0000000000000108 mpa_cmp_short
0000000000000880 g     F .text	000000000000000c utee_authenc_dec_final
000000000000d474 g     F .text	0000000000000180 __mpa_abs_cmp
0000000000001050 g     F .text	000000000000004c TEE_BigIntSquare
0000000000000020 g     F .text	0000000000000038 TA_CreateEntryPoint
0000000000005a20 g     F .text	00000000000000b8 snprintk
0000000000000ee8 g     F .text	0000000000000028 TEE_BigIntGetBitCount
0000000000001348 g     F .text	00000000000000fc TEE_BigIntMulMod
000000000000228c g     F .text	0000000000000014 __TEE_Panic
0000000000019140 g     O .bss	0000000000000040 ta_params
000000000000b4e8 g     F .text	00000000000001a0 __mpa_abs_mul
00000000000030b8 g     F .text	0000000000000374 bget
00000000000021f4 g     F .text	0000000000000020 TEE_Free
000000000000097c g     F .text	000000000000000c utee_se_reader_get_name
0000000000002264 g     F .text	0000000000000028 TEE_CacheInvalidate
00000000000007b4 g     F .text	000000000000000c utee_cipher_init
000000000000305c g     F .text	0000000000000010 _assert_break
00000000000011d0 g     F .text	00000000000000bc TEE_BigIntAddMod
00000000000008e0 g     F .text	000000000000000c utee_storage_free_enum
000000000000085c g     F .text	000000000000000c utee_authenc_update_aad
0000000000008510 g     F .text	0000000000000094 mpa_get_bit
000000000000af94 g     F .text	000000000000003c mpa_init_scratch_mem
0000000000001ec0 g     F .text	0000000000000030 TEE_MemCompare
0000000000005b3c g     F .text	00000000000000d8 __vsnprintf
0000000000001af0 g     F .text	000000000000009c TEE_OpenTASession
00000000000006d0 g     F .text	000000000000000c utee_panic
0000000000002dcc g     F .text	000000000000002c trace_ext_puts
0000000000002d84 g     F .text	0000000000000048 tee_user_mem_garbage
0000000000002df8 g     F .text	0000000000000008 trace_ext_get_thread_id
0000000000002214 g     F .text	0000000000000028 TEE_CacheClean
00000000000006f4 g     F .text	000000000000000c utee_open_ta_session
0000000000009484 g     F .text	0000000000000044 __mpa_div_dword
00000000000082e8 g     F .text	0000000000000068 __mpa_set_unused_digits_to_zero
000000000000fa90 g     O .rodata	000000000000000c const_largest_deci_base
000000000000e124 g     F .text	0000000000000008 mpa_get_str_size
0000000000002c70 g     F .text	0000000000000084 tee_user_mem_check_heap
00000000000007a8 g     F .text	000000000000000c utee_hash_final
000000000000594c g     F .text	00000000000000d4 strlen
0000000000001598 g     F .text	0000000000000078 TEE_BigIntComputeExtendedGcd
000000000000ac10 g     F .text	0000000000000310 mpa_extended_gcd
000000000000eae0 g     F .text	0000000000000070 mpa_add_mod
00000000000008a4 g     F .text	000000000000000c utee_storage_obj_open
000000000000070c g     F .text	000000000000000c utee_invoke_ta_command
000000000000e5c0 g     F .text	00000000000000cc mpa_get_str
0000000000000748 g     F .text	000000000000000c utee_wait
0000000000002320 g     F .text	0000000000000020 utee_free
0000000000002c5c g     F .text	0000000000000014 tee_user_mem_mark_heap
0000000000001f24 g     F .text	0000000000000064 TEE_GetSystemTime
0000000000000000 g     O .ta_head	0000000000000020 ta_head
00000000000035e8 g     F .text	00000000000004ac brel
000000000000afd0 g     F .text	00000000000001f4 mpa_alloc_static_temp_var_size
0000000000000754 g     F .text	000000000000000c utee_get_time
0000000000008610 g     F .text	0000000000000148 __mpa_montgomery_mul_add
0000000000001e5c g     F .text	0000000000000024 TEE_SetInstanceData
0000000000000730 g     F .text	000000000000000c utee_unmask_cancellation
0000000000000724 g     F .text	000000000000000c utee_check_access_rights
0000000000000994 g     F .text	000000000000000c utee_se_reader_close_sessions
0000000000000940 g     F .text	000000000000000c utee_cryp_obj_generate_key
0000000000001b8c g     F .text	000000000000006c TEE_CloseTASession
0000000000008604 g     F .text	000000000000000c mpa_constant_one
000000000000c480 g     F .text	0000000000000064 __mpa_full_adder
000000000000c8f4 g     F .text	0000000000000198 __mpa_abs_sub
000000000001bd58 g       .bss	0000000000000000 __gprof_buf_start
0000000000004c58 g     F .text	0000000000000030 free
0000000000003c18 g     F .text	0000000000000128 bstats



Disassembly of section .text:

0000000000000020 <TA_CreateEntryPoint>:
TA_CreateEntryPoint():
/home/rex/devel/optee/boot_secure_os/ta/boot_secure_os_ta.c:40
      20:	a9bf7bfd 	stp	x29, x30, [sp,#-16]!
      24:	910003fd 	mov	x29, sp
/home/rex/devel/optee/boot_secure_os/ta/boot_secure_os_ta.c:41
      28:	d0000060 	adrp	x0, e000 <__mpa_mpanum_to_hexstr+0x180>
      2c:	9135a001 	add	x1, x0, #0xd68
      30:	d0000060 	adrp	x0, e000 <__mpa_mpanum_to_hexstr+0x180>
      34:	91362000 	add	x0, x0, #0xd88
      38:	aa0103e4 	mov	x4, x1
      3c:	52800023 	mov	w3, #0x1                   	// #1
      40:	52800062 	mov	w2, #0x3                   	// #3
      44:	52800521 	mov	w1, #0x29                  	// #41
      48:	94001f36 	bl	7d20 <trace_printf>
/home/rex/devel/optee/boot_secure_os/ta/boot_secure_os_ta.c:42
      4c:	52800000 	mov	w0, #0x0                   	// #0
/home/rex/devel/optee/boot_secure_os/ta/boot_secure_os_ta.c:43
      50:	a8c17bfd 	ldp	x29, x30, [sp],#16
      54:	d65f03c0 	ret

0000000000000058 <TA_DestroyEntryPoint>:
TA_DestroyEntryPoint():
/home/rex/devel/optee/boot_secure_os/ta/boot_secure_os_ta.c:50
      58:	a9bf7bfd 	stp	x29, x30, [sp,#-16]!
      5c:	910003fd 	mov	x29, sp
/home/rex/devel/optee/boot_secure_os/ta/boot_secure_os_ta.c:51
      60:	d0000060 	adrp	x0, e000 <__mpa_mpanum_to_hexstr+0x180>
      64:	9135a001 	add	x1, x0, #0xd68
      68:	d0000060 	adrp	x0, e000 <__mpa_mpanum_to_hexstr+0x180>
      6c:	91368000 	add	x0, x0, #0xda0
      70:	aa0103e4 	mov	x4, x1
      74:	52800023 	mov	w3, #0x1                   	// #1
      78:	52800062 	mov	w2, #0x3                   	// #3
      7c:	52800661 	mov	w1, #0x33                  	// #51
      80:	94001f28 	bl	7d20 <trace_printf>
/home/rex/devel/optee/boot_secure_os/ta/boot_secure_os_ta.c:52
      84:	d503201f 	nop
      88:	a8c17bfd 	ldp	x29, x30, [sp],#16
      8c:	d65f03c0 	ret

0000000000000090 <TA_OpenSessionEntryPoint>:
TA_OpenSessionEntryPoint():
/home/rex/devel/optee/boot_secure_os/ta/boot_secure_os_ta.c:63
      90:	d100c3ff 	sub	sp, sp, #0x30
      94:	b9001fe0 	str	w0, [sp,#28]
      98:	f9000be1 	str	x1, [sp,#16]
      9c:	f90007e2 	str	x2, [sp,#8]
/home/rex/devel/optee/boot_secure_os/ta/boot_secure_os_ta.c:64
      a0:	b9002fff 	str	wzr, [sp,#44]
/home/rex/devel/optee/boot_secure_os/ta/boot_secure_os_ta.c:68
      a4:	b9401fe1 	ldr	w1, [sp,#28]
      a8:	b9402fe0 	ldr	w0, [sp,#44]
      ac:	6b00003f 	cmp	w1, w0
      b0:	54000060 	b.eq	bc <TA_OpenSessionEntryPoint+0x2c>
/home/rex/devel/optee/boot_secure_os/ta/boot_secure_os_ta.c:69
      b4:	129fff20 	mov	w0, #0xffff0006            	// #-65530
      b8:	14000002 	b	c0 <TA_OpenSessionEntryPoint+0x30>
/home/rex/devel/optee/boot_secure_os/ta/boot_secure_os_ta.c:81
      bc:	52800000 	mov	w0, #0x0                   	// #0
/home/rex/devel/optee/boot_secure_os/ta/boot_secure_os_ta.c:82
      c0:	9100c3ff 	add	sp, sp, #0x30
      c4:	d65f03c0 	ret

00000000000000c8 <TA_CloseSessionEntryPoint>:
TA_CloseSessionEntryPoint():
/home/rex/devel/optee/boot_secure_os/ta/boot_secure_os_ta.c:89
      c8:	a9be7bfd 	stp	x29, x30, [sp,#-32]!
      cc:	910003fd 	mov	x29, sp
      d0:	f9000fa0 	str	x0, [x29,#24]
/home/rex/devel/optee/boot_secure_os/ta/boot_secure_os_ta.c:91
      d4:	d0000060 	adrp	x0, e000 <__mpa_mpanum_to_hexstr+0x180>
      d8:	9135e001 	add	x1, x0, #0xd78
      dc:	d0000060 	adrp	x0, e000 <__mpa_mpanum_to_hexstr+0x180>
      e0:	9136e000 	add	x0, x0, #0xdb8
      e4:	aa0103e4 	mov	x4, x1
      e8:	52800023 	mov	w3, #0x1                   	// #1
      ec:	52800062 	mov	w2, #0x3                   	// #3
      f0:	52800b61 	mov	w1, #0x5b                  	// #91
      f4:	94001f0b 	bl	7d20 <trace_printf>
/home/rex/devel/optee/boot_secure_os/ta/boot_secure_os_ta.c:92
      f8:	d503201f 	nop
      fc:	a8c27bfd 	ldp	x29, x30, [sp],#32
     100:	d65f03c0 	ret

0000000000000104 <TA_InvokeCommandEntryPoint>:
TA_InvokeCommandEntryPoint():
/home/rex/devel/optee/boot_secure_os/ta/boot_secure_os_ta.c:102
     104:	d10083ff 	sub	sp, sp, #0x20
     108:	f9000fe0 	str	x0, [sp,#24]
     10c:	b90017e1 	str	w1, [sp,#20]
     110:	b90013e2 	str	w2, [sp,#16]
     114:	f90007e3 	str	x3, [sp,#8]
/home/rex/devel/optee/boot_secure_os/ta/boot_secure_os_ta.c:103
     118:	52800000 	mov	w0, #0x0                   	// #0
/home/rex/devel/optee/boot_secure_os/ta/boot_secure_os_ta.c:104
     11c:	910083ff 	add	sp, sp, #0x20
     120:	d65f03c0 	ret

0000000000000124 <tahead_get_trace_level>:
tahead_get_trace_level():
/home/rex/devel/optee/optee_os/out/arm/export-ta_arm64/src/user_ta_header.c:132
     124:	52800080 	mov	w0, #0x4                   	// #4
/home/rex/devel/optee/optee_os/out/arm/export-ta_arm64/src/user_ta_header.c:133
     128:	d65f03c0 	ret

000000000000012c <__utee_gprof_init>:
__utee_gprof_init():
/home/rex/devel/optee/optee_os/lib/libutee/arch/arm/../../tee_api_private.h:51
     12c:	d503201f 	nop
     130:	d65f03c0 	ret

0000000000000134 <__utee_gprof_fini>:
__utee_gprof_fini():
/home/rex/devel/optee/optee_os/lib/libutee/arch/arm/../../tee_api_private.h:52
     134:	d503201f 	nop
     138:	d65f03c0 	ret

000000000000013c <ta_header_save_params>:
ta_header_save_params():
/home/rex/devel/optee/optee_os/lib/libutee/arch/arm/user_ta_entry.c:75
     13c:	a9be7bfd 	stp	x29, x30, [sp,#-32]!
     140:	910003fd 	mov	x29, sp
     144:	b9001fa0 	str	w0, [x29,#28]
     148:	f9000ba1 	str	x1, [x29,#16]
/home/rex/devel/optee/optee_os/lib/libutee/arch/arm/user_ta_entry.c:76
     14c:	90000080 	adrp	x0, 10000 <PRIME_TABLE+0x538>
     150:	f9459800 	ldr	x0, [x0,#2864]
     154:	b9401fa1 	ldr	w1, [x29,#28]
     158:	b9000001 	str	w1, [x0]
/home/rex/devel/optee/optee_os/lib/libutee/arch/arm/user_ta_entry.c:78
     15c:	f9400ba0 	ldr	x0, [x29,#16]
     160:	f100001f 	cmp	x0, #0x0
     164:	540000e0 	b.eq	180 <ta_header_save_params+0x44>
/home/rex/devel/optee/optee_os/lib/libutee/arch/arm/user_ta_entry.c:79
     168:	90000080 	adrp	x0, 10000 <PRIME_TABLE+0x538>
     16c:	f945a000 	ldr	x0, [x0,#2880]
     170:	d2800802 	mov	x2, #0x40                  	// #64
     174:	f9400ba1 	ldr	x1, [x29,#16]
     178:	9400149f 	bl	53f4 <memcpy>
/home/rex/devel/optee/optee_os/lib/libutee/arch/arm/user_ta_entry.c:82
     17c:	14000006 	b	194 <ta_header_save_params+0x58>
/home/rex/devel/optee/optee_os/lib/libutee/arch/arm/user_ta_entry.c:81
     180:	90000080 	adrp	x0, 10000 <PRIME_TABLE+0x538>
     184:	f945a000 	ldr	x0, [x0,#2880]
     188:	d2800802 	mov	x2, #0x40                  	// #64
     18c:	52800001 	mov	w1, #0x0                   	// #0
     190:	9400157c 	bl	5780 <memset>
/home/rex/devel/optee/optee_os/lib/libutee/arch/arm/user_ta_entry.c:82
     194:	d503201f 	nop
     198:	a8c27bfd 	ldp	x29, x30, [sp],#32
     19c:	d65f03c0 	ret

00000000000001a0 <ta_header_get_session>:
ta_header_get_session():
/home/rex/devel/optee/optee_os/lib/libutee/arch/arm/user_ta_entry.c:85
     1a0:	d10083ff 	sub	sp, sp, #0x20
     1a4:	b9000fe0 	str	w0, [sp,#12]
/home/rex/devel/optee/optee_os/lib/libutee/arch/arm/user_ta_entry.c:88
     1a8:	b0000080 	adrp	x0, 11000 <ta_props>
     1ac:	91038000 	add	x0, x0, #0xe0
     1b0:	f9400000 	ldr	x0, [x0]
     1b4:	f9000fe0 	str	x0, [sp,#24]
     1b8:	1400000b 	b	1e4 <ta_header_get_session+0x44>
/home/rex/devel/optee/optee_os/lib/libutee/arch/arm/user_ta_entry.c:89
     1bc:	f9400fe0 	ldr	x0, [sp,#24]
     1c0:	b9400001 	ldr	w1, [x0]
     1c4:	b9400fe0 	ldr	w0, [sp,#12]
     1c8:	6b00003f 	cmp	w1, w0
     1cc:	54000061 	b.ne	1d8 <ta_header_get_session+0x38>
/home/rex/devel/optee/optee_os/lib/libutee/arch/arm/user_ta_entry.c:90
     1d0:	f9400fe0 	ldr	x0, [sp,#24]
     1d4:	14000008 	b	1f4 <ta_header_get_session+0x54>
/home/rex/devel/optee/optee_os/lib/libutee/arch/arm/user_ta_entry.c:88 (discriminator 2)
     1d8:	f9400fe0 	ldr	x0, [sp,#24]
     1dc:	f9400800 	ldr	x0, [x0,#16]
     1e0:	f9000fe0 	str	x0, [sp,#24]
/home/rex/devel/optee/optee_os/lib/libutee/arch/arm/user_ta_entry.c:88 (discriminator 1)
     1e4:	f9400fe0 	ldr	x0, [sp,#24]
     1e8:	f100001f 	cmp	x0, #0x0
     1ec:	54fffe81 	b.ne	1bc <ta_header_get_session+0x1c>
/home/rex/devel/optee/optee_os/lib/libutee/arch/arm/user_ta_entry.c:92
     1f0:	d2800000 	mov	x0, #0x0                   	// #0
/home/rex/devel/optee/optee_os/lib/libutee/arch/arm/user_ta_entry.c:93
     1f4:	910083ff 	add	sp, sp, #0x20
     1f8:	d65f03c0 	ret

00000000000001fc <ta_header_add_session>:
ta_header_add_session():
/home/rex/devel/optee/optee_os/lib/libutee/arch/arm/user_ta_entry.c:96
     1fc:	a9bd7bfd 	stp	x29, x30, [sp,#-48]!
     200:	910003fd 	mov	x29, sp
     204:	b9001fa0 	str	w0, [x29,#28]
/home/rex/devel/optee/optee_os/lib/libutee/arch/arm/user_ta_entry.c:97
     208:	b9401fa0 	ldr	w0, [x29,#28]
     20c:	97ffffe5 	bl	1a0 <ta_header_get_session>
     210:	f90017a0 	str	x0, [x29,#40]
/home/rex/devel/optee/optee_os/lib/libutee/arch/arm/user_ta_entry.c:99
     214:	f94017a0 	ldr	x0, [x29,#40]
     218:	f100001f 	cmp	x0, #0x0
     21c:	54000060 	b.eq	228 <ta_header_add_session+0x2c>
/home/rex/devel/optee/optee_os/lib/libutee/arch/arm/user_ta_entry.c:100
     220:	52800000 	mov	w0, #0x0                   	// #0
     224:	14000049 	b	348 <ta_header_add_session+0x14c>
/home/rex/devel/optee/optee_os/lib/libutee/arch/arm/user_ta_entry.c:102
     228:	f00000c0 	adrp	x0, 1b000 <buf.3608+0x2b8>
     22c:	91353000 	add	x0, x0, #0xd4c
     230:	b9400000 	ldr	w0, [x0]
     234:	11000401 	add	w1, w0, #0x1
     238:	f00000c0 	adrp	x0, 1b000 <buf.3608+0x2b8>
     23c:	91353000 	add	x0, x0, #0xd4c
     240:	b9000001 	str	w1, [x0]
/home/rex/devel/optee/optee_os/lib/libutee/arch/arm/user_ta_entry.c:104
     244:	f00000c0 	adrp	x0, 1b000 <buf.3608+0x2b8>
     248:	91353000 	add	x0, x0, #0xd4c
     24c:	b9400000 	ldr	w0, [x0]
     250:	7100041f 	cmp	w0, #0x1
     254:	540003a1 	b.ne	2c8 <ta_header_add_session+0xcc>
/home/rex/devel/optee/optee_os/lib/libutee/arch/arm/user_ta_entry.c:107
     258:	f00000c0 	adrp	x0, 1b000 <buf.3608+0x2b8>
     25c:	91354000 	add	x0, x0, #0xd50
     260:	39400000 	ldrb	w0, [x0]
     264:	52000000 	eor	w0, w0, #0x1
     268:	12001c00 	and	w0, w0, #0xff
     26c:	7100001f 	cmp	w0, #0x0
     270:	540001e0 	b.eq	2ac <ta_header_add_session+0xb0>
/home/rex/devel/optee/optee_os/lib/libutee/arch/arm/user_ta_entry.c:108
     274:	97ffffac 	bl	124 <tahead_get_trace_level>
     278:	94001e75 	bl	7c4c <trace_set_level>
/home/rex/devel/optee/optee_os/lib/libutee/arch/arm/user_ta_entry.c:109
     27c:	97ffffac 	bl	12c <__utee_gprof_init>
/home/rex/devel/optee/optee_os/lib/libutee/arch/arm/user_ta_entry.c:110
     280:	90000080 	adrp	x0, 10000 <PRIME_TABLE+0x538>
     284:	f9458000 	ldr	x0, [x0,#2816]
     288:	f9400001 	ldr	x1, [x0]
     28c:	90000080 	adrp	x0, 10000 <PRIME_TABLE+0x538>
     290:	f9459400 	ldr	x0, [x0,#2856]
     294:	940012c5 	bl	4da8 <malloc_add_pool>
/home/rex/devel/optee/optee_os/lib/libutee/arch/arm/user_ta_entry.c:111
     298:	940001f7 	bl	a74 <_TEE_MathAPI_Init>
/home/rex/devel/optee/optee_os/lib/libutee/arch/arm/user_ta_entry.c:112
     29c:	f00000c0 	adrp	x0, 1b000 <buf.3608+0x2b8>
     2a0:	91354000 	add	x0, x0, #0xd50
     2a4:	52800021 	mov	w1, #0x1                   	// #1
     2a8:	39000001 	strb	w1, [x0]
/home/rex/devel/optee/optee_os/lib/libutee/arch/arm/user_ta_entry.c:115
     2ac:	97ffff5d 	bl	20 <TA_CreateEntryPoint>
     2b0:	b90027a0 	str	w0, [x29,#36]
/home/rex/devel/optee/optee_os/lib/libutee/arch/arm/user_ta_entry.c:116
     2b4:	b94027a0 	ldr	w0, [x29,#36]
     2b8:	7100001f 	cmp	w0, #0x0
     2bc:	54000060 	b.eq	2c8 <ta_header_add_session+0xcc>
/home/rex/devel/optee/optee_os/lib/libutee/arch/arm/user_ta_entry.c:117
     2c0:	b94027a0 	ldr	w0, [x29,#36]
     2c4:	14000021 	b	348 <ta_header_add_session+0x14c>
/home/rex/devel/optee/optee_os/lib/libutee/arch/arm/user_ta_entry.c:120
     2c8:	52b00001 	mov	w1, #0x80000000            	// #-2147483648
     2cc:	52800400 	mov	w0, #0x20                  	// #32
     2d0:	940007b6 	bl	21a8 <TEE_Malloc>
     2d4:	f90017a0 	str	x0, [x29,#40]
/home/rex/devel/optee/optee_os/lib/libutee/arch/arm/user_ta_entry.c:122
     2d8:	f94017a0 	ldr	x0, [x29,#40]
     2dc:	f100001f 	cmp	x0, #0x0
     2e0:	54000061 	b.ne	2ec <ta_header_add_session+0xf0>
/home/rex/devel/optee/optee_os/lib/libutee/arch/arm/user_ta_entry.c:123
     2e4:	129ffe60 	mov	w0, #0xffff000c            	// #-65524
     2e8:	14000018 	b	348 <ta_header_add_session+0x14c>
/home/rex/devel/optee/optee_os/lib/libutee/arch/arm/user_ta_entry.c:124
     2ec:	f94017a0 	ldr	x0, [x29,#40]
     2f0:	b9401fa1 	ldr	w1, [x29,#28]
     2f4:	b9000001 	str	w1, [x0]
/home/rex/devel/optee/optee_os/lib/libutee/arch/arm/user_ta_entry.c:125
     2f8:	f94017a0 	ldr	x0, [x29,#40]
     2fc:	f900041f 	str	xzr, [x0,#8]
/home/rex/devel/optee/optee_os/lib/libutee/arch/arm/user_ta_entry.c:126
     300:	f94017a0 	ldr	x0, [x29,#40]
     304:	f900081f 	str	xzr, [x0,#16]
     308:	b0000080 	adrp	x0, 11000 <ta_props>
     30c:	91038000 	add	x0, x0, #0xe0
     310:	f9400401 	ldr	x1, [x0,#8]
     314:	f94017a0 	ldr	x0, [x29,#40]
     318:	f9000c01 	str	x1, [x0,#24]
     31c:	b0000080 	adrp	x0, 11000 <ta_props>
     320:	91038000 	add	x0, x0, #0xe0
     324:	f9400400 	ldr	x0, [x0,#8]
     328:	f94017a1 	ldr	x1, [x29,#40]
     32c:	f9000001 	str	x1, [x0]
     330:	f94017a0 	ldr	x0, [x29,#40]
     334:	91004001 	add	x1, x0, #0x10
     338:	b0000080 	adrp	x0, 11000 <ta_props>
     33c:	91038000 	add	x0, x0, #0xe0
     340:	f9000401 	str	x1, [x0,#8]
/home/rex/devel/optee/optee_os/lib/libutee/arch/arm/user_ta_entry.c:128
     344:	52800000 	mov	w0, #0x0                   	// #0
/home/rex/devel/optee/optee_os/lib/libutee/arch/arm/user_ta_entry.c:129
     348:	a8c37bfd 	ldp	x29, x30, [sp],#48
     34c:	d65f03c0 	ret

0000000000000350 <ta_header_remove_session>:
ta_header_remove_session():
/home/rex/devel/optee/optee_os/lib/libutee/arch/arm/user_ta_entry.c:132
     350:	a9bd7bfd 	stp	x29, x30, [sp,#-48]!
     354:	910003fd 	mov	x29, sp
     358:	b9001fa0 	str	w0, [x29,#28]
/home/rex/devel/optee/optee_os/lib/libutee/arch/arm/user_ta_entry.c:135
     35c:	b0000080 	adrp	x0, 11000 <ta_props>
     360:	91038000 	add	x0, x0, #0xe0
     364:	f9400000 	ldr	x0, [x0]
     368:	f90017a0 	str	x0, [x29,#40]
     36c:	1400002e 	b	424 <ta_header_remove_session+0xd4>
/home/rex/devel/optee/optee_os/lib/libutee/arch/arm/user_ta_entry.c:136
     370:	f94017a0 	ldr	x0, [x29,#40]
     374:	b9400001 	ldr	w1, [x0]
     378:	b9401fa0 	ldr	w0, [x29,#28]
     37c:	6b00003f 	cmp	w1, w0
     380:	540004c1 	b.ne	418 <ta_header_remove_session+0xc8>
/home/rex/devel/optee/optee_os/lib/libutee/arch/arm/user_ta_entry.c:137
     384:	f94017a0 	ldr	x0, [x29,#40]
     388:	f9400800 	ldr	x0, [x0,#16]
     38c:	f100001f 	cmp	x0, #0x0
     390:	540000e0 	b.eq	3ac <ta_header_remove_session+0x5c>
/home/rex/devel/optee/optee_os/lib/libutee/arch/arm/user_ta_entry.c:137 (discriminator 1)
     394:	f94017a0 	ldr	x0, [x29,#40]
     398:	f9400800 	ldr	x0, [x0,#16]
     39c:	f94017a1 	ldr	x1, [x29,#40]
     3a0:	f9400c21 	ldr	x1, [x1,#24]
     3a4:	f9000c01 	str	x1, [x0,#24]
     3a8:	14000006 	b	3c0 <ta_header_remove_session+0x70>
/home/rex/devel/optee/optee_os/lib/libutee/arch/arm/user_ta_entry.c:137 (discriminator 2)
     3ac:	f94017a0 	ldr	x0, [x29,#40]
     3b0:	f9400c01 	ldr	x1, [x0,#24]
     3b4:	b0000080 	adrp	x0, 11000 <ta_props>
     3b8:	91038000 	add	x0, x0, #0xe0
     3bc:	f9000401 	str	x1, [x0,#8]
/home/rex/devel/optee/optee_os/lib/libutee/arch/arm/user_ta_entry.c:137 (discriminator 4)
     3c0:	f94017a0 	ldr	x0, [x29,#40]
     3c4:	f9400c00 	ldr	x0, [x0,#24]
     3c8:	f94017a1 	ldr	x1, [x29,#40]
     3cc:	f9400821 	ldr	x1, [x1,#16]
     3d0:	f9000001 	str	x1, [x0]
/home/rex/devel/optee/optee_os/lib/libutee/arch/arm/user_ta_entry.c:138 (discriminator 4)
     3d4:	f94017a0 	ldr	x0, [x29,#40]
     3d8:	94000787 	bl	21f4 <TEE_Free>
/home/rex/devel/optee/optee_os/lib/libutee/arch/arm/user_ta_entry.c:140 (discriminator 4)
     3dc:	f00000c0 	adrp	x0, 1b000 <buf.3608+0x2b8>
     3e0:	91353000 	add	x0, x0, #0xd4c
     3e4:	b9400000 	ldr	w0, [x0]
     3e8:	51000401 	sub	w1, w0, #0x1
     3ec:	f00000c0 	adrp	x0, 1b000 <buf.3608+0x2b8>
     3f0:	91353000 	add	x0, x0, #0xd4c
     3f4:	b9000001 	str	w1, [x0]
/home/rex/devel/optee/optee_os/lib/libutee/arch/arm/user_ta_entry.c:141 (discriminator 4)
     3f8:	f00000c0 	adrp	x0, 1b000 <buf.3608+0x2b8>
     3fc:	91353000 	add	x0, x0, #0xd4c
     400:	b9400000 	ldr	w0, [x0]
     404:	7100001f 	cmp	w0, #0x0
     408:	54000161 	b.ne	434 <ta_header_remove_session+0xe4>
/home/rex/devel/optee/optee_os/lib/libutee/arch/arm/user_ta_entry.c:142
     40c:	97ffff4a 	bl	134 <__utee_gprof_fini>
/home/rex/devel/optee/optee_os/lib/libutee/arch/arm/user_ta_entry.c:143
     410:	97ffff12 	bl	58 <TA_DestroyEntryPoint>
/home/rex/devel/optee/optee_os/lib/libutee/arch/arm/user_ta_entry.c:146
     414:	14000008 	b	434 <ta_header_remove_session+0xe4>
/home/rex/devel/optee/optee_os/lib/libutee/arch/arm/user_ta_entry.c:135 (discriminator 2)
     418:	f94017a0 	ldr	x0, [x29,#40]
     41c:	f9400800 	ldr	x0, [x0,#16]
     420:	f90017a0 	str	x0, [x29,#40]
/home/rex/devel/optee/optee_os/lib/libutee/arch/arm/user_ta_entry.c:135 (discriminator 1)
     424:	f94017a0 	ldr	x0, [x29,#40]
     428:	f100001f 	cmp	x0, #0x0
     42c:	54fffa21 	b.ne	370 <ta_header_remove_session+0x20>
     430:	14000002 	b	438 <ta_header_remove_session+0xe8>
/home/rex/devel/optee/optee_os/lib/libutee/arch/arm/user_ta_entry.c:146
     434:	d503201f 	nop
/home/rex/devel/optee/optee_os/lib/libutee/arch/arm/user_ta_entry.c:149
     438:	a8c37bfd 	ldp	x29, x30, [sp],#48
     43c:	d65f03c0 	ret

0000000000000440 <entry_open_session>:
entry_open_session():
/home/rex/devel/optee/optee_os/lib/libutee/arch/arm/user_ta_entry.c:153
     440:	a9b87bfd 	stp	x29, x30, [sp,#-128]!
     444:	910003fd 	mov	x29, sp
     448:	f9000fa0 	str	x0, [x29,#24]
     44c:	f9000ba1 	str	x1, [x29,#16]
/home/rex/devel/optee/optee_os/lib/libutee/arch/arm/user_ta_entry.c:159
     450:	f9400fa0 	ldr	x0, [x29,#24]
     454:	97ffff6a 	bl	1fc <ta_header_add_session>
     458:	b9007fa0 	str	w0, [x29,#124]
/home/rex/devel/optee/optee_os/lib/libutee/arch/arm/user_ta_entry.c:160
     45c:	b9407fa0 	ldr	w0, [x29,#124]
     460:	7100001f 	cmp	w0, #0x0
     464:	54000060 	b.eq	470 <entry_open_session+0x30>
/home/rex/devel/optee/optee_os/lib/libutee/arch/arm/user_ta_entry.c:161
     468:	b9407fa0 	ldr	w0, [x29,#124]
     46c:	14000025 	b	500 <entry_open_session+0xc0>
/home/rex/devel/optee/optee_os/lib/libutee/arch/arm/user_ta_entry.c:163
     470:	f9400fa0 	ldr	x0, [x29,#24]
     474:	97ffff4b 	bl	1a0 <ta_header_get_session>
     478:	f9003ba0 	str	x0, [x29,#112]
/home/rex/devel/optee/optee_os/lib/libutee/arch/arm/user_ta_entry.c:164
     47c:	f9403ba0 	ldr	x0, [x29,#112]
     480:	f100001f 	cmp	x0, #0x0
     484:	54000061 	b.ne	490 <entry_open_session+0x50>
/home/rex/devel/optee/optee_os/lib/libutee/arch/arm/user_ta_entry.c:165
     488:	129fff00 	mov	w0, #0xffff0007            	// #-65529
     48c:	1400001d 	b	500 <entry_open_session+0xc0>
/home/rex/devel/optee/optee_os/lib/libutee/arch/arm/user_ta_entry.c:167
     490:	9101b3a1 	add	x1, x29, #0x6c
     494:	9100a3a0 	add	x0, x29, #0x28
     498:	f9400ba2 	ldr	x2, [x29,#16]
     49c:	94000546 	bl	19b4 <__utee_to_param>
/home/rex/devel/optee/optee_os/lib/libutee/arch/arm/user_ta_entry.c:168
     4a0:	b9406fa0 	ldr	w0, [x29,#108]
     4a4:	9100a3a1 	add	x1, x29, #0x28
     4a8:	97ffff25 	bl	13c <ta_header_save_params>
/home/rex/devel/optee/optee_os/lib/libutee/arch/arm/user_ta_entry.c:170
     4ac:	b9406fa3 	ldr	w3, [x29,#108]
     4b0:	f9403ba0 	ldr	x0, [x29,#112]
     4b4:	91002001 	add	x1, x0, #0x8
     4b8:	9100a3a0 	add	x0, x29, #0x28
     4bc:	aa0103e2 	mov	x2, x1
     4c0:	aa0003e1 	mov	x1, x0
     4c4:	2a0303e0 	mov	w0, w3
     4c8:	97fffef2 	bl	90 <TA_OpenSessionEntryPoint>
     4cc:	b9007fa0 	str	w0, [x29,#124]
/home/rex/devel/optee/optee_os/lib/libutee/arch/arm/user_ta_entry.c:173
     4d0:	b9406fa0 	ldr	w0, [x29,#108]
     4d4:	9100a3a1 	add	x1, x29, #0x28
     4d8:	aa0103e2 	mov	x2, x1
     4dc:	2a0003e1 	mov	w1, w0
     4e0:	f9400ba0 	ldr	x0, [x29,#16]
     4e4:	940004d3 	bl	1830 <__utee_from_param>
/home/rex/devel/optee/optee_os/lib/libutee/arch/arm/user_ta_entry.c:175
     4e8:	b9407fa0 	ldr	w0, [x29,#124]
     4ec:	7100001f 	cmp	w0, #0x0
     4f0:	54000060 	b.eq	4fc <entry_open_session+0xbc>
/home/rex/devel/optee/optee_os/lib/libutee/arch/arm/user_ta_entry.c:176
     4f4:	f9400fa0 	ldr	x0, [x29,#24]
     4f8:	97ffff96 	bl	350 <ta_header_remove_session>
/home/rex/devel/optee/optee_os/lib/libutee/arch/arm/user_ta_entry.c:177
     4fc:	b9407fa0 	ldr	w0, [x29,#124]
/home/rex/devel/optee/optee_os/lib/libutee/arch/arm/user_ta_entry.c:178 (discriminator 1)
     500:	a8c87bfd 	ldp	x29, x30, [sp],#128
     504:	d65f03c0 	ret

0000000000000508 <entry_close_session>:
entry_close_session():
/home/rex/devel/optee/optee_os/lib/libutee/arch/arm/user_ta_entry.c:181
     508:	a9bd7bfd 	stp	x29, x30, [sp,#-48]!
     50c:	910003fd 	mov	x29, sp
     510:	f9000fa0 	str	x0, [x29,#24]
/home/rex/devel/optee/optee_os/lib/libutee/arch/arm/user_ta_entry.c:182
     514:	f9400fa0 	ldr	x0, [x29,#24]
     518:	97ffff22 	bl	1a0 <ta_header_get_session>
     51c:	f90017a0 	str	x0, [x29,#40]
/home/rex/devel/optee/optee_os/lib/libutee/arch/arm/user_ta_entry.c:184
     520:	f94017a0 	ldr	x0, [x29,#40]
     524:	f100001f 	cmp	x0, #0x0
     528:	54000061 	b.ne	534 <entry_close_session+0x2c>
/home/rex/devel/optee/optee_os/lib/libutee/arch/arm/user_ta_entry.c:185
     52c:	129fff00 	mov	w0, #0xffff0007            	// #-65529
     530:	14000007 	b	54c <entry_close_session+0x44>
/home/rex/devel/optee/optee_os/lib/libutee/arch/arm/user_ta_entry.c:187
     534:	f94017a0 	ldr	x0, [x29,#40]
     538:	f9400400 	ldr	x0, [x0,#8]
     53c:	97fffee3 	bl	c8 <TA_CloseSessionEntryPoint>
/home/rex/devel/optee/optee_os/lib/libutee/arch/arm/user_ta_entry.c:189
     540:	f9400fa0 	ldr	x0, [x29,#24]
     544:	97ffff83 	bl	350 <ta_header_remove_session>
/home/rex/devel/optee/optee_os/lib/libutee/arch/arm/user_ta_entry.c:190
     548:	52800000 	mov	w0, #0x0                   	// #0
/home/rex/devel/optee/optee_os/lib/libutee/arch/arm/user_ta_entry.c:191
     54c:	a8c37bfd 	ldp	x29, x30, [sp],#48
     550:	d65f03c0 	ret

0000000000000554 <entry_invoke_command>:
entry_invoke_command():
/home/rex/devel/optee/optee_os/lib/libutee/arch/arm/user_ta_entry.c:195
     554:	a9b87bfd 	stp	x29, x30, [sp,#-128]!
     558:	910003fd 	mov	x29, sp
     55c:	f90017a0 	str	x0, [x29,#40]
     560:	f90013a1 	str	x1, [x29,#32]
     564:	f9000fa2 	str	x2, [x29,#24]
/home/rex/devel/optee/optee_os/lib/libutee/arch/arm/user_ta_entry.c:199
     568:	f94017a0 	ldr	x0, [x29,#40]
     56c:	97ffff0d 	bl	1a0 <ta_header_get_session>
     570:	f9003fa0 	str	x0, [x29,#120]
/home/rex/devel/optee/optee_os/lib/libutee/arch/arm/user_ta_entry.c:201
     574:	f9403fa0 	ldr	x0, [x29,#120]
     578:	f100001f 	cmp	x0, #0x0
     57c:	54000061 	b.ne	588 <entry_invoke_command+0x34>
/home/rex/devel/optee/optee_os/lib/libutee/arch/arm/user_ta_entry.c:202
     580:	129fff00 	mov	w0, #0xffff0007            	// #-65529
     584:	1400001a 	b	5ec <entry_invoke_command+0x98>
/home/rex/devel/optee/optee_os/lib/libutee/arch/arm/user_ta_entry.c:204
     588:	9101c3a1 	add	x1, x29, #0x70
     58c:	9100c3a0 	add	x0, x29, #0x30
     590:	f94013a2 	ldr	x2, [x29,#32]
     594:	94000508 	bl	19b4 <__utee_to_param>
/home/rex/devel/optee/optee_os/lib/libutee/arch/arm/user_ta_entry.c:205
     598:	b94073a0 	ldr	w0, [x29,#112]
     59c:	9100c3a1 	add	x1, x29, #0x30
     5a0:	97fffee7 	bl	13c <ta_header_save_params>
/home/rex/devel/optee/optee_os/lib/libutee/arch/arm/user_ta_entry.c:207
     5a4:	f9403fa0 	ldr	x0, [x29,#120]
     5a8:	f9400400 	ldr	x0, [x0,#8]
     5ac:	f9400fa1 	ldr	x1, [x29,#24]
     5b0:	2a0103e4 	mov	w4, w1
     5b4:	b94073a1 	ldr	w1, [x29,#112]
     5b8:	9100c3a2 	add	x2, x29, #0x30
     5bc:	aa0203e3 	mov	x3, x2
     5c0:	2a0103e2 	mov	w2, w1
     5c4:	2a0403e1 	mov	w1, w4
     5c8:	97fffecf 	bl	104 <TA_InvokeCommandEntryPoint>
     5cc:	b90077a0 	str	w0, [x29,#116]
/home/rex/devel/optee/optee_os/lib/libutee/arch/arm/user_ta_entry.c:210
     5d0:	b94073a0 	ldr	w0, [x29,#112]
     5d4:	9100c3a1 	add	x1, x29, #0x30
     5d8:	aa0103e2 	mov	x2, x1
     5dc:	2a0003e1 	mov	w1, w0
     5e0:	f94013a0 	ldr	x0, [x29,#32]
     5e4:	94000493 	bl	1830 <__utee_from_param>
/home/rex/devel/optee/optee_os/lib/libutee/arch/arm/user_ta_entry.c:211
     5e8:	b94077a0 	ldr	w0, [x29,#116]
/home/rex/devel/optee/optee_os/lib/libutee/arch/arm/user_ta_entry.c:212 (discriminator 1)
     5ec:	a8c87bfd 	ldp	x29, x30, [sp],#128
     5f0:	d65f03c0 	ret

00000000000005f4 <__utee_entry>:
__utee_entry():
/home/rex/devel/optee/optee_os/lib/libutee/arch/arm/user_ta_entry.c:216
     5f4:	a9bc7bfd 	stp	x29, x30, [sp,#-64]!
     5f8:	910003fd 	mov	x29, sp
     5fc:	f90017a0 	str	x0, [x29,#40]
     600:	f90013a1 	str	x1, [x29,#32]
     604:	f9000fa2 	str	x2, [x29,#24]
     608:	f9000ba3 	str	x3, [x29,#16]
/home/rex/devel/optee/optee_os/lib/libutee/arch/arm/user_ta_entry.c:227
     60c:	f94017a0 	ldr	x0, [x29,#40]
     610:	f100041f 	cmp	x0, #0x1
     614:	54000160 	b.eq	640 <__utee_entry+0x4c>
     618:	f100041f 	cmp	x0, #0x1
     61c:	54000083 	b.cc	62c <__utee_entry+0x38>
     620:	f100081f 	cmp	x0, #0x2
     624:	54000160 	b.eq	650 <__utee_entry+0x5c>
     628:	14000010 	b	668 <__utee_entry+0x74>
/home/rex/devel/optee/optee_os/lib/libutee/arch/arm/user_ta_entry.c:229
     62c:	f9400fa1 	ldr	x1, [x29,#24]
     630:	f94013a0 	ldr	x0, [x29,#32]
     634:	97ffff83 	bl	440 <entry_open_session>
     638:	b9003fa0 	str	w0, [x29,#60]
/home/rex/devel/optee/optee_os/lib/libutee/arch/arm/user_ta_entry.c:230
     63c:	1400001a 	b	6a4 <__utee_entry+0xb0>
/home/rex/devel/optee/optee_os/lib/libutee/arch/arm/user_ta_entry.c:232
     640:	f94013a0 	ldr	x0, [x29,#32]
     644:	97ffffb1 	bl	508 <entry_close_session>
     648:	b9003fa0 	str	w0, [x29,#60]
/home/rex/devel/optee/optee_os/lib/libutee/arch/arm/user_ta_entry.c:233
     64c:	14000016 	b	6a4 <__utee_entry+0xb0>
/home/rex/devel/optee/optee_os/lib/libutee/arch/arm/user_ta_entry.c:235
     650:	f9400ba2 	ldr	x2, [x29,#16]
     654:	f9400fa1 	ldr	x1, [x29,#24]
     658:	f94013a0 	ldr	x0, [x29,#32]
     65c:	97ffffbe 	bl	554 <entry_invoke_command>
     660:	b9003fa0 	str	w0, [x29,#60]
/home/rex/devel/optee/optee_os/lib/libutee/arch/arm/user_ta_entry.c:236
     664:	14000010 	b	6a4 <__utee_entry+0xb0>
/home/rex/devel/optee/optee_os/lib/libutee/arch/arm/user_ta_entry.c:238
     668:	12800000 	mov	w0, #0xffffffff            	// #-1
     66c:	b9003fa0 	str	w0, [x29,#60]
/home/rex/devel/optee/optee_os/lib/libutee/arch/arm/user_ta_entry.c:239
     670:	d0000060 	adrp	x0, e000 <__mpa_mpanum_to_hexstr+0x180>
     674:	913c4001 	add	x1, x0, #0xf10
     678:	d0000060 	adrp	x0, e000 <__mpa_mpanum_to_hexstr+0x180>
     67c:	913c8000 	add	x0, x0, #0xf20
     680:	52800005 	mov	w5, #0x0                   	// #0
     684:	aa0103e4 	mov	x4, x1
     688:	52800023 	mov	w3, #0x1                   	// #1
     68c:	52800022 	mov	w2, #0x1                   	// #1
     690:	52801de1 	mov	w1, #0xef                  	// #239
     694:	94001da3 	bl	7d20 <trace_printf>
     698:	52800000 	mov	w0, #0x0                   	// #0
     69c:	940006fc 	bl	228c <__TEE_Panic>
/home/rex/devel/optee/optee_os/lib/libutee/arch/arm/user_ta_entry.c:240
     6a0:	d503201f 	nop
/home/rex/devel/optee/optee_os/lib/libutee/arch/arm/user_ta_entry.c:242
     6a4:	d2800001 	mov	x1, #0x0                   	// #0
     6a8:	52800000 	mov	w0, #0x0                   	// #0
     6ac:	97fffea4 	bl	13c <ta_header_save_params>
/home/rex/devel/optee/optee_os/lib/libutee/arch/arm/user_ta_entry.c:243
     6b0:	b9403fa0 	ldr	w0, [x29,#60]
     6b4:	94000001 	bl	6b8 <utee_return>

00000000000006b8 <utee_return>:
utee_return():
/home/rex/devel/optee/optee_os/lib/libutee/arch/arm/utee_syscalls_asm.S:30
     6b8:	d2800008 	mov	x8, #0x0                   	// #0
     6bc:	d4000001 	svc	#0x0
     6c0:	d65f03c0 	ret

00000000000006c4 <utee_log>:
utee_log():
/home/rex/devel/optee/optee_os/lib/libutee/arch/arm/utee_syscalls_asm.S:32
     6c4:	d2800028 	mov	x8, #0x1                   	// #1
     6c8:	d4000001 	svc	#0x0
     6cc:	d65f03c0 	ret

00000000000006d0 <utee_panic>:
utee_panic():
/home/rex/devel/optee/optee_os/lib/libutee/arch/arm/utee_syscalls_asm.S:34
     6d0:	d2800048 	mov	x8, #0x2                   	// #2
     6d4:	d4000001 	svc	#0x0
     6d8:	d65f03c0 	ret

00000000000006dc <utee_get_property>:
utee_get_property():
/home/rex/devel/optee/optee_os/lib/libutee/arch/arm/utee_syscalls_asm.S:36
     6dc:	d2800068 	mov	x8, #0x3                   	// #3
     6e0:	d4000001 	svc	#0x0
     6e4:	d65f03c0 	ret

00000000000006e8 <utee_get_property_name_to_index>:
utee_get_property_name_to_index():
/home/rex/devel/optee/optee_os/lib/libutee/arch/arm/utee_syscalls_asm.S:38
     6e8:	d2800088 	mov	x8, #0x4                   	// #4
     6ec:	d4000001 	svc	#0x0
     6f0:	d65f03c0 	ret

00000000000006f4 <utee_open_ta_session>:
utee_open_ta_session():
/home/rex/devel/optee/optee_os/lib/libutee/arch/arm/utee_syscalls_asm.S:41
     6f4:	d28000a8 	mov	x8, #0x5                   	// #5
     6f8:	d4000001 	svc	#0x0
     6fc:	d65f03c0 	ret

0000000000000700 <utee_close_ta_session>:
utee_close_ta_session():
/home/rex/devel/optee/optee_os/lib/libutee/arch/arm/utee_syscalls_asm.S:43
     700:	d28000c8 	mov	x8, #0x6                   	// #6
     704:	d4000001 	svc	#0x0
     708:	d65f03c0 	ret

000000000000070c <utee_invoke_ta_command>:
utee_invoke_ta_command():
/home/rex/devel/optee/optee_os/lib/libutee/arch/arm/utee_syscalls_asm.S:45
     70c:	d28000e8 	mov	x8, #0x7                   	// #7
     710:	d4000001 	svc	#0x0
     714:	d65f03c0 	ret

0000000000000718 <utee_get_cancellation_flag>:
utee_get_cancellation_flag():
/home/rex/devel/optee/optee_os/lib/libutee/arch/arm/utee_syscalls_asm.S:47
     718:	d2800128 	mov	x8, #0x9                   	// #9
     71c:	d4000001 	svc	#0x0
     720:	d65f03c0 	ret

0000000000000724 <utee_check_access_rights>:
utee_check_access_rights():
/home/rex/devel/optee/optee_os/lib/libutee/arch/arm/utee_syscalls_asm.S:50
     724:	d2800108 	mov	x8, #0x8                   	// #8
     728:	d4000001 	svc	#0x0
     72c:	d65f03c0 	ret

0000000000000730 <utee_unmask_cancellation>:
utee_unmask_cancellation():
/home/rex/devel/optee/optee_os/lib/libutee/arch/arm/utee_syscalls_asm.S:52
     730:	d2800148 	mov	x8, #0xa                   	// #10
     734:	d4000001 	svc	#0x0
     738:	d65f03c0 	ret

000000000000073c <utee_mask_cancellation>:
utee_mask_cancellation():
/home/rex/devel/optee/optee_os/lib/libutee/arch/arm/utee_syscalls_asm.S:54
     73c:	d2800168 	mov	x8, #0xb                   	// #11
     740:	d4000001 	svc	#0x0
     744:	d65f03c0 	ret

0000000000000748 <utee_wait>:
utee_wait():
/home/rex/devel/optee/optee_os/lib/libutee/arch/arm/utee_syscalls_asm.S:56
     748:	d2800188 	mov	x8, #0xc                   	// #12
     74c:	d4000001 	svc	#0x0
     750:	d65f03c0 	ret

0000000000000754 <utee_get_time>:
utee_get_time():
/home/rex/devel/optee/optee_os/lib/libutee/arch/arm/utee_syscalls_asm.S:58
     754:	d28001a8 	mov	x8, #0xd                   	// #13
     758:	d4000001 	svc	#0x0
     75c:	d65f03c0 	ret

0000000000000760 <utee_set_ta_time>:
utee_set_ta_time():
/home/rex/devel/optee/optee_os/lib/libutee/arch/arm/utee_syscalls_asm.S:60
     760:	d28001c8 	mov	x8, #0xe                   	// #14
     764:	d4000001 	svc	#0x0
     768:	d65f03c0 	ret

000000000000076c <utee_cryp_state_alloc>:
utee_cryp_state_alloc():
/home/rex/devel/optee/optee_os/lib/libutee/arch/arm/utee_syscalls_asm.S:62
     76c:	d28001e8 	mov	x8, #0xf                   	// #15
     770:	d4000001 	svc	#0x0
     774:	d65f03c0 	ret

0000000000000778 <utee_cryp_state_copy>:
utee_cryp_state_copy():
/home/rex/devel/optee/optee_os/lib/libutee/arch/arm/utee_syscalls_asm.S:64
     778:	d2800208 	mov	x8, #0x10                  	// #16
     77c:	d4000001 	svc	#0x0
     780:	d65f03c0 	ret

0000000000000784 <utee_cryp_state_free>:
utee_cryp_state_free():
/home/rex/devel/optee/optee_os/lib/libutee/arch/arm/utee_syscalls_asm.S:66
     784:	d2800228 	mov	x8, #0x11                  	// #17
     788:	d4000001 	svc	#0x0
     78c:	d65f03c0 	ret

0000000000000790 <utee_hash_init>:
utee_hash_init():
/home/rex/devel/optee/optee_os/lib/libutee/arch/arm/utee_syscalls_asm.S:68
     790:	d2800248 	mov	x8, #0x12                  	// #18
     794:	d4000001 	svc	#0x0
     798:	d65f03c0 	ret

000000000000079c <utee_hash_update>:
utee_hash_update():
/home/rex/devel/optee/optee_os/lib/libutee/arch/arm/utee_syscalls_asm.S:70
     79c:	d2800268 	mov	x8, #0x13                  	// #19
     7a0:	d4000001 	svc	#0x0
     7a4:	d65f03c0 	ret

00000000000007a8 <utee_hash_final>:
utee_hash_final():
/home/rex/devel/optee/optee_os/lib/libutee/arch/arm/utee_syscalls_asm.S:72
     7a8:	d2800288 	mov	x8, #0x14                  	// #20
     7ac:	d4000001 	svc	#0x0
     7b0:	d65f03c0 	ret

00000000000007b4 <utee_cipher_init>:
utee_cipher_init():
/home/rex/devel/optee/optee_os/lib/libutee/arch/arm/utee_syscalls_asm.S:74
     7b4:	d28002a8 	mov	x8, #0x15                  	// #21
     7b8:	d4000001 	svc	#0x0
     7bc:	d65f03c0 	ret

00000000000007c0 <utee_cipher_update>:
utee_cipher_update():
/home/rex/devel/optee/optee_os/lib/libutee/arch/arm/utee_syscalls_asm.S:76
     7c0:	d28002c8 	mov	x8, #0x16                  	// #22
     7c4:	d4000001 	svc	#0x0
     7c8:	d65f03c0 	ret

00000000000007cc <utee_cipher_final>:
utee_cipher_final():
/home/rex/devel/optee/optee_os/lib/libutee/arch/arm/utee_syscalls_asm.S:78
     7cc:	d28002e8 	mov	x8, #0x17                  	// #23
     7d0:	d4000001 	svc	#0x0
     7d4:	d65f03c0 	ret

00000000000007d8 <utee_cryp_obj_get_info>:
utee_cryp_obj_get_info():
/home/rex/devel/optee/optee_os/lib/libutee/arch/arm/utee_syscalls_asm.S:80
     7d8:	d2800308 	mov	x8, #0x18                  	// #24
     7dc:	d4000001 	svc	#0x0
     7e0:	d65f03c0 	ret

00000000000007e4 <utee_cryp_obj_restrict_usage>:
utee_cryp_obj_restrict_usage():
/home/rex/devel/optee/optee_os/lib/libutee/arch/arm/utee_syscalls_asm.S:82
     7e4:	d2800328 	mov	x8, #0x19                  	// #25
     7e8:	d4000001 	svc	#0x0
     7ec:	d65f03c0 	ret

00000000000007f0 <utee_cryp_obj_get_attr>:
utee_cryp_obj_get_attr():
/home/rex/devel/optee/optee_os/lib/libutee/arch/arm/utee_syscalls_asm.S:85
     7f0:	d2800348 	mov	x8, #0x1a                  	// #26
     7f4:	d4000001 	svc	#0x0
     7f8:	d65f03c0 	ret

00000000000007fc <utee_cryp_obj_alloc>:
utee_cryp_obj_alloc():
/home/rex/devel/optee/optee_os/lib/libutee/arch/arm/utee_syscalls_asm.S:87
     7fc:	d2800368 	mov	x8, #0x1b                  	// #27
     800:	d4000001 	svc	#0x0
     804:	d65f03c0 	ret

0000000000000808 <utee_cryp_obj_close>:
utee_cryp_obj_close():
/home/rex/devel/optee/optee_os/lib/libutee/arch/arm/utee_syscalls_asm.S:89
     808:	d2800388 	mov	x8, #0x1c                  	// #28
     80c:	d4000001 	svc	#0x0
     810:	d65f03c0 	ret

0000000000000814 <utee_cryp_obj_reset>:
utee_cryp_obj_reset():
/home/rex/devel/optee/optee_os/lib/libutee/arch/arm/utee_syscalls_asm.S:91
     814:	d28003a8 	mov	x8, #0x1d                  	// #29
     818:	d4000001 	svc	#0x0
     81c:	d65f03c0 	ret

0000000000000820 <utee_cryp_obj_populate>:
utee_cryp_obj_populate():
/home/rex/devel/optee/optee_os/lib/libutee/arch/arm/utee_syscalls_asm.S:93
     820:	d28003c8 	mov	x8, #0x1e                  	// #30
     824:	d4000001 	svc	#0x0
     828:	d65f03c0 	ret

000000000000082c <utee_cryp_obj_copy>:
utee_cryp_obj_copy():
/home/rex/devel/optee/optee_os/lib/libutee/arch/arm/utee_syscalls_asm.S:95
     82c:	d28003e8 	mov	x8, #0x1f                  	// #31
     830:	d4000001 	svc	#0x0
     834:	d65f03c0 	ret

0000000000000838 <utee_cryp_derive_key>:
utee_cryp_derive_key():
/home/rex/devel/optee/optee_os/lib/libutee/arch/arm/utee_syscalls_asm.S:97
     838:	d2800408 	mov	x8, #0x20                  	// #32
     83c:	d4000001 	svc	#0x0
     840:	d65f03c0 	ret

0000000000000844 <utee_cryp_random_number_generate>:
utee_cryp_random_number_generate():
/home/rex/devel/optee/optee_os/lib/libutee/arch/arm/utee_syscalls_asm.S:99
     844:	d2800428 	mov	x8, #0x21                  	// #33
     848:	d4000001 	svc	#0x0
     84c:	d65f03c0 	ret

0000000000000850 <utee_authenc_init>:
utee_authenc_init():
/home/rex/devel/optee/optee_os/lib/libutee/arch/arm/utee_syscalls_asm.S:102
     850:	d2800448 	mov	x8, #0x22                  	// #34
     854:	d4000001 	svc	#0x0
     858:	d65f03c0 	ret

000000000000085c <utee_authenc_update_aad>:
utee_authenc_update_aad():
/home/rex/devel/optee/optee_os/lib/libutee/arch/arm/utee_syscalls_asm.S:104
     85c:	d2800468 	mov	x8, #0x23                  	// #35
     860:	d4000001 	svc	#0x0
     864:	d65f03c0 	ret

0000000000000868 <utee_authenc_update_payload>:
utee_authenc_update_payload():
/home/rex/devel/optee/optee_os/lib/libutee/arch/arm/utee_syscalls_asm.S:106
     868:	d2800488 	mov	x8, #0x24                  	// #36
     86c:	d4000001 	svc	#0x0
     870:	d65f03c0 	ret

0000000000000874 <utee_authenc_enc_final>:
utee_authenc_enc_final():
/home/rex/devel/optee/optee_os/lib/libutee/arch/arm/utee_syscalls_asm.S:109
     874:	d28004a8 	mov	x8, #0x25                  	// #37
     878:	d4000001 	svc	#0x0
     87c:	d65f03c0 	ret

0000000000000880 <utee_authenc_dec_final>:
utee_authenc_dec_final():
/home/rex/devel/optee/optee_os/lib/libutee/arch/arm/utee_syscalls_asm.S:111
     880:	d28004c8 	mov	x8, #0x26                  	// #38
     884:	d4000001 	svc	#0x0
     888:	d65f03c0 	ret

000000000000088c <utee_asymm_operate>:
utee_asymm_operate():
/home/rex/devel/optee/optee_os/lib/libutee/arch/arm/utee_syscalls_asm.S:113
     88c:	d28004e8 	mov	x8, #0x27                  	// #39
     890:	d4000001 	svc	#0x0
     894:	d65f03c0 	ret

0000000000000898 <utee_asymm_verify>:
utee_asymm_verify():
/home/rex/devel/optee/optee_os/lib/libutee/arch/arm/utee_syscalls_asm.S:115
     898:	d2800508 	mov	x8, #0x28                  	// #40
     89c:	d4000001 	svc	#0x0
     8a0:	d65f03c0 	ret

00000000000008a4 <utee_storage_obj_open>:
utee_storage_obj_open():
/home/rex/devel/optee/optee_os/lib/libutee/arch/arm/utee_syscalls_asm.S:117
     8a4:	d2800528 	mov	x8, #0x29                  	// #41
     8a8:	d4000001 	svc	#0x0
     8ac:	d65f03c0 	ret

00000000000008b0 <utee_storage_obj_create>:
utee_storage_obj_create():
/home/rex/devel/optee/optee_os/lib/libutee/arch/arm/utee_syscalls_asm.S:119
     8b0:	d2800548 	mov	x8, #0x2a                  	// #42
     8b4:	d4000001 	svc	#0x0
     8b8:	d65f03c0 	ret

00000000000008bc <utee_storage_obj_del>:
utee_storage_obj_del():
/home/rex/devel/optee/optee_os/lib/libutee/arch/arm/utee_syscalls_asm.S:121
     8bc:	d2800568 	mov	x8, #0x2b                  	// #43
     8c0:	d4000001 	svc	#0x0
     8c4:	d65f03c0 	ret

00000000000008c8 <utee_storage_obj_rename>:
utee_storage_obj_rename():
/home/rex/devel/optee/optee_os/lib/libutee/arch/arm/utee_syscalls_asm.S:123
     8c8:	d2800588 	mov	x8, #0x2c                  	// #44
     8cc:	d4000001 	svc	#0x0
     8d0:	d65f03c0 	ret

00000000000008d4 <utee_storage_alloc_enum>:
utee_storage_alloc_enum():
/home/rex/devel/optee/optee_os/lib/libutee/arch/arm/utee_syscalls_asm.S:125
     8d4:	d28005a8 	mov	x8, #0x2d                  	// #45
     8d8:	d4000001 	svc	#0x0
     8dc:	d65f03c0 	ret

00000000000008e0 <utee_storage_free_enum>:
utee_storage_free_enum():
/home/rex/devel/optee/optee_os/lib/libutee/arch/arm/utee_syscalls_asm.S:127
     8e0:	d28005c8 	mov	x8, #0x2e                  	// #46
     8e4:	d4000001 	svc	#0x0
     8e8:	d65f03c0 	ret

00000000000008ec <utee_storage_reset_enum>:
utee_storage_reset_enum():
/home/rex/devel/optee/optee_os/lib/libutee/arch/arm/utee_syscalls_asm.S:129
     8ec:	d28005e8 	mov	x8, #0x2f                  	// #47
     8f0:	d4000001 	svc	#0x0
     8f4:	d65f03c0 	ret

00000000000008f8 <utee_storage_start_enum>:
utee_storage_start_enum():
/home/rex/devel/optee/optee_os/lib/libutee/arch/arm/utee_syscalls_asm.S:131
     8f8:	d2800608 	mov	x8, #0x30                  	// #48
     8fc:	d4000001 	svc	#0x0
     900:	d65f03c0 	ret

0000000000000904 <utee_storage_next_enum>:
utee_storage_next_enum():
/home/rex/devel/optee/optee_os/lib/libutee/arch/arm/utee_syscalls_asm.S:133
     904:	d2800628 	mov	x8, #0x31                  	// #49
     908:	d4000001 	svc	#0x0
     90c:	d65f03c0 	ret

0000000000000910 <utee_storage_obj_read>:
utee_storage_obj_read():
/home/rex/devel/optee/optee_os/lib/libutee/arch/arm/utee_syscalls_asm.S:135
     910:	d2800648 	mov	x8, #0x32                  	// #50
     914:	d4000001 	svc	#0x0
     918:	d65f03c0 	ret

000000000000091c <utee_storage_obj_write>:
utee_storage_obj_write():
/home/rex/devel/optee/optee_os/lib/libutee/arch/arm/utee_syscalls_asm.S:137
     91c:	d2800668 	mov	x8, #0x33                  	// #51
     920:	d4000001 	svc	#0x0
     924:	d65f03c0 	ret

0000000000000928 <utee_storage_obj_trunc>:
utee_storage_obj_trunc():
/home/rex/devel/optee/optee_os/lib/libutee/arch/arm/utee_syscalls_asm.S:139
     928:	d2800688 	mov	x8, #0x34                  	// #52
     92c:	d4000001 	svc	#0x0
     930:	d65f03c0 	ret

0000000000000934 <utee_storage_obj_seek>:
utee_storage_obj_seek():
/home/rex/devel/optee/optee_os/lib/libutee/arch/arm/utee_syscalls_asm.S:141
     934:	d28006a8 	mov	x8, #0x35                  	// #53
     938:	d4000001 	svc	#0x0
     93c:	d65f03c0 	ret

0000000000000940 <utee_cryp_obj_generate_key>:
utee_cryp_obj_generate_key():
/home/rex/devel/optee/optee_os/lib/libutee/arch/arm/utee_syscalls_asm.S:143
     940:	d28006c8 	mov	x8, #0x36                  	// #54
     944:	d4000001 	svc	#0x0
     948:	d65f03c0 	ret

000000000000094c <utee_se_service_open>:
utee_se_service_open():
/home/rex/devel/optee/optee_os/lib/libutee/arch/arm/utee_syscalls_asm.S:146
     94c:	d28006e8 	mov	x8, #0x37                  	// #55
     950:	d4000001 	svc	#0x0
     954:	d65f03c0 	ret

0000000000000958 <utee_se_service_close>:
utee_se_service_close():
/home/rex/devel/optee/optee_os/lib/libutee/arch/arm/utee_syscalls_asm.S:148
     958:	d2800708 	mov	x8, #0x38                  	// #56
     95c:	d4000001 	svc	#0x0
     960:	d65f03c0 	ret

0000000000000964 <utee_se_service_get_readers>:
utee_se_service_get_readers():
/home/rex/devel/optee/optee_os/lib/libutee/arch/arm/utee_syscalls_asm.S:150
     964:	d2800728 	mov	x8, #0x39                  	// #57
     968:	d4000001 	svc	#0x0
     96c:	d65f03c0 	ret

0000000000000970 <utee_se_reader_get_prop>:
utee_se_reader_get_prop():
/home/rex/devel/optee/optee_os/lib/libutee/arch/arm/utee_syscalls_asm.S:153
     970:	d2800748 	mov	x8, #0x3a                  	// #58
     974:	d4000001 	svc	#0x0
     978:	d65f03c0 	ret

000000000000097c <utee_se_reader_get_name>:
utee_se_reader_get_name():
/home/rex/devel/optee/optee_os/lib/libutee/arch/arm/utee_syscalls_asm.S:156
     97c:	d2800768 	mov	x8, #0x3b                  	// #59
     980:	d4000001 	svc	#0x0
     984:	d65f03c0 	ret

0000000000000988 <utee_se_reader_open_session>:
utee_se_reader_open_session():
/home/rex/devel/optee/optee_os/lib/libutee/arch/arm/utee_syscalls_asm.S:159
     988:	d2800788 	mov	x8, #0x3c                  	// #60
     98c:	d4000001 	svc	#0x0
     990:	d65f03c0 	ret

0000000000000994 <utee_se_reader_close_sessions>:
utee_se_reader_close_sessions():
/home/rex/devel/optee/optee_os/lib/libutee/arch/arm/utee_syscalls_asm.S:162
     994:	d28007a8 	mov	x8, #0x3d                  	// #61
     998:	d4000001 	svc	#0x0
     99c:	d65f03c0 	ret

00000000000009a0 <utee_se_session_is_closed>:
utee_se_session_is_closed():
/home/rex/devel/optee/optee_os/lib/libutee/arch/arm/utee_syscalls_asm.S:165
     9a0:	d28007c8 	mov	x8, #0x3e                  	// #62
     9a4:	d4000001 	svc	#0x0
     9a8:	d65f03c0 	ret

00000000000009ac <utee_se_session_get_atr>:
utee_se_session_get_atr():
/home/rex/devel/optee/optee_os/lib/libutee/arch/arm/utee_syscalls_asm.S:168
     9ac:	d28007e8 	mov	x8, #0x3f                  	// #63
     9b0:	d4000001 	svc	#0x0
     9b4:	d65f03c0 	ret

00000000000009b8 <utee_se_session_open_channel>:
utee_se_session_open_channel():
/home/rex/devel/optee/optee_os/lib/libutee/arch/arm/utee_syscalls_asm.S:171
     9b8:	d2800808 	mov	x8, #0x40                  	// #64
     9bc:	d4000001 	svc	#0x0
     9c0:	d65f03c0 	ret

00000000000009c4 <utee_se_session_close>:
utee_se_session_close():
/home/rex/devel/optee/optee_os/lib/libutee/arch/arm/utee_syscalls_asm.S:174
     9c4:	d2800828 	mov	x8, #0x41                  	// #65
     9c8:	d4000001 	svc	#0x0
     9cc:	d65f03c0 	ret

00000000000009d0 <utee_se_channel_select_next>:
utee_se_channel_select_next():
/home/rex/devel/optee/optee_os/lib/libutee/arch/arm/utee_syscalls_asm.S:177
     9d0:	d2800848 	mov	x8, #0x42                  	// #66
     9d4:	d4000001 	svc	#0x0
     9d8:	d65f03c0 	ret

00000000000009dc <utee_se_channel_get_select_resp>:
utee_se_channel_get_select_resp():
/home/rex/devel/optee/optee_os/lib/libutee/arch/arm/utee_syscalls_asm.S:180
     9dc:	d2800868 	mov	x8, #0x43                  	// #67
     9e0:	d4000001 	svc	#0x0
     9e4:	d65f03c0 	ret

00000000000009e8 <utee_se_channel_transmit>:
utee_se_channel_transmit():
/home/rex/devel/optee/optee_os/lib/libutee/arch/arm/utee_syscalls_asm.S:183
     9e8:	d2800888 	mov	x8, #0x44                  	// #68
     9ec:	d4000001 	svc	#0x0
     9f0:	d65f03c0 	ret

00000000000009f4 <utee_se_channel_close>:
utee_se_channel_close():
/home/rex/devel/optee/optee_os/lib/libutee/arch/arm/utee_syscalls_asm.S:186
     9f4:	d28008a8 	mov	x8, #0x45                  	// #69
     9f8:	d4000001 	svc	#0x0
     9fc:	d65f03c0 	ret

0000000000000a00 <utee_cache_operation>:
utee_cache_operation():
/home/rex/devel/optee/optee_os/lib/libutee/arch/arm/utee_syscalls_asm.S:189
     a00:	d28008c8 	mov	x8, #0x46                  	// #70
     a04:	d4000001 	svc	#0x0
     a08:	d65f03c0 	ret

0000000000000a0c <utee_boot>:
utee_boot():
/home/rex/devel/optee/optee_os/lib/libutee/arch/arm/utee_syscalls_asm.S:192
     a0c:	d28008e8 	mov	x8, #0x47                  	// #71
     a10:	d4000001 	svc	#0x0
     a14:	d65f03c0 	ret

0000000000000a18 <__utee_mcount>:
__utee_mcount():
/home/rex/devel/optee/optee_os/lib/libutee/arch/arm/gprof/gprof_a64.S:74
     a18:	d65f03c0 	ret

0000000000000a1c <TEE_BigInt_Panic>:
TEE_BigInt_Panic():
/home/rex/devel/optee/optee_os/lib/libutee/tee_api_arith.c:63
     a1c:	a9be7bfd 	stp	x29, x30, [sp,#-32]!
     a20:	910003fd 	mov	x29, sp
     a24:	f9000fa0 	str	x0, [x29,#24]
/home/rex/devel/optee/optee_os/lib/libutee/tee_api_arith.c:64
     a28:	d0000060 	adrp	x0, e000 <__mpa_mpanum_to_hexstr+0x180>
     a2c:	913cc000 	add	x0, x0, #0xf30
     a30:	f9400fa1 	ldr	x1, [x29,#24]
     a34:	940008f3 	bl	2e00 <printf>
/home/rex/devel/optee/optee_os/lib/libutee/tee_api_arith.c:65
     a38:	d0000060 	adrp	x0, e000 <__mpa_mpanum_to_hexstr+0x180>
     a3c:	913d0001 	add	x1, x0, #0xf40
     a40:	d0000060 	adrp	x0, e000 <__mpa_mpanum_to_hexstr+0x180>
     a44:	913ea000 	add	x0, x0, #0xfa8
     a48:	528c24e5 	mov	w5, #0x6127                	// #24871
     a4c:	72a01625 	movk	w5, #0xb1, lsl #16
     a50:	aa0103e4 	mov	x4, x1
     a54:	52800023 	mov	w3, #0x1                   	// #1
     a58:	52800022 	mov	w2, #0x1                   	// #1
     a5c:	52800821 	mov	w1, #0x41                  	// #65
     a60:	94001cb0 	bl	7d20 <trace_printf>
     a64:	528c24e0 	mov	w0, #0x6127                	// #24871
     a68:	72a01620 	movk	w0, #0xb1, lsl #16
     a6c:	94000608 	bl	228c <__TEE_Panic>
/home/rex/devel/optee/optee_os/lib/libutee/tee_api_arith.c:66 (discriminator 1)
     a70:	14000000 	b	a70 <TEE_BigInt_Panic+0x54>

0000000000000a74 <_TEE_MathAPI_Init>:
_TEE_MathAPI_Init():
/home/rex/devel/optee/optee_os/lib/libutee/tee_api_arith.c:78
     a74:	a9bf7bfd 	stp	x29, x30, [sp,#-16]!
     a78:	910003fd 	mov	x29, sp
/home/rex/devel/optee/optee_os/lib/libutee/tee_api_arith.c:79
     a7c:	b0000080 	adrp	x0, 11000 <ta_props>
     a80:	9103c000 	add	x0, x0, #0xf0
     a84:	f9400000 	ldr	x0, [x0]
     a88:	52810002 	mov	w2, #0x800                 	// #2048
     a8c:	d2836801 	mov	x1, #0x1b40                	// #6976
     a90:	94002941 	bl	af94 <mpa_init_scratch_mem>
/home/rex/devel/optee/optee_os/lib/libutee/tee_api_arith.c:81
     a94:	90000080 	adrp	x0, 10000 <PRIME_TABLE+0x538>
     a98:	f9458800 	ldr	x0, [x0,#2832]
     a9c:	94002b87 	bl	b8b8 <mpa_set_random_generator>
/home/rex/devel/optee/optee_os/lib/libutee/tee_api_arith.c:82
     aa0:	d503201f 	nop
     aa4:	a8c17bfd 	ldp	x29, x30, [sp],#16
     aa8:	d65f03c0 	ret

0000000000000aac <TEE_BigIntInit>:
TEE_BigIntInit():
/home/rex/devel/optee/optee_os/lib/libutee/tee_api_arith.c:88
     aac:	a9be7bfd 	stp	x29, x30, [sp,#-32]!
     ab0:	910003fd 	mov	x29, sp
     ab4:	f9000fa0 	str	x0, [x29,#24]
     ab8:	b90017a1 	str	w1, [x29,#20]
/home/rex/devel/optee/optee_os/lib/libutee/tee_api_arith.c:89
     abc:	b94017a1 	ldr	w1, [x29,#20]
     ac0:	f9400fa0 	ldr	x0, [x29,#24]
     ac4:	940033f0 	bl	da84 <mpa_init_static>
/home/rex/devel/optee/optee_os/lib/libutee/tee_api_arith.c:90
     ac8:	d503201f 	nop
     acc:	a8c27bfd 	ldp	x29, x30, [sp],#32
     ad0:	d65f03c0 	ret

0000000000000ad4 <TEE_BigIntInitFMM>:
TEE_BigIntInitFMM():
/home/rex/devel/optee/optee_os/lib/libutee/tee_api_arith.c:96
     ad4:	d10083ff 	sub	sp, sp, #0x20
     ad8:	f90007e0 	str	x0, [sp,#8]
     adc:	b90007e1 	str	w1, [sp,#4]
/home/rex/devel/optee/optee_os/lib/libutee/tee_api_arith.c:97
     ae0:	f94007e0 	ldr	x0, [sp,#8]
     ae4:	f9000fe0 	str	x0, [sp,#24]
/home/rex/devel/optee/optee_os/lib/libutee/tee_api_arith.c:99
     ae8:	b94007e1 	ldr	w1, [sp,#4]
     aec:	321f73e0 	mov	w0, #0x3ffffffe            	// #1073741822
     af0:	0b000020 	add	w0, w1, w0
     af4:	531e7400 	lsl	w0, w0, #2
     af8:	2a0003e0 	mov	w0, w0
     afc:	91000c00 	add	x0, x0, #0x3
     b00:	d342fc00 	lsr	x0, x0, #2
     b04:	2a0003e1 	mov	w1, w0
     b08:	f9400fe0 	ldr	x0, [sp,#24]
     b0c:	b9000001 	str	w1, [x0]
/home/rex/devel/optee/optee_os/lib/libutee/tee_api_arith.c:100
     b10:	f9400fe0 	ldr	x0, [sp,#24]
     b14:	b900041f 	str	wzr, [x0,#4]
/home/rex/devel/optee/optee_os/lib/libutee/tee_api_arith.c:101
     b18:	d503201f 	nop
     b1c:	910083ff 	add	sp, sp, #0x20
     b20:	d65f03c0 	ret

0000000000000b24 <TEE_BigIntInitFMMContext>:
TEE_BigIntInitFMMContext():
/home/rex/devel/optee/optee_os/lib/libutee/tee_api_arith.c:108
     b24:	a9bc7bfd 	stp	x29, x30, [sp,#-64]!
     b28:	910003fd 	mov	x29, sp
     b2c:	f90017a0 	str	x0, [x29,#40]
     b30:	b90027a1 	str	w1, [x29,#36]
     b34:	f9000fa2 	str	x2, [x29,#24]
/home/rex/devel/optee/optee_os/lib/libutee/tee_api_arith.c:109
     b38:	f94017a0 	ldr	x0, [x29,#40]
     b3c:	f9001fa0 	str	x0, [x29,#56]
/home/rex/devel/optee/optee_os/lib/libutee/tee_api_arith.c:110
     b40:	f9400fa0 	ldr	x0, [x29,#24]
     b44:	f9001ba0 	str	x0, [x29,#48]
/home/rex/devel/optee/optee_os/lib/libutee/tee_api_arith.c:112
     b48:	b94027a1 	ldr	w1, [x29,#36]
     b4c:	f9401fa0 	ldr	x0, [x29,#56]
     b50:	940033e5 	bl	dae4 <mpa_init_static_fmm_context>
/home/rex/devel/optee/optee_os/lib/libutee/tee_api_arith.c:113
     b54:	f9401fa0 	ldr	x0, [x29,#56]
     b58:	f9400001 	ldr	x1, [x0]
     b5c:	f9401fa0 	ldr	x0, [x29,#56]
     b60:	f9400402 	ldr	x2, [x0,#8]
     b64:	f9401fa0 	ldr	x0, [x29,#56]
     b68:	91004003 	add	x3, x0, #0x10
     b6c:	b0000080 	adrp	x0, 11000 <ta_props>
     b70:	9103c000 	add	x0, x0, #0xf0
     b74:	f9400000 	ldr	x0, [x0]
     b78:	aa0003e4 	mov	x4, x0
     b7c:	f9401ba0 	ldr	x0, [x29,#48]
     b80:	94001fc4 	bl	8a90 <mpa_compute_fmm_context>
/home/rex/devel/optee/optee_os/lib/libutee/tee_api_arith.c:116
     b84:	d503201f 	nop
     b88:	a8c47bfd 	ldp	x29, x30, [sp],#64
     b8c:	d65f03c0 	ret

0000000000000b90 <TEE_BigIntFMMSizeInU32>:
TEE_BigIntFMMSizeInU32():
/home/rex/devel/optee/optee_os/lib/libutee/tee_api_arith.c:126
     b90:	d10043ff 	sub	sp, sp, #0x10
     b94:	b9000fe0 	str	w0, [sp,#12]
/home/rex/devel/optee/optee_os/lib/libutee/tee_api_arith.c:127
     b98:	b9400fe0 	ldr	w0, [sp,#12]
     b9c:	11007c00 	add	w0, w0, #0x1f
     ba0:	53057c00 	lsr	w0, w0, #5
     ba4:	11000c00 	add	w0, w0, #0x3
/home/rex/devel/optee/optee_os/lib/libutee/tee_api_arith.c:128
     ba8:	910043ff 	add	sp, sp, #0x10
     bac:	d65f03c0 	ret

0000000000000bb0 <TEE_BigIntFMMContextSizeInU32>:
TEE_BigIntFMMContextSizeInU32():
/home/rex/devel/optee/optee_os/lib/libutee/tee_api_arith.c:134
     bb0:	d10043ff 	sub	sp, sp, #0x10
     bb4:	b9000fe0 	str	w0, [sp,#12]
/home/rex/devel/optee/optee_os/lib/libutee/tee_api_arith.c:135
     bb8:	b9400fe0 	ldr	w0, [sp,#12]
     bbc:	11007c00 	add	w0, w0, #0x1f
     bc0:	53057c00 	lsr	w0, w0, #5
     bc4:	11001c00 	add	w0, w0, #0x7
     bc8:	531f7800 	lsl	w0, w0, #1
/home/rex/devel/optee/optee_os/lib/libutee/tee_api_arith.c:136
     bcc:	910043ff 	add	sp, sp, #0x10
     bd0:	d65f03c0 	ret

0000000000000bd4 <TEE_BigIntConvertFromOctetString>:
TEE_BigIntConvertFromOctetString():
/home/rex/devel/optee/optee_os/lib/libutee/tee_api_arith.c:149
     bd4:	a9bb7bfd 	stp	x29, x30, [sp,#-80]!
     bd8:	910003fd 	mov	x29, sp
     bdc:	f90017a0 	str	x0, [x29,#40]
     be0:	f90013a1 	str	x1, [x29,#32]
     be4:	b9001fa2 	str	w2, [x29,#28]
     be8:	b9001ba3 	str	w3, [x29,#24]
/home/rex/devel/optee/optee_os/lib/libutee/tee_api_arith.c:151
     bec:	f94017a0 	ldr	x0, [x29,#40]
     bf0:	f90023a0 	str	x0, [x29,#64]
/home/rex/devel/optee/optee_os/lib/libutee/tee_api_arith.c:152
     bf4:	b9401ba0 	ldr	w0, [x29,#24]
     bf8:	531f7c00 	lsr	w0, w0, #31
     bfc:	3900ffa0 	strb	w0, [x29,#63]
/home/rex/devel/optee/optee_os/lib/libutee/tee_api_arith.c:154
     c00:	b9401fa0 	ldr	w0, [x29,#28]
     c04:	3940ffa3 	ldrb	w3, [x29,#63]
     c08:	aa0003e2 	mov	x2, x0
     c0c:	f94013a1 	ldr	x1, [x29,#32]
     c10:	f94023a0 	ldr	x0, [x29,#64]
     c14:	940036bf 	bl	e710 <mpa_set_oct_str>
     c18:	7100001f 	cmp	w0, #0x0
     c1c:	54000080 	b.eq	c2c <TEE_BigIntConvertFromOctetString+0x58>
/home/rex/devel/optee/optee_os/lib/libutee/tee_api_arith.c:155
     c20:	1299fe00 	mov	w0, #0xffff300f            	// #-53233
     c24:	b9004fa0 	str	w0, [x29,#76]
     c28:	14000002 	b	c30 <TEE_BigIntConvertFromOctetString+0x5c>
/home/rex/devel/optee/optee_os/lib/libutee/tee_api_arith.c:157
     c2c:	b9004fbf 	str	wzr, [x29,#76]
/home/rex/devel/optee/optee_os/lib/libutee/tee_api_arith.c:159
     c30:	b9404fa0 	ldr	w0, [x29,#76]
     c34:	7100001f 	cmp	w0, #0x0
     c38:	54000220 	b.eq	c7c <TEE_BigIntConvertFromOctetString+0xa8>
/home/rex/devel/optee/optee_os/lib/libutee/tee_api_arith.c:159 (discriminator 1)
     c3c:	b9404fa1 	ldr	w1, [x29,#76]
     c40:	1299fe00 	mov	w0, #0xffff300f            	// #-53233
     c44:	6b00003f 	cmp	w1, w0
     c48:	540001a0 	b.eq	c7c <TEE_BigIntConvertFromOctetString+0xa8>
/home/rex/devel/optee/optee_os/lib/libutee/tee_api_arith.c:161
     c4c:	d0000060 	adrp	x0, e000 <__mpa_mpanum_to_hexstr+0x180>
     c50:	913d0001 	add	x1, x0, #0xf40
     c54:	d0000060 	adrp	x0, e000 <__mpa_mpanum_to_hexstr+0x180>
     c58:	913f0000 	add	x0, x0, #0xfc0
     c5c:	b9404fa5 	ldr	w5, [x29,#76]
     c60:	aa0103e4 	mov	x4, x1
     c64:	52800023 	mov	w3, #0x1                   	// #1
     c68:	52800022 	mov	w2, #0x1                   	// #1
     c6c:	52801421 	mov	w1, #0xa1                  	// #161
     c70:	94001c2c 	bl	7d20 <trace_printf>
     c74:	b9404fa0 	ldr	w0, [x29,#76]
     c78:	94000585 	bl	228c <__TEE_Panic>
/home/rex/devel/optee/optee_os/lib/libutee/tee_api_arith.c:163
     c7c:	b9404fa0 	ldr	w0, [x29,#76]
/home/rex/devel/optee/optee_os/lib/libutee/tee_api_arith.c:164
     c80:	a8c57bfd 	ldp	x29, x30, [sp],#80
     c84:	d65f03c0 	ret

0000000000000c88 <TEE_BigIntConvertToOctetString>:
TEE_BigIntConvertToOctetString():
/home/rex/devel/optee/optee_os/lib/libutee/tee_api_arith.c:172
     c88:	a9bb7bfd 	stp	x29, x30, [sp,#-80]!
     c8c:	910003fd 	mov	x29, sp
     c90:	f90017a0 	str	x0, [x29,#40]
     c94:	f90013a1 	str	x1, [x29,#32]
     c98:	f9000fa2 	str	x2, [x29,#24]
/home/rex/devel/optee/optee_os/lib/libutee/tee_api_arith.c:173
     c9c:	f9400fa0 	ldr	x0, [x29,#24]
     ca0:	f90023a0 	str	x0, [x29,#64]
/home/rex/devel/optee/optee_os/lib/libutee/tee_api_arith.c:174
     ca4:	f94013a0 	ldr	x0, [x29,#32]
     ca8:	b9400000 	ldr	w0, [x0]
     cac:	2a0003e0 	mov	w0, w0
     cb0:	f9001fa0 	str	x0, [x29,#56]
/home/rex/devel/optee/optee_os/lib/libutee/tee_api_arith.c:177
     cb4:	9100e3a0 	add	x0, x29, #0x38
     cb8:	f94023a2 	ldr	x2, [x29,#64]
     cbc:	aa0003e1 	mov	x1, x0
     cc0:	f94017a0 	ldr	x0, [x29,#40]
     cc4:	94003709 	bl	e8e8 <mpa_get_oct_str>
     cc8:	7100001f 	cmp	w0, #0x0
     ccc:	54000080 	b.eq	cdc <TEE_BigIntConvertToOctetString+0x54>
/home/rex/devel/optee/optee_os/lib/libutee/tee_api_arith.c:178
     cd0:	129ffde0 	mov	w0, #0xffff0010            	// #-65520
     cd4:	b9004fa0 	str	w0, [x29,#76]
     cd8:	14000002 	b	ce0 <TEE_BigIntConvertToOctetString+0x58>
/home/rex/devel/optee/optee_os/lib/libutee/tee_api_arith.c:180
     cdc:	b9004fbf 	str	wzr, [x29,#76]
/home/rex/devel/optee/optee_os/lib/libutee/tee_api_arith.c:182
     ce0:	f9401fa0 	ldr	x0, [x29,#56]
     ce4:	2a0003e1 	mov	w1, w0
     ce8:	f94013a0 	ldr	x0, [x29,#32]
     cec:	b9000001 	str	w1, [x0]
/home/rex/devel/optee/optee_os/lib/libutee/tee_api_arith.c:184
     cf0:	b9404fa0 	ldr	w0, [x29,#76]
     cf4:	7100001f 	cmp	w0, #0x0
     cf8:	54000220 	b.eq	d3c <TEE_BigIntConvertToOctetString+0xb4>
/home/rex/devel/optee/optee_os/lib/libutee/tee_api_arith.c:184 (discriminator 1)
     cfc:	b9404fa1 	ldr	w1, [x29,#76]
     d00:	129ffde0 	mov	w0, #0xffff0010            	// #-65520
     d04:	6b00003f 	cmp	w1, w0
     d08:	540001a0 	b.eq	d3c <TEE_BigIntConvertToOctetString+0xb4>
/home/rex/devel/optee/optee_os/lib/libutee/tee_api_arith.c:186
     d0c:	d0000060 	adrp	x0, e000 <__mpa_mpanum_to_hexstr+0x180>
     d10:	913d0001 	add	x1, x0, #0xf40
     d14:	d0000060 	adrp	x0, e000 <__mpa_mpanum_to_hexstr+0x180>
     d18:	913fa000 	add	x0, x0, #0xfe8
     d1c:	b9404fa5 	ldr	w5, [x29,#76]
     d20:	aa0103e4 	mov	x4, x1
     d24:	52800023 	mov	w3, #0x1                   	// #1
     d28:	52800022 	mov	w2, #0x1                   	// #1
     d2c:	52801741 	mov	w1, #0xba                  	// #186
     d30:	94001bfc 	bl	7d20 <trace_printf>
     d34:	b9404fa0 	ldr	w0, [x29,#76]
     d38:	94000555 	bl	228c <__TEE_Panic>
/home/rex/devel/optee/optee_os/lib/libutee/tee_api_arith.c:188
     d3c:	b9404fa0 	ldr	w0, [x29,#76]
/home/rex/devel/optee/optee_os/lib/libutee/tee_api_arith.c:189
     d40:	a8c57bfd 	ldp	x29, x30, [sp],#80
     d44:	d65f03c0 	ret

0000000000000d48 <TEE_BigIntConvertFromS32>:
TEE_BigIntConvertFromS32():
/home/rex/devel/optee/optee_os/lib/libutee/tee_api_arith.c:195
     d48:	a9bd7bfd 	stp	x29, x30, [sp,#-48]!
     d4c:	910003fd 	mov	x29, sp
     d50:	f9000fa0 	str	x0, [x29,#24]
     d54:	b90017a1 	str	w1, [x29,#20]
/home/rex/devel/optee/optee_os/lib/libutee/tee_api_arith.c:196
     d58:	f9400fa0 	ldr	x0, [x29,#24]
     d5c:	f90017a0 	str	x0, [x29,#40]
/home/rex/devel/optee/optee_os/lib/libutee/tee_api_arith.c:199
     d60:	b94017a1 	ldr	w1, [x29,#20]
     d64:	f94017a0 	ldr	x0, [x29,#40]
     d68:	94002120 	bl	91e8 <mpa_set_S32>
/home/rex/devel/optee/optee_os/lib/libutee/tee_api_arith.c:203
     d6c:	d503201f 	nop
     d70:	a8c37bfd 	ldp	x29, x30, [sp],#48
     d74:	d65f03c0 	ret

0000000000000d78 <TEE_BigIntConvertToS32>:
TEE_BigIntConvertToS32():
/home/rex/devel/optee/optee_os/lib/libutee/tee_api_arith.c:209
     d78:	a9bd7bfd 	stp	x29, x30, [sp,#-48]!
     d7c:	910003fd 	mov	x29, sp
     d80:	f9000fa0 	str	x0, [x29,#24]
     d84:	f9000ba1 	str	x1, [x29,#16]
/home/rex/devel/optee/optee_os/lib/libutee/tee_api_arith.c:211
     d88:	f9400ba0 	ldr	x0, [x29,#16]
     d8c:	f90013a0 	str	x0, [x29,#32]
/home/rex/devel/optee/optee_os/lib/libutee/tee_api_arith.c:213
     d90:	f94013a1 	ldr	x1, [x29,#32]
     d94:	f9400fa0 	ldr	x0, [x29,#24]
     d98:	9400212e 	bl	9250 <mpa_get_S32>
     d9c:	7100001f 	cmp	w0, #0x0
     da0:	54000061 	b.ne	dac <TEE_BigIntConvertToS32+0x34>
/home/rex/devel/optee/optee_os/lib/libutee/tee_api_arith.c:214
     da4:	b9002fbf 	str	wzr, [x29,#44]
     da8:	14000003 	b	db4 <TEE_BigIntConvertToS32+0x3c>
/home/rex/devel/optee/optee_os/lib/libutee/tee_api_arith.c:216
     dac:	1299fe00 	mov	w0, #0xffff300f            	// #-53233
     db0:	b9002fa0 	str	w0, [x29,#44]
/home/rex/devel/optee/optee_os/lib/libutee/tee_api_arith.c:218
     db4:	b9402fa0 	ldr	w0, [x29,#44]
     db8:	7100001f 	cmp	w0, #0x0
     dbc:	54000220 	b.eq	e00 <TEE_BigIntConvertToS32+0x88>
/home/rex/devel/optee/optee_os/lib/libutee/tee_api_arith.c:218 (discriminator 1)
     dc0:	b9402fa1 	ldr	w1, [x29,#44]
     dc4:	1299fe00 	mov	w0, #0xffff300f            	// #-53233
     dc8:	6b00003f 	cmp	w1, w0
     dcc:	540001a0 	b.eq	e00 <TEE_BigIntConvertToS32+0x88>
/home/rex/devel/optee/optee_os/lib/libutee/tee_api_arith.c:220
     dd0:	d0000060 	adrp	x0, e000 <__mpa_mpanum_to_hexstr+0x180>
     dd4:	913d0001 	add	x1, x0, #0xf40
     dd8:	f0000060 	adrp	x0, f000 <__func__.4113+0x18>
     ddc:	91002000 	add	x0, x0, #0x8
     de0:	b9402fa5 	ldr	w5, [x29,#44]
     de4:	aa0103e4 	mov	x4, x1
     de8:	52800023 	mov	w3, #0x1                   	// #1
     dec:	52800022 	mov	w2, #0x1                   	// #1
     df0:	52801b81 	mov	w1, #0xdc                  	// #220
     df4:	94001bcb 	bl	7d20 <trace_printf>
     df8:	b9402fa0 	ldr	w0, [x29,#44]
     dfc:	94000524 	bl	228c <__TEE_Panic>
/home/rex/devel/optee/optee_os/lib/libutee/tee_api_arith.c:222
     e00:	b9402fa0 	ldr	w0, [x29,#44]
/home/rex/devel/optee/optee_os/lib/libutee/tee_api_arith.c:223
     e04:	a8c37bfd 	ldp	x29, x30, [sp],#48
     e08:	d65f03c0 	ret

0000000000000e0c <TEE_BigIntCmp>:
TEE_BigIntCmp():
/home/rex/devel/optee/optee_os/lib/libutee/tee_api_arith.c:233
     e0c:	a9bd7bfd 	stp	x29, x30, [sp,#-48]!
     e10:	910003fd 	mov	x29, sp
     e14:	f9000fa0 	str	x0, [x29,#24]
     e18:	f9000ba1 	str	x1, [x29,#16]
/home/rex/devel/optee/optee_os/lib/libutee/tee_api_arith.c:234
     e1c:	f9400fa0 	ldr	x0, [x29,#24]
     e20:	f90017a0 	str	x0, [x29,#40]
/home/rex/devel/optee/optee_os/lib/libutee/tee_api_arith.c:235
     e24:	f9400ba0 	ldr	x0, [x29,#16]
     e28:	f90013a0 	str	x0, [x29,#32]
/home/rex/devel/optee/optee_os/lib/libutee/tee_api_arith.c:237
     e2c:	f94013a1 	ldr	x1, [x29,#32]
     e30:	f94017a0 	ldr	x0, [x29,#40]
     e34:	94003207 	bl	d650 <mpa_cmp>
/home/rex/devel/optee/optee_os/lib/libutee/tee_api_arith.c:238
     e38:	a8c37bfd 	ldp	x29, x30, [sp],#48
     e3c:	d65f03c0 	ret

0000000000000e40 <TEE_BigIntCmpS32>:
TEE_BigIntCmpS32():
/home/rex/devel/optee/optee_os/lib/libutee/tee_api_arith.c:244
     e40:	a9bd7bfd 	stp	x29, x30, [sp,#-48]!
     e44:	910003fd 	mov	x29, sp
     e48:	f9000fa0 	str	x0, [x29,#24]
     e4c:	b90017a1 	str	w1, [x29,#20]
/home/rex/devel/optee/optee_os/lib/libutee/tee_api_arith.c:245
     e50:	f9400fa0 	ldr	x0, [x29,#24]
     e54:	f90017a0 	str	x0, [x29,#40]
/home/rex/devel/optee/optee_os/lib/libutee/tee_api_arith.c:247
     e58:	b94017a1 	ldr	w1, [x29,#20]
     e5c:	f94017a0 	ldr	x0, [x29,#40]
     e60:	94003233 	bl	d72c <mpa_cmp_short>
/home/rex/devel/optee/optee_os/lib/libutee/tee_api_arith.c:248
     e64:	a8c37bfd 	ldp	x29, x30, [sp],#48
     e68:	d65f03c0 	ret

0000000000000e6c <TEE_BigIntShiftRight>:
TEE_BigIntShiftRight():
/home/rex/devel/optee/optee_os/lib/libutee/tee_api_arith.c:255
     e6c:	a9bc7bfd 	stp	x29, x30, [sp,#-64]!
     e70:	910003fd 	mov	x29, sp
     e74:	f90017a0 	str	x0, [x29,#40]
     e78:	f90013a1 	str	x1, [x29,#32]
     e7c:	f9000fa2 	str	x2, [x29,#24]
/home/rex/devel/optee/optee_os/lib/libutee/tee_api_arith.c:256
     e80:	f94017a0 	ldr	x0, [x29,#40]
     e84:	f9001fa0 	str	x0, [x29,#56]
/home/rex/devel/optee/optee_os/lib/libutee/tee_api_arith.c:257
     e88:	f94013a0 	ldr	x0, [x29,#32]
     e8c:	f9001ba0 	str	x0, [x29,#48]
/home/rex/devel/optee/optee_os/lib/libutee/tee_api_arith.c:259
     e90:	f9400fa0 	ldr	x0, [x29,#24]
     e94:	2a0003e2 	mov	w2, w0
     e98:	f9401ba1 	ldr	x1, [x29,#48]
     e9c:	f9401fa0 	ldr	x0, [x29,#56]
     ea0:	94002cb4 	bl	c170 <mpa_shift_right>
/home/rex/devel/optee/optee_os/lib/libutee/tee_api_arith.c:260
     ea4:	d503201f 	nop
     ea8:	a8c47bfd 	ldp	x29, x30, [sp],#64
     eac:	d65f03c0 	ret

0000000000000eb0 <TEE_BigIntGetBit>:
TEE_BigIntGetBit():
/home/rex/devel/optee/optee_os/lib/libutee/tee_api_arith.c:266
     eb0:	a9bd7bfd 	stp	x29, x30, [sp,#-48]!
     eb4:	910003fd 	mov	x29, sp
     eb8:	f9000fa0 	str	x0, [x29,#24]
     ebc:	b90017a1 	str	w1, [x29,#20]
/home/rex/devel/optee/optee_os/lib/libutee/tee_api_arith.c:267
     ec0:	f9400fa0 	ldr	x0, [x29,#24]
     ec4:	f90017a0 	str	x0, [x29,#40]
/home/rex/devel/optee/optee_os/lib/libutee/tee_api_arith.c:269
     ec8:	b94017a1 	ldr	w1, [x29,#20]
     ecc:	f94017a0 	ldr	x0, [x29,#40]
     ed0:	94001d90 	bl	8510 <mpa_get_bit>
     ed4:	7100001f 	cmp	w0, #0x0
     ed8:	1a9f07e0 	cset	w0, ne
     edc:	12001c00 	and	w0, w0, #0xff
/home/rex/devel/optee/optee_os/lib/libutee/tee_api_arith.c:270
     ee0:	a8c37bfd 	ldp	x29, x30, [sp],#48
     ee4:	d65f03c0 	ret

0000000000000ee8 <TEE_BigIntGetBitCount>:
TEE_BigIntGetBitCount():
/home/rex/devel/optee/optee_os/lib/libutee/tee_api_arith.c:276
     ee8:	a9bd7bfd 	stp	x29, x30, [sp,#-48]!
     eec:	910003fd 	mov	x29, sp
     ef0:	f9000fa0 	str	x0, [x29,#24]
/home/rex/devel/optee/optee_os/lib/libutee/tee_api_arith.c:277
     ef4:	f9400fa0 	ldr	x0, [x29,#24]
     ef8:	f90017a0 	str	x0, [x29,#40]
/home/rex/devel/optee/optee_os/lib/libutee/tee_api_arith.c:279
     efc:	f94017a0 	ldr	x0, [x29,#40]
     f00:	94001d56 	bl	8458 <mpa_highest_bit_index>
     f04:	11000400 	add	w0, w0, #0x1
/home/rex/devel/optee/optee_os/lib/libutee/tee_api_arith.c:280
     f08:	a8c37bfd 	ldp	x29, x30, [sp],#48
     f0c:	d65f03c0 	ret

0000000000000f10 <TEE_BigIntAdd>:
TEE_BigIntAdd():
/home/rex/devel/optee/optee_os/lib/libutee/tee_api_arith.c:291
     f10:	a9bb7bfd 	stp	x29, x30, [sp,#-80]!
     f14:	910003fd 	mov	x29, sp
     f18:	f90017a0 	str	x0, [x29,#40]
     f1c:	f90013a1 	str	x1, [x29,#32]
     f20:	f9000fa2 	str	x2, [x29,#24]
/home/rex/devel/optee/optee_os/lib/libutee/tee_api_arith.c:292
     f24:	f94017a0 	ldr	x0, [x29,#40]
     f28:	f90027a0 	str	x0, [x29,#72]
/home/rex/devel/optee/optee_os/lib/libutee/tee_api_arith.c:293
     f2c:	f94013a0 	ldr	x0, [x29,#32]
     f30:	f90023a0 	str	x0, [x29,#64]
/home/rex/devel/optee/optee_os/lib/libutee/tee_api_arith.c:294
     f34:	f9400fa0 	ldr	x0, [x29,#24]
     f38:	f9001fa0 	str	x0, [x29,#56]
/home/rex/devel/optee/optee_os/lib/libutee/tee_api_arith.c:296
     f3c:	b0000080 	adrp	x0, 11000 <ta_props>
     f40:	9103c000 	add	x0, x0, #0xf0
     f44:	f9400000 	ldr	x0, [x0]
     f48:	aa0003e3 	mov	x3, x0
     f4c:	f9401fa2 	ldr	x2, [x29,#56]
     f50:	f94023a1 	ldr	x1, [x29,#64]
     f54:	f94027a0 	ldr	x0, [x29,#72]
     f58:	94002ecd 	bl	ca8c <mpa_add>
/home/rex/devel/optee/optee_os/lib/libutee/tee_api_arith.c:297
     f5c:	d503201f 	nop
     f60:	a8c57bfd 	ldp	x29, x30, [sp],#80
     f64:	d65f03c0 	ret

0000000000000f68 <TEE_BigIntSub>:
TEE_BigIntSub():
/home/rex/devel/optee/optee_os/lib/libutee/tee_api_arith.c:304
     f68:	a9bb7bfd 	stp	x29, x30, [sp,#-80]!
     f6c:	910003fd 	mov	x29, sp
     f70:	f90017a0 	str	x0, [x29,#40]
     f74:	f90013a1 	str	x1, [x29,#32]
     f78:	f9000fa2 	str	x2, [x29,#24]
/home/rex/devel/optee/optee_os/lib/libutee/tee_api_arith.c:305
     f7c:	f94017a0 	ldr	x0, [x29,#40]
     f80:	f90027a0 	str	x0, [x29,#72]
/home/rex/devel/optee/optee_os/lib/libutee/tee_api_arith.c:306
     f84:	f94013a0 	ldr	x0, [x29,#32]
     f88:	f90023a0 	str	x0, [x29,#64]
/home/rex/devel/optee/optee_os/lib/libutee/tee_api_arith.c:307
     f8c:	f9400fa0 	ldr	x0, [x29,#24]
     f90:	f9001fa0 	str	x0, [x29,#56]
/home/rex/devel/optee/optee_os/lib/libutee/tee_api_arith.c:309
     f94:	b0000080 	adrp	x0, 11000 <ta_props>
     f98:	9103c000 	add	x0, x0, #0xf0
     f9c:	f9400000 	ldr	x0, [x0]
     fa0:	aa0003e3 	mov	x3, x0
     fa4:	f9401fa2 	ldr	x2, [x29,#56]
     fa8:	f94023a1 	ldr	x1, [x29,#64]
     fac:	f94027a0 	ldr	x0, [x29,#72]
     fb0:	94002f66 	bl	cd48 <mpa_sub>
/home/rex/devel/optee/optee_os/lib/libutee/tee_api_arith.c:310
     fb4:	d503201f 	nop
     fb8:	a8c57bfd 	ldp	x29, x30, [sp],#80
     fbc:	d65f03c0 	ret

0000000000000fc0 <TEE_BigIntNeg>:
TEE_BigIntNeg():
/home/rex/devel/optee/optee_os/lib/libutee/tee_api_arith.c:316
     fc0:	a9bd7bfd 	stp	x29, x30, [sp,#-48]!
     fc4:	910003fd 	mov	x29, sp
     fc8:	f9000fa0 	str	x0, [x29,#24]
     fcc:	f9000ba1 	str	x1, [x29,#16]
/home/rex/devel/optee/optee_os/lib/libutee/tee_api_arith.c:317
     fd0:	f9400fa0 	ldr	x0, [x29,#24]
     fd4:	f90017a0 	str	x0, [x29,#40]
/home/rex/devel/optee/optee_os/lib/libutee/tee_api_arith.c:318
     fd8:	f9400ba0 	ldr	x0, [x29,#16]
     fdc:	f90013a0 	str	x0, [x29,#32]
/home/rex/devel/optee/optee_os/lib/libutee/tee_api_arith.c:320
     fe0:	f94013a1 	ldr	x1, [x29,#32]
     fe4:	f94017a0 	ldr	x0, [x29,#40]
     fe8:	94003016 	bl	d040 <mpa_neg>
/home/rex/devel/optee/optee_os/lib/libutee/tee_api_arith.c:321
     fec:	d503201f 	nop
     ff0:	a8c37bfd 	ldp	x29, x30, [sp],#48
     ff4:	d65f03c0 	ret

0000000000000ff8 <TEE_BigIntMul>:
TEE_BigIntMul():
/home/rex/devel/optee/optee_os/lib/libutee/tee_api_arith.c:328
     ff8:	a9bb7bfd 	stp	x29, x30, [sp,#-80]!
     ffc:	910003fd 	mov	x29, sp
    1000:	f90017a0 	str	x0, [x29,#40]
    1004:	f90013a1 	str	x1, [x29,#32]
    1008:	f9000fa2 	str	x2, [x29,#24]
/home/rex/devel/optee/optee_os/lib/libutee/tee_api_arith.c:329
    100c:	f94017a0 	ldr	x0, [x29,#40]
    1010:	f90027a0 	str	x0, [x29,#72]
/home/rex/devel/optee/optee_os/lib/libutee/tee_api_arith.c:330
    1014:	f94013a0 	ldr	x0, [x29,#32]
    1018:	f90023a0 	str	x0, [x29,#64]
/home/rex/devel/optee/optee_os/lib/libutee/tee_api_arith.c:331
    101c:	f9400fa0 	ldr	x0, [x29,#24]
    1020:	f9001fa0 	str	x0, [x29,#56]
/home/rex/devel/optee/optee_os/lib/libutee/tee_api_arith.c:333
    1024:	90000080 	adrp	x0, 11000 <ta_props>
    1028:	9103c000 	add	x0, x0, #0xf0
    102c:	f9400000 	ldr	x0, [x0]
    1030:	aa0003e3 	mov	x3, x0
    1034:	f9401fa2 	ldr	x2, [x29,#56]
    1038:	f94023a1 	ldr	x1, [x29,#64]
    103c:	f94027a0 	ldr	x0, [x29,#72]
    1040:	94002992 	bl	b688 <mpa_mul>
/home/rex/devel/optee/optee_os/lib/libutee/tee_api_arith.c:334
    1044:	d503201f 	nop
    1048:	a8c57bfd 	ldp	x29, x30, [sp],#80
    104c:	d65f03c0 	ret

0000000000001050 <TEE_BigIntSquare>:
TEE_BigIntSquare():
/home/rex/devel/optee/optee_os/lib/libutee/tee_api_arith.c:340
    1050:	a9bd7bfd 	stp	x29, x30, [sp,#-48]!
    1054:	910003fd 	mov	x29, sp
    1058:	f9000fa0 	str	x0, [x29,#24]
    105c:	f9000ba1 	str	x1, [x29,#16]
/home/rex/devel/optee/optee_os/lib/libutee/tee_api_arith.c:341
    1060:	f9400fa0 	ldr	x0, [x29,#24]
    1064:	f90017a0 	str	x0, [x29,#40]
/home/rex/devel/optee/optee_os/lib/libutee/tee_api_arith.c:342
    1068:	f9400ba0 	ldr	x0, [x29,#16]
    106c:	f90013a0 	str	x0, [x29,#32]
/home/rex/devel/optee/optee_os/lib/libutee/tee_api_arith.c:344
    1070:	90000080 	adrp	x0, 11000 <ta_props>
    1074:	9103c000 	add	x0, x0, #0xf0
    1078:	f9400000 	ldr	x0, [x0]
    107c:	aa0003e3 	mov	x3, x0
    1080:	f94013a2 	ldr	x2, [x29,#32]
    1084:	f94013a1 	ldr	x1, [x29,#32]
    1088:	f94017a0 	ldr	x0, [x29,#40]
    108c:	9400297f 	bl	b688 <mpa_mul>
/home/rex/devel/optee/optee_os/lib/libutee/tee_api_arith.c:345
    1090:	d503201f 	nop
    1094:	a8c37bfd 	ldp	x29, x30, [sp],#48
    1098:	d65f03c0 	ret

000000000000109c <TEE_BigIntDiv>:
TEE_BigIntDiv():
/home/rex/devel/optee/optee_os/lib/libutee/tee_api_arith.c:352
    109c:	a9bb7bfd 	stp	x29, x30, [sp,#-80]!
    10a0:	910003fd 	mov	x29, sp
    10a4:	f90017a0 	str	x0, [x29,#40]
    10a8:	f90013a1 	str	x1, [x29,#32]
    10ac:	f9000fa2 	str	x2, [x29,#24]
    10b0:	f9000ba3 	str	x3, [x29,#16]
/home/rex/devel/optee/optee_os/lib/libutee/tee_api_arith.c:353
    10b4:	f94017a0 	ldr	x0, [x29,#40]
    10b8:	f90027a0 	str	x0, [x29,#72]
/home/rex/devel/optee/optee_os/lib/libutee/tee_api_arith.c:354
    10bc:	f94013a0 	ldr	x0, [x29,#32]
    10c0:	f90023a0 	str	x0, [x29,#64]
/home/rex/devel/optee/optee_os/lib/libutee/tee_api_arith.c:355
    10c4:	f9400fa0 	ldr	x0, [x29,#24]
    10c8:	f9001fa0 	str	x0, [x29,#56]
/home/rex/devel/optee/optee_os/lib/libutee/tee_api_arith.c:356
    10cc:	f9400ba0 	ldr	x0, [x29,#16]
    10d0:	f9001ba0 	str	x0, [x29,#48]
/home/rex/devel/optee/optee_os/lib/libutee/tee_api_arith.c:358
    10d4:	52800001 	mov	w1, #0x0                   	// #0
    10d8:	f9400ba0 	ldr	x0, [x29,#16]
    10dc:	97ffff59 	bl	e40 <TEE_BigIntCmpS32>
    10e0:	7100001f 	cmp	w0, #0x0
    10e4:	54000081 	b.ne	10f4 <TEE_BigIntDiv+0x58>
/home/rex/devel/optee/optee_os/lib/libutee/tee_api_arith.c:359
    10e8:	b0000060 	adrp	x0, e000 <__mpa_mpanum_to_hexstr+0x180>
    10ec:	913d4000 	add	x0, x0, #0xf50
    10f0:	97fffe4b 	bl	a1c <TEE_BigInt_Panic>
/home/rex/devel/optee/optee_os/lib/libutee/tee_api_arith.c:361
    10f4:	90000080 	adrp	x0, 11000 <ta_props>
    10f8:	9103c000 	add	x0, x0, #0xf0
    10fc:	f9400000 	ldr	x0, [x0]
    1100:	aa0003e4 	mov	x4, x0
    1104:	f9401ba3 	ldr	x3, [x29,#48]
    1108:	f9401fa2 	ldr	x2, [x29,#56]
    110c:	f94023a1 	ldr	x1, [x29,#64]
    1110:	f94027a0 	ldr	x0, [x29,#72]
    1114:	94002458 	bl	a274 <mpa_div>
/home/rex/devel/optee/optee_os/lib/libutee/tee_api_arith.c:362
    1118:	d503201f 	nop
    111c:	a8c57bfd 	ldp	x29, x30, [sp],#80
    1120:	d65f03c0 	ret

0000000000001124 <TEE_BigIntMod>:
TEE_BigIntMod():
/home/rex/devel/optee/optee_os/lib/libutee/tee_api_arith.c:373
    1124:	a9bb7bfd 	stp	x29, x30, [sp,#-80]!
    1128:	910003fd 	mov	x29, sp
    112c:	f90017a0 	str	x0, [x29,#40]
    1130:	f90013a1 	str	x1, [x29,#32]
    1134:	f9000fa2 	str	x2, [x29,#24]
/home/rex/devel/optee/optee_os/lib/libutee/tee_api_arith.c:374
    1138:	f94017a0 	ldr	x0, [x29,#40]
    113c:	f90027a0 	str	x0, [x29,#72]
/home/rex/devel/optee/optee_os/lib/libutee/tee_api_arith.c:375
    1140:	f94013a0 	ldr	x0, [x29,#32]
    1144:	f90023a0 	str	x0, [x29,#64]
/home/rex/devel/optee/optee_os/lib/libutee/tee_api_arith.c:376
    1148:	f9400fa0 	ldr	x0, [x29,#24]
    114c:	f9001fa0 	str	x0, [x29,#56]
/home/rex/devel/optee/optee_os/lib/libutee/tee_api_arith.c:378
    1150:	52800041 	mov	w1, #0x2                   	// #2
    1154:	f9400fa0 	ldr	x0, [x29,#24]
    1158:	97ffff3a 	bl	e40 <TEE_BigIntCmpS32>
    115c:	7100001f 	cmp	w0, #0x0
    1160:	5400008a 	b.ge	1170 <TEE_BigIntMod+0x4c>
/home/rex/devel/optee/optee_os/lib/libutee/tee_api_arith.c:379
    1164:	b0000060 	adrp	x0, e000 <__mpa_mpanum_to_hexstr+0x180>
    1168:	913d8000 	add	x0, x0, #0xf60
    116c:	97fffe2c 	bl	a1c <TEE_BigInt_Panic>
/home/rex/devel/optee/optee_os/lib/libutee/tee_api_arith.c:381
    1170:	90000080 	adrp	x0, 11000 <ta_props>
    1174:	9103c000 	add	x0, x0, #0xf0
    1178:	f9400000 	ldr	x0, [x0]
    117c:	aa0003e3 	mov	x3, x0
    1180:	f9401fa2 	ldr	x2, [x29,#56]
    1184:	f94023a1 	ldr	x1, [x29,#64]
    1188:	f94027a0 	ldr	x0, [x29,#72]
    118c:	94003646 	bl	eaa4 <mpa_mod>
/home/rex/devel/optee/optee_os/lib/libutee/tee_api_arith.c:383
    1190:	52800001 	mov	w1, #0x0                   	// #0
    1194:	f94027a0 	ldr	x0, [x29,#72]
    1198:	94003165 	bl	d72c <mpa_cmp_short>
    119c:	7100001f 	cmp	w0, #0x0
    11a0:	5400012a 	b.ge	11c4 <TEE_BigIntMod+0xa0>
/home/rex/devel/optee/optee_os/lib/libutee/tee_api_arith.c:384
    11a4:	90000080 	adrp	x0, 11000 <ta_props>
    11a8:	9103c000 	add	x0, x0, #0xf0
    11ac:	f9400000 	ldr	x0, [x0]
    11b0:	aa0003e3 	mov	x3, x0
    11b4:	f9401fa2 	ldr	x2, [x29,#56]
    11b8:	f94027a1 	ldr	x1, [x29,#72]
    11bc:	f94027a0 	ldr	x0, [x29,#72]
    11c0:	94002e33 	bl	ca8c <mpa_add>
/home/rex/devel/optee/optee_os/lib/libutee/tee_api_arith.c:385
    11c4:	d503201f 	nop
    11c8:	a8c57bfd 	ldp	x29, x30, [sp],#80
    11cc:	d65f03c0 	ret

00000000000011d0 <TEE_BigIntAddMod>:
TEE_BigIntAddMod():
/home/rex/devel/optee/optee_os/lib/libutee/tee_api_arith.c:392
    11d0:	a9bb7bfd 	stp	x29, x30, [sp,#-80]!
    11d4:	910003fd 	mov	x29, sp
    11d8:	f90017a0 	str	x0, [x29,#40]
    11dc:	f90013a1 	str	x1, [x29,#32]
    11e0:	f9000fa2 	str	x2, [x29,#24]
    11e4:	f9000ba3 	str	x3, [x29,#16]
/home/rex/devel/optee/optee_os/lib/libutee/tee_api_arith.c:393
    11e8:	f94017a0 	ldr	x0, [x29,#40]
    11ec:	f90027a0 	str	x0, [x29,#72]
/home/rex/devel/optee/optee_os/lib/libutee/tee_api_arith.c:394
    11f0:	f94013a0 	ldr	x0, [x29,#32]
    11f4:	f90023a0 	str	x0, [x29,#64]
/home/rex/devel/optee/optee_os/lib/libutee/tee_api_arith.c:395
    11f8:	f9400fa0 	ldr	x0, [x29,#24]
    11fc:	f9001fa0 	str	x0, [x29,#56]
/home/rex/devel/optee/optee_os/lib/libutee/tee_api_arith.c:396
    1200:	f9400ba0 	ldr	x0, [x29,#16]
    1204:	f9001ba0 	str	x0, [x29,#48]
/home/rex/devel/optee/optee_os/lib/libutee/tee_api_arith.c:398
    1208:	52800041 	mov	w1, #0x2                   	// #2
    120c:	f9400ba0 	ldr	x0, [x29,#16]
    1210:	97ffff0c 	bl	e40 <TEE_BigIntCmpS32>
    1214:	7100001f 	cmp	w0, #0x0
    1218:	5400008a 	b.ge	1228 <TEE_BigIntAddMod+0x58>
/home/rex/devel/optee/optee_os/lib/libutee/tee_api_arith.c:399
    121c:	b0000060 	adrp	x0, e000 <__mpa_mpanum_to_hexstr+0x180>
    1220:	913d8000 	add	x0, x0, #0xf60
    1224:	97fffdfe 	bl	a1c <TEE_BigInt_Panic>
/home/rex/devel/optee/optee_os/lib/libutee/tee_api_arith.c:401
    1228:	90000080 	adrp	x0, 11000 <ta_props>
    122c:	9103c000 	add	x0, x0, #0xf0
    1230:	f9400000 	ldr	x0, [x0]
    1234:	aa0003e4 	mov	x4, x0
    1238:	f9401ba3 	ldr	x3, [x29,#48]
    123c:	f9401fa2 	ldr	x2, [x29,#56]
    1240:	f94023a1 	ldr	x1, [x29,#64]
    1244:	f94027a0 	ldr	x0, [x29,#72]
    1248:	94003626 	bl	eae0 <mpa_add_mod>
/home/rex/devel/optee/optee_os/lib/libutee/tee_api_arith.c:402
    124c:	52800001 	mov	w1, #0x0                   	// #0
    1250:	f94027a0 	ldr	x0, [x29,#72]
    1254:	94003136 	bl	d72c <mpa_cmp_short>
    1258:	7100001f 	cmp	w0, #0x0
    125c:	5400012a 	b.ge	1280 <TEE_BigIntAddMod+0xb0>
/home/rex/devel/optee/optee_os/lib/libutee/tee_api_arith.c:403
    1260:	90000080 	adrp	x0, 11000 <ta_props>
    1264:	9103c000 	add	x0, x0, #0xf0
    1268:	f9400000 	ldr	x0, [x0]
    126c:	aa0003e3 	mov	x3, x0
    1270:	f9401ba2 	ldr	x2, [x29,#48]
    1274:	f94027a1 	ldr	x1, [x29,#72]
    1278:	f94027a0 	ldr	x0, [x29,#72]
    127c:	94002e04 	bl	ca8c <mpa_add>
/home/rex/devel/optee/optee_os/lib/libutee/tee_api_arith.c:404
    1280:	d503201f 	nop
    1284:	a8c57bfd 	ldp	x29, x30, [sp],#80
    1288:	d65f03c0 	ret

000000000000128c <TEE_BigIntSubMod>:
TEE_BigIntSubMod():
/home/rex/devel/optee/optee_os/lib/libutee/tee_api_arith.c:411
    128c:	a9bb7bfd 	stp	x29, x30, [sp,#-80]!
    1290:	910003fd 	mov	x29, sp
    1294:	f90017a0 	str	x0, [x29,#40]
    1298:	f90013a1 	str	x1, [x29,#32]
    129c:	f9000fa2 	str	x2, [x29,#24]
    12a0:	f9000ba3 	str	x3, [x29,#16]
/home/rex/devel/optee/optee_os/lib/libutee/tee_api_arith.c:412
    12a4:	f94017a0 	ldr	x0, [x29,#40]
    12a8:	f90027a0 	str	x0, [x29,#72]
/home/rex/devel/optee/optee_os/lib/libutee/tee_api_arith.c:413
    12ac:	f94013a0 	ldr	x0, [x29,#32]
    12b0:	f90023a0 	str	x0, [x29,#64]
/home/rex/devel/optee/optee_os/lib/libutee/tee_api_arith.c:414
    12b4:	f9400fa0 	ldr	x0, [x29,#24]
    12b8:	f9001fa0 	str	x0, [x29,#56]
/home/rex/devel/optee/optee_os/lib/libutee/tee_api_arith.c:415
    12bc:	f9400ba0 	ldr	x0, [x29,#16]
    12c0:	f9001ba0 	str	x0, [x29,#48]
/home/rex/devel/optee/optee_os/lib/libutee/tee_api_arith.c:417
    12c4:	52800041 	mov	w1, #0x2                   	// #2
    12c8:	f9400ba0 	ldr	x0, [x29,#16]
    12cc:	97fffedd 	bl	e40 <TEE_BigIntCmpS32>
    12d0:	7100001f 	cmp	w0, #0x0
    12d4:	5400008a 	b.ge	12e4 <TEE_BigIntSubMod+0x58>
/home/rex/devel/optee/optee_os/lib/libutee/tee_api_arith.c:418
    12d8:	b0000060 	adrp	x0, e000 <__mpa_mpanum_to_hexstr+0x180>
    12dc:	913d8000 	add	x0, x0, #0xf60
    12e0:	97fffdcf 	bl	a1c <TEE_BigInt_Panic>
/home/rex/devel/optee/optee_os/lib/libutee/tee_api_arith.c:420
    12e4:	90000080 	adrp	x0, 11000 <ta_props>
    12e8:	9103c000 	add	x0, x0, #0xf0
    12ec:	f9400000 	ldr	x0, [x0]
    12f0:	aa0003e4 	mov	x4, x0
    12f4:	f9401ba3 	ldr	x3, [x29,#48]
    12f8:	f9401fa2 	ldr	x2, [x29,#56]
    12fc:	f94023a1 	ldr	x1, [x29,#64]
    1300:	f94027a0 	ldr	x0, [x29,#72]
    1304:	94003613 	bl	eb50 <mpa_sub_mod>
/home/rex/devel/optee/optee_os/lib/libutee/tee_api_arith.c:421
    1308:	52800001 	mov	w1, #0x0                   	// #0
    130c:	f94027a0 	ldr	x0, [x29,#72]
    1310:	94003107 	bl	d72c <mpa_cmp_short>
    1314:	7100001f 	cmp	w0, #0x0
    1318:	5400012a 	b.ge	133c <TEE_BigIntSubMod+0xb0>
/home/rex/devel/optee/optee_os/lib/libutee/tee_api_arith.c:422
    131c:	90000080 	adrp	x0, 11000 <ta_props>
    1320:	9103c000 	add	x0, x0, #0xf0
    1324:	f9400000 	ldr	x0, [x0]
    1328:	aa0003e3 	mov	x3, x0
    132c:	f9401ba2 	ldr	x2, [x29,#48]
    1330:	f94027a1 	ldr	x1, [x29,#72]
    1334:	f94027a0 	ldr	x0, [x29,#72]
    1338:	94002dd5 	bl	ca8c <mpa_add>
/home/rex/devel/optee/optee_os/lib/libutee/tee_api_arith.c:423
    133c:	d503201f 	nop
    1340:	a8c57bfd 	ldp	x29, x30, [sp],#80
    1344:	d65f03c0 	ret

0000000000001348 <TEE_BigIntMulMod>:
TEE_BigIntMulMod():
/home/rex/devel/optee/optee_os/lib/libutee/tee_api_arith.c:430
    1348:	a9ba7bfd 	stp	x29, x30, [sp,#-96]!
    134c:	910003fd 	mov	x29, sp
    1350:	f90017a0 	str	x0, [x29,#40]
    1354:	f90013a1 	str	x1, [x29,#32]
    1358:	f9000fa2 	str	x2, [x29,#24]
    135c:	f9000ba3 	str	x3, [x29,#16]
/home/rex/devel/optee/optee_os/lib/libutee/tee_api_arith.c:431
    1360:	f94017a0 	ldr	x0, [x29,#40]
    1364:	f9002fa0 	str	x0, [x29,#88]
/home/rex/devel/optee/optee_os/lib/libutee/tee_api_arith.c:432
    1368:	f94013a0 	ldr	x0, [x29,#32]
    136c:	f9002ba0 	str	x0, [x29,#80]
/home/rex/devel/optee/optee_os/lib/libutee/tee_api_arith.c:433
    1370:	f9400fa0 	ldr	x0, [x29,#24]
    1374:	f90027a0 	str	x0, [x29,#72]
/home/rex/devel/optee/optee_os/lib/libutee/tee_api_arith.c:434
    1378:	f9400ba0 	ldr	x0, [x29,#16]
    137c:	f90023a0 	str	x0, [x29,#64]
/home/rex/devel/optee/optee_os/lib/libutee/tee_api_arith.c:437
    1380:	52800041 	mov	w1, #0x2                   	// #2
    1384:	f9400ba0 	ldr	x0, [x29,#16]
    1388:	97fffeae 	bl	e40 <TEE_BigIntCmpS32>
    138c:	7100001f 	cmp	w0, #0x0
    1390:	5400008a 	b.ge	13a0 <TEE_BigIntMulMod+0x58>
/home/rex/devel/optee/optee_os/lib/libutee/tee_api_arith.c:438
    1394:	b0000060 	adrp	x0, e000 <__mpa_mpanum_to_hexstr+0x180>
    1398:	913d8000 	add	x0, x0, #0xf60
    139c:	97fffda0 	bl	a1c <TEE_BigInt_Panic>
/home/rex/devel/optee/optee_os/lib/libutee/tee_api_arith.c:448
    13a0:	90000080 	adrp	x0, 11000 <ta_props>
    13a4:	9103c000 	add	x0, x0, #0xf0
    13a8:	f9400001 	ldr	x1, [x0]
    13ac:	9100e3a0 	add	x0, x29, #0x38
    13b0:	94002785 	bl	b1c4 <mpa_alloc_static_temp_var>
/home/rex/devel/optee/optee_os/lib/libutee/tee_api_arith.c:449
    13b4:	f9401fa5 	ldr	x5, [x29,#56]
    13b8:	90000080 	adrp	x0, 11000 <ta_props>
    13bc:	9103c000 	add	x0, x0, #0xf0
    13c0:	f9400000 	ldr	x0, [x0]
    13c4:	aa0003e4 	mov	x4, x0
    13c8:	f94023a3 	ldr	x3, [x29,#64]
    13cc:	f94027a2 	ldr	x2, [x29,#72]
    13d0:	f9402ba1 	ldr	x1, [x29,#80]
    13d4:	aa0503e0 	mov	x0, x5
    13d8:	940035fa 	bl	ebc0 <mpa_mul_mod>
/home/rex/devel/optee/optee_os/lib/libutee/tee_api_arith.c:450
    13dc:	f9401fa0 	ldr	x0, [x29,#56]
    13e0:	52800001 	mov	w1, #0x0                   	// #0
    13e4:	940030d2 	bl	d72c <mpa_cmp_short>
    13e8:	7100001f 	cmp	w0, #0x0
    13ec:	5400014a 	b.ge	1414 <TEE_BigIntMulMod+0xcc>
/home/rex/devel/optee/optee_os/lib/libutee/tee_api_arith.c:451
    13f0:	f9401fa4 	ldr	x4, [x29,#56]
    13f4:	f9401fa1 	ldr	x1, [x29,#56]
    13f8:	90000080 	adrp	x0, 11000 <ta_props>
    13fc:	9103c000 	add	x0, x0, #0xf0
    1400:	f9400000 	ldr	x0, [x0]
    1404:	aa0003e3 	mov	x3, x0
    1408:	f94023a2 	ldr	x2, [x29,#64]
    140c:	aa0403e0 	mov	x0, x4
    1410:	94002d9f 	bl	ca8c <mpa_add>
/home/rex/devel/optee/optee_os/lib/libutee/tee_api_arith.c:452
    1414:	f9401fa0 	ldr	x0, [x29,#56]
    1418:	aa0003e1 	mov	x1, x0
    141c:	f9402fa0 	ldr	x0, [x29,#88]
    1420:	94001bde 	bl	8398 <mpa_copy>
/home/rex/devel/optee/optee_os/lib/libutee/tee_api_arith.c:453
    1424:	90000080 	adrp	x0, 11000 <ta_props>
    1428:	9103c000 	add	x0, x0, #0xf0
    142c:	f9400001 	ldr	x1, [x0]
    1430:	9100e3a0 	add	x0, x29, #0x38
    1434:	9400276f 	bl	b1f0 <mpa_free_static_temp_var>
/home/rex/devel/optee/optee_os/lib/libutee/tee_api_arith.c:454
    1438:	d503201f 	nop
    143c:	a8c67bfd 	ldp	x29, x30, [sp],#96
    1440:	d65f03c0 	ret

0000000000001444 <TEE_BigIntSquareMod>:
TEE_BigIntSquareMod():
/home/rex/devel/optee/optee_os/lib/libutee/tee_api_arith.c:461
    1444:	a9bd7bfd 	stp	x29, x30, [sp,#-48]!
    1448:	910003fd 	mov	x29, sp
    144c:	f90017a0 	str	x0, [x29,#40]
    1450:	f90013a1 	str	x1, [x29,#32]
    1454:	f9000fa2 	str	x2, [x29,#24]
/home/rex/devel/optee/optee_os/lib/libutee/tee_api_arith.c:462
    1458:	f9400fa3 	ldr	x3, [x29,#24]
    145c:	f94013a2 	ldr	x2, [x29,#32]
    1460:	f94013a1 	ldr	x1, [x29,#32]
    1464:	f94017a0 	ldr	x0, [x29,#40]
    1468:	97ffffb8 	bl	1348 <TEE_BigIntMulMod>
/home/rex/devel/optee/optee_os/lib/libutee/tee_api_arith.c:463
    146c:	d503201f 	nop
    1470:	a8c37bfd 	ldp	x29, x30, [sp],#48
    1474:	d65f03c0 	ret

0000000000001478 <TEE_BigIntInvMod>:
TEE_BigIntInvMod():
/home/rex/devel/optee/optee_os/lib/libutee/tee_api_arith.c:470
    1478:	a9bb7bfd 	stp	x29, x30, [sp,#-80]!
    147c:	910003fd 	mov	x29, sp
    1480:	f90017a0 	str	x0, [x29,#40]
    1484:	f90013a1 	str	x1, [x29,#32]
    1488:	f9000fa2 	str	x2, [x29,#24]
/home/rex/devel/optee/optee_os/lib/libutee/tee_api_arith.c:471
    148c:	f94017a0 	ldr	x0, [x29,#40]
    1490:	f90027a0 	str	x0, [x29,#72]
/home/rex/devel/optee/optee_os/lib/libutee/tee_api_arith.c:472
    1494:	f94013a0 	ldr	x0, [x29,#32]
    1498:	f90023a0 	str	x0, [x29,#64]
/home/rex/devel/optee/optee_os/lib/libutee/tee_api_arith.c:473
    149c:	f9400fa0 	ldr	x0, [x29,#24]
    14a0:	f9001fa0 	str	x0, [x29,#56]
/home/rex/devel/optee/optee_os/lib/libutee/tee_api_arith.c:475
    14a4:	52800041 	mov	w1, #0x2                   	// #2
    14a8:	f9400fa0 	ldr	x0, [x29,#24]
    14ac:	97fffe65 	bl	e40 <TEE_BigIntCmpS32>
    14b0:	7100001f 	cmp	w0, #0x0
    14b4:	540000cb 	b.lt	14cc <TEE_BigIntInvMod+0x54>
/home/rex/devel/optee/optee_os/lib/libutee/tee_api_arith.c:475 (discriminator 1)
    14b8:	52800001 	mov	w1, #0x0                   	// #0
    14bc:	f94013a0 	ldr	x0, [x29,#32]
    14c0:	97fffe60 	bl	e40 <TEE_BigIntCmpS32>
    14c4:	7100001f 	cmp	w0, #0x0
    14c8:	54000081 	b.ne	14d8 <TEE_BigIntInvMod+0x60>
/home/rex/devel/optee/optee_os/lib/libutee/tee_api_arith.c:476
    14cc:	b0000060 	adrp	x0, e000 <__mpa_mpanum_to_hexstr+0x180>
    14d0:	913de000 	add	x0, x0, #0xf78
    14d4:	97fffd52 	bl	a1c <TEE_BigInt_Panic>
/home/rex/devel/optee/optee_os/lib/libutee/tee_api_arith.c:478
    14d8:	90000080 	adrp	x0, 11000 <ta_props>
    14dc:	9103c000 	add	x0, x0, #0xf0
    14e0:	f9400000 	ldr	x0, [x0]
    14e4:	aa0003e3 	mov	x3, x0
    14e8:	f9401fa2 	ldr	x2, [x29,#56]
    14ec:	f94023a1 	ldr	x1, [x29,#64]
    14f0:	f94027a0 	ldr	x0, [x29,#72]
    14f4:	940035cf 	bl	ec30 <mpa_inv_mod>
/home/rex/devel/optee/optee_os/lib/libutee/tee_api_arith.c:479
    14f8:	d503201f 	nop
    14fc:	a8c57bfd 	ldp	x29, x30, [sp],#80
    1500:	d65f03c0 	ret

0000000000001504 <TEE_BigIntRelativePrime>:
TEE_BigIntRelativePrime():
/home/rex/devel/optee/optee_os/lib/libutee/tee_api_arith.c:489
    1504:	a9bc7bfd 	stp	x29, x30, [sp,#-64]!
    1508:	910003fd 	mov	x29, sp
    150c:	f9000fa0 	str	x0, [x29,#24]
    1510:	f9000ba1 	str	x1, [x29,#16]
/home/rex/devel/optee/optee_os/lib/libutee/tee_api_arith.c:490
    1514:	f9400fa0 	ldr	x0, [x29,#24]
    1518:	f9001fa0 	str	x0, [x29,#56]
/home/rex/devel/optee/optee_os/lib/libutee/tee_api_arith.c:491
    151c:	f9400ba0 	ldr	x0, [x29,#16]
    1520:	f9001ba0 	str	x0, [x29,#48]
/home/rex/devel/optee/optee_os/lib/libutee/tee_api_arith.c:495
    1524:	90000080 	adrp	x0, 11000 <ta_props>
    1528:	9103c000 	add	x0, x0, #0xf0
    152c:	f9400001 	ldr	x1, [x0]
    1530:	910083a0 	add	x0, x29, #0x20
    1534:	94002724 	bl	b1c4 <mpa_alloc_static_temp_var>
/home/rex/devel/optee/optee_os/lib/libutee/tee_api_arith.c:497
    1538:	f94013a4 	ldr	x4, [x29,#32]
    153c:	90000080 	adrp	x0, 11000 <ta_props>
    1540:	9103c000 	add	x0, x0, #0xf0
    1544:	f9400000 	ldr	x0, [x0]
    1548:	aa0003e3 	mov	x3, x0
    154c:	f9401ba2 	ldr	x2, [x29,#48]
    1550:	f9401fa1 	ldr	x1, [x29,#56]
    1554:	aa0403e0 	mov	x0, x4
    1558:	9400254c 	bl	aa88 <mpa_gcd>
/home/rex/devel/optee/optee_os/lib/libutee/tee_api_arith.c:498
    155c:	f94013a0 	ldr	x0, [x29,#32]
    1560:	52800021 	mov	w1, #0x1                   	// #1
    1564:	94003072 	bl	d72c <mpa_cmp_short>
    1568:	b9002fa0 	str	w0, [x29,#44]
/home/rex/devel/optee/optee_os/lib/libutee/tee_api_arith.c:500
    156c:	90000080 	adrp	x0, 11000 <ta_props>
    1570:	9103c000 	add	x0, x0, #0xf0
    1574:	f9400001 	ldr	x1, [x0]
    1578:	910083a0 	add	x0, x29, #0x20
    157c:	9400271d 	bl	b1f0 <mpa_free_static_temp_var>
/home/rex/devel/optee/optee_os/lib/libutee/tee_api_arith.c:502
    1580:	b9402fa0 	ldr	w0, [x29,#44]
    1584:	7100001f 	cmp	w0, #0x0
    1588:	1a9f17e0 	cset	w0, eq
    158c:	12001c00 	and	w0, w0, #0xff
/home/rex/devel/optee/optee_os/lib/libutee/tee_api_arith.c:503
    1590:	a8c47bfd 	ldp	x29, x30, [sp],#64
    1594:	d65f03c0 	ret

0000000000001598 <TEE_BigIntComputeExtendedGcd>:
TEE_BigIntComputeExtendedGcd():
/home/rex/devel/optee/optee_os/lib/libutee/tee_api_arith.c:511
    1598:	a9b97bfd 	stp	x29, x30, [sp,#-112]!
    159c:	910003fd 	mov	x29, sp
    15a0:	f9001fa0 	str	x0, [x29,#56]
    15a4:	f9001ba1 	str	x1, [x29,#48]
    15a8:	f90017a2 	str	x2, [x29,#40]
    15ac:	f90013a3 	str	x3, [x29,#32]
    15b0:	f9000fa4 	str	x4, [x29,#24]
/home/rex/devel/optee/optee_os/lib/libutee/tee_api_arith.c:512
    15b4:	f9401fa0 	ldr	x0, [x29,#56]
    15b8:	f90037a0 	str	x0, [x29,#104]
/home/rex/devel/optee/optee_os/lib/libutee/tee_api_arith.c:513
    15bc:	f9401ba0 	ldr	x0, [x29,#48]
    15c0:	f90033a0 	str	x0, [x29,#96]
/home/rex/devel/optee/optee_os/lib/libutee/tee_api_arith.c:514
    15c4:	f94017a0 	ldr	x0, [x29,#40]
    15c8:	f9002fa0 	str	x0, [x29,#88]
/home/rex/devel/optee/optee_os/lib/libutee/tee_api_arith.c:515
    15cc:	f94013a0 	ldr	x0, [x29,#32]
    15d0:	f9002ba0 	str	x0, [x29,#80]
/home/rex/devel/optee/optee_os/lib/libutee/tee_api_arith.c:516
    15d4:	f9400fa0 	ldr	x0, [x29,#24]
    15d8:	f90027a0 	str	x0, [x29,#72]
/home/rex/devel/optee/optee_os/lib/libutee/tee_api_arith.c:518
    15dc:	90000080 	adrp	x0, 11000 <ta_props>
    15e0:	9103c000 	add	x0, x0, #0xf0
    15e4:	f9400000 	ldr	x0, [x0]
    15e8:	aa0003e5 	mov	x5, x0
    15ec:	f94027a4 	ldr	x4, [x29,#72]
    15f0:	f9402ba3 	ldr	x3, [x29,#80]
    15f4:	f9402fa2 	ldr	x2, [x29,#88]
    15f8:	f94033a1 	ldr	x1, [x29,#96]
    15fc:	f94037a0 	ldr	x0, [x29,#104]
    1600:	94002584 	bl	ac10 <mpa_extended_gcd>
/home/rex/devel/optee/optee_os/lib/libutee/tee_api_arith.c:519
    1604:	d503201f 	nop
    1608:	a8c77bfd 	ldp	x29, x30, [sp],#112
    160c:	d65f03c0 	ret

0000000000001610 <TEE_BigIntIsProbablePrime>:
TEE_BigIntIsProbablePrime():
/home/rex/devel/optee/optee_os/lib/libutee/tee_api_arith.c:526
    1610:	a9bd7bfd 	stp	x29, x30, [sp,#-48]!
    1614:	910003fd 	mov	x29, sp
    1618:	f9000fa0 	str	x0, [x29,#24]
    161c:	b90017a1 	str	w1, [x29,#20]
/home/rex/devel/optee/optee_os/lib/libutee/tee_api_arith.c:527
    1620:	f9400fa0 	ldr	x0, [x29,#24]
    1624:	f90017a0 	str	x0, [x29,#40]
/home/rex/devel/optee/optee_os/lib/libutee/tee_api_arith.c:529
    1628:	b94017a0 	ldr	w0, [x29,#20]
    162c:	71013c1f 	cmp	w0, #0x4f
    1630:	54000068 	b.hi	163c <TEE_BigIntIsProbablePrime+0x2c>
/home/rex/devel/optee/optee_os/lib/libutee/tee_api_arith.c:530
    1634:	52800a00 	mov	w0, #0x50                  	// #80
    1638:	b90017a0 	str	w0, [x29,#20]
/home/rex/devel/optee/optee_os/lib/libutee/tee_api_arith.c:532
    163c:	b94017a0 	ldr	w0, [x29,#20]
    1640:	7104001f 	cmp	w0, #0x100
    1644:	54000069 	b.ls	1650 <TEE_BigIntIsProbablePrime+0x40>
/home/rex/devel/optee/optee_os/lib/libutee/tee_api_arith.c:533
    1648:	52802000 	mov	w0, #0x100                 	// #256
    164c:	b90017a0 	str	w0, [x29,#20]
/home/rex/devel/optee/optee_os/lib/libutee/tee_api_arith.c:535
    1650:	b94017a1 	ldr	w1, [x29,#20]
    1654:	90000080 	adrp	x0, 11000 <ta_props>
    1658:	9103c000 	add	x0, x0, #0xf0
    165c:	f9400000 	ldr	x0, [x0]
    1660:	aa0003e2 	mov	x2, x0
    1664:	f94017a0 	ldr	x0, [x29,#40]
    1668:	94001d88 	bl	8c88 <mpa_is_prob_prime>
/home/rex/devel/optee/optee_os/lib/libutee/tee_api_arith.c:536
    166c:	a8c37bfd 	ldp	x29, x30, [sp],#48
    1670:	d65f03c0 	ret

0000000000001674 <TEE_BigIntConvertToFMM>:
TEE_BigIntConvertToFMM():
/home/rex/devel/optee/optee_os/lib/libutee/tee_api_arith.c:549
    1674:	a9bb7bfd 	stp	x29, x30, [sp,#-80]!
    1678:	910003fd 	mov	x29, sp
    167c:	f90017a0 	str	x0, [x29,#40]
    1680:	f90013a1 	str	x1, [x29,#32]
    1684:	f9000fa2 	str	x2, [x29,#24]
    1688:	f9000ba3 	str	x3, [x29,#16]
/home/rex/devel/optee/optee_os/lib/libutee/tee_api_arith.c:550
    168c:	f94017a0 	ldr	x0, [x29,#40]
    1690:	f90027a0 	str	x0, [x29,#72]
/home/rex/devel/optee/optee_os/lib/libutee/tee_api_arith.c:551
    1694:	f94013a0 	ldr	x0, [x29,#32]
    1698:	f90023a0 	str	x0, [x29,#64]
/home/rex/devel/optee/optee_os/lib/libutee/tee_api_arith.c:552
    169c:	f9400fa0 	ldr	x0, [x29,#24]
    16a0:	f9001fa0 	str	x0, [x29,#56]
/home/rex/devel/optee/optee_os/lib/libutee/tee_api_arith.c:553
    16a4:	f9400ba0 	ldr	x0, [x29,#16]
    16a8:	f9001ba0 	str	x0, [x29,#48]
/home/rex/devel/optee/optee_os/lib/libutee/tee_api_arith.c:556
    16ac:	f9401ba0 	ldr	x0, [x29,#48]
    16b0:	f9400401 	ldr	x1, [x0,#8]
    16b4:	f9401ba0 	ldr	x0, [x29,#48]
    16b8:	b9401002 	ldr	w2, [x0,#16]
    16bc:	90000080 	adrp	x0, 11000 <ta_props>
    16c0:	9103c000 	add	x0, x0, #0xf0
    16c4:	f9400000 	ldr	x0, [x0]
    16c8:	aa0003e5 	mov	x5, x0
    16cc:	2a0203e4 	mov	w4, w2
    16d0:	f9401fa3 	ldr	x3, [x29,#56]
    16d4:	aa0103e2 	mov	x2, x1
    16d8:	f94023a1 	ldr	x1, [x29,#64]
    16dc:	f94027a0 	ldr	x0, [x29,#72]
    16e0:	94001d4f 	bl	8c1c <mpa_montgomery_mul>
/home/rex/devel/optee/optee_os/lib/libutee/tee_api_arith.c:558
    16e4:	d503201f 	nop
    16e8:	a8c57bfd 	ldp	x29, x30, [sp],#80
    16ec:	d65f03c0 	ret

00000000000016f0 <TEE_BigIntConvertFromFMM>:
TEE_BigIntConvertFromFMM():
/home/rex/devel/optee/optee_os/lib/libutee/tee_api_arith.c:567
    16f0:	a9b97bfd 	stp	x29, x30, [sp,#-112]!
    16f4:	910003fd 	mov	x29, sp
    16f8:	f9000bf3 	str	x19, [sp,#16]
    16fc:	f9001fa0 	str	x0, [x29,#56]
    1700:	f9001ba1 	str	x1, [x29,#48]
    1704:	f90017a2 	str	x2, [x29,#40]
    1708:	f90013a3 	str	x3, [x29,#32]
/home/rex/devel/optee/optee_os/lib/libutee/tee_api_arith.c:568
    170c:	f9401fa0 	ldr	x0, [x29,#56]
    1710:	f90037a0 	str	x0, [x29,#104]
/home/rex/devel/optee/optee_os/lib/libutee/tee_api_arith.c:569
    1714:	f9401ba0 	ldr	x0, [x29,#48]
    1718:	f90033a0 	str	x0, [x29,#96]
/home/rex/devel/optee/optee_os/lib/libutee/tee_api_arith.c:570
    171c:	f94017a0 	ldr	x0, [x29,#40]
    1720:	f9002fa0 	str	x0, [x29,#88]
/home/rex/devel/optee/optee_os/lib/libutee/tee_api_arith.c:571
    1724:	f94013a0 	ldr	x0, [x29,#32]
    1728:	f9002ba0 	str	x0, [x29,#80]
/home/rex/devel/optee/optee_os/lib/libutee/tee_api_arith.c:579
    172c:	90000080 	adrp	x0, 11000 <ta_props>
    1730:	9103c000 	add	x0, x0, #0xf0
    1734:	f9400001 	ldr	x1, [x0]
    1738:	910123a0 	add	x0, x29, #0x48
    173c:	940026a2 	bl	b1c4 <mpa_alloc_static_temp_var>
/home/rex/devel/optee/optee_os/lib/libutee/tee_api_arith.c:582
    1740:	f94027b3 	ldr	x19, [x29,#72]
    1744:	94001bb0 	bl	8604 <mpa_constant_one>
    1748:	aa0003e6 	mov	x6, x0
    174c:	f9402ba0 	ldr	x0, [x29,#80]
    1750:	b9401001 	ldr	w1, [x0,#16]
    1754:	90000080 	adrp	x0, 11000 <ta_props>
    1758:	9103c000 	add	x0, x0, #0xf0
    175c:	f9400000 	ldr	x0, [x0]
    1760:	aa0003e5 	mov	x5, x0
    1764:	2a0103e4 	mov	w4, w1
    1768:	f9402fa3 	ldr	x3, [x29,#88]
    176c:	f94033a2 	ldr	x2, [x29,#96]
    1770:	aa0603e1 	mov	x1, x6
    1774:	aa1303e0 	mov	x0, x19
    1778:	94001d29 	bl	8c1c <mpa_montgomery_mul>
/home/rex/devel/optee/optee_os/lib/libutee/tee_api_arith.c:585
    177c:	f94027a0 	ldr	x0, [x29,#72]
    1780:	aa0003e1 	mov	x1, x0
    1784:	f94037a0 	ldr	x0, [x29,#104]
    1788:	94001b04 	bl	8398 <mpa_copy>
/home/rex/devel/optee/optee_os/lib/libutee/tee_api_arith.c:586
    178c:	90000080 	adrp	x0, 11000 <ta_props>
    1790:	9103c000 	add	x0, x0, #0xf0
    1794:	f9400001 	ldr	x1, [x0]
    1798:	910123a0 	add	x0, x29, #0x48
    179c:	94002695 	bl	b1f0 <mpa_free_static_temp_var>
/home/rex/devel/optee/optee_os/lib/libutee/tee_api_arith.c:587
    17a0:	d503201f 	nop
    17a4:	f9400bf3 	ldr	x19, [sp,#16]
    17a8:	a8c77bfd 	ldp	x29, x30, [sp],#112
    17ac:	d65f03c0 	ret

00000000000017b0 <TEE_BigIntComputeFMM>:
TEE_BigIntComputeFMM():
/home/rex/devel/optee/optee_os/lib/libutee/tee_api_arith.c:597
    17b0:	a9b97bfd 	stp	x29, x30, [sp,#-112]!
    17b4:	910003fd 	mov	x29, sp
    17b8:	f9001fa0 	str	x0, [x29,#56]
    17bc:	f9001ba1 	str	x1, [x29,#48]
    17c0:	f90017a2 	str	x2, [x29,#40]
    17c4:	f90013a3 	str	x3, [x29,#32]
    17c8:	f9000fa4 	str	x4, [x29,#24]
/home/rex/devel/optee/optee_os/lib/libutee/tee_api_arith.c:598
    17cc:	f9401fa0 	ldr	x0, [x29,#56]
    17d0:	f90037a0 	str	x0, [x29,#104]
/home/rex/devel/optee/optee_os/lib/libutee/tee_api_arith.c:599
    17d4:	f9401ba0 	ldr	x0, [x29,#48]
    17d8:	f90033a0 	str	x0, [x29,#96]
/home/rex/devel/optee/optee_os/lib/libutee/tee_api_arith.c:600
    17dc:	f94017a0 	ldr	x0, [x29,#40]
    17e0:	f9002fa0 	str	x0, [x29,#88]
/home/rex/devel/optee/optee_os/lib/libutee/tee_api_arith.c:601
    17e4:	f94013a0 	ldr	x0, [x29,#32]
    17e8:	f9002ba0 	str	x0, [x29,#80]
/home/rex/devel/optee/optee_os/lib/libutee/tee_api_arith.c:602
    17ec:	f9400fa0 	ldr	x0, [x29,#24]
    17f0:	f90027a0 	str	x0, [x29,#72]
/home/rex/devel/optee/optee_os/lib/libutee/tee_api_arith.c:604
    17f4:	f94027a0 	ldr	x0, [x29,#72]
    17f8:	b9401001 	ldr	w1, [x0,#16]
    17fc:	90000080 	adrp	x0, 11000 <ta_props>
    1800:	9103c000 	add	x0, x0, #0xf0
    1804:	f9400000 	ldr	x0, [x0]
    1808:	aa0003e5 	mov	x5, x0
    180c:	2a0103e4 	mov	w4, w1
    1810:	f9402ba3 	ldr	x3, [x29,#80]
    1814:	f9402fa2 	ldr	x2, [x29,#88]
    1818:	f94033a1 	ldr	x1, [x29,#96]
    181c:	f94037a0 	ldr	x0, [x29,#104]
    1820:	94001cff 	bl	8c1c <mpa_montgomery_mul>
/home/rex/devel/optee/optee_os/lib/libutee/tee_api_arith.c:606
    1824:	d503201f 	nop
    1828:	a8c77bfd 	ldp	x29, x30, [sp],#112
    182c:	d65f03c0 	ret

0000000000001830 <__utee_from_param>:
__utee_from_param():
/home/rex/devel/optee/optee_os/lib/libutee/tee_api.c:42
    1830:	d100c3ff 	sub	sp, sp, #0x30
    1834:	f9000fe0 	str	x0, [sp,#24]
    1838:	b90017e1 	str	w1, [sp,#20]
    183c:	f90007e2 	str	x2, [sp,#8]
/home/rex/devel/optee/optee_os/lib/libutee/tee_api.c:45
    1840:	b94017e1 	ldr	w1, [sp,#20]
    1844:	f9400fe0 	ldr	x0, [sp,#24]
    1848:	f9000001 	str	x1, [x0]
/home/rex/devel/optee/optee_os/lib/libutee/tee_api.c:46
    184c:	f90017ff 	str	xzr, [sp,#40]
    1850:	14000053 	b	199c <__utee_from_param+0x16c>
/home/rex/devel/optee/optee_os/lib/libutee/tee_api.c:47
    1854:	f94017e0 	ldr	x0, [sp,#40]
    1858:	531e7400 	lsl	w0, w0, #2
    185c:	b94017e1 	ldr	w1, [sp,#20]
    1860:	1ac02420 	lsr	w0, w1, w0
    1864:	12000c00 	and	w0, w0, #0xf
    1868:	7100041f 	cmp	w0, #0x1
    186c:	54000763 	b.cc	1958 <__utee_from_param+0x128>
    1870:	71000c1f 	cmp	w0, #0x3
    1874:	540000a9 	b.ls	1888 <__utee_from_param+0x58>
    1878:	51001400 	sub	w0, w0, #0x5
    187c:	7100081f 	cmp	w0, #0x2
    1880:	540006c8 	b.hi	1958 <__utee_from_param+0x128>
    1884:	1400001b 	b	18f0 <__utee_from_param+0xc0>
/home/rex/devel/optee/optee_os/lib/libutee/tee_api.c:51
    1888:	f94017e0 	ldr	x0, [sp,#40]
    188c:	d37ff800 	lsl	x0, x0, #1
    1890:	f94017e1 	ldr	x1, [sp,#40]
    1894:	d37cec21 	lsl	x1, x1, #4
    1898:	f94007e2 	ldr	x2, [sp,#8]
    189c:	8b010041 	add	x1, x2, x1
    18a0:	b9400021 	ldr	w1, [x1]
    18a4:	2a0103e1 	mov	w1, w1
    18a8:	f9400fe2 	ldr	x2, [sp,#24]
    18ac:	d37df000 	lsl	x0, x0, #3
    18b0:	8b000040 	add	x0, x2, x0
    18b4:	f9000401 	str	x1, [x0,#8]
/home/rex/devel/optee/optee_os/lib/libutee/tee_api.c:52
    18b8:	f94017e0 	ldr	x0, [sp,#40]
    18bc:	d37ff800 	lsl	x0, x0, #1
    18c0:	91000400 	add	x0, x0, #0x1
    18c4:	f94017e1 	ldr	x1, [sp,#40]
    18c8:	d37cec21 	lsl	x1, x1, #4
    18cc:	f94007e2 	ldr	x2, [sp,#8]
    18d0:	8b010041 	add	x1, x2, x1
    18d4:	b9400421 	ldr	w1, [x1,#4]
    18d8:	2a0103e1 	mov	w1, w1
    18dc:	f9400fe2 	ldr	x2, [sp,#24]
    18e0:	d37df000 	lsl	x0, x0, #3
    18e4:	8b000040 	add	x0, x2, x0
    18e8:	f9000401 	str	x1, [x0,#8]
/home/rex/devel/optee/optee_os/lib/libutee/tee_api.c:53
    18ec:	14000029 	b	1990 <__utee_from_param+0x160>
/home/rex/devel/optee/optee_os/lib/libutee/tee_api.c:57
    18f0:	f94017e0 	ldr	x0, [sp,#40]
    18f4:	d37ff800 	lsl	x0, x0, #1
    18f8:	f94017e1 	ldr	x1, [sp,#40]
    18fc:	d37cec21 	lsl	x1, x1, #4
    1900:	f94007e2 	ldr	x2, [sp,#8]
    1904:	8b010041 	add	x1, x2, x1
    1908:	f9400021 	ldr	x1, [x1]
    190c:	aa0103e2 	mov	x2, x1
    1910:	f9400fe1 	ldr	x1, [sp,#24]
    1914:	d37df000 	lsl	x0, x0, #3
    1918:	8b000020 	add	x0, x1, x0
    191c:	f9000402 	str	x2, [x0,#8]
/home/rex/devel/optee/optee_os/lib/libutee/tee_api.c:58
    1920:	f94017e0 	ldr	x0, [sp,#40]
    1924:	d37ff800 	lsl	x0, x0, #1
    1928:	91000400 	add	x0, x0, #0x1
    192c:	f94017e1 	ldr	x1, [sp,#40]
    1930:	d37cec21 	lsl	x1, x1, #4
    1934:	f94007e2 	ldr	x2, [sp,#8]
    1938:	8b010041 	add	x1, x2, x1
    193c:	b9400821 	ldr	w1, [x1,#8]
    1940:	2a0103e1 	mov	w1, w1
    1944:	f9400fe2 	ldr	x2, [sp,#24]
    1948:	d37df000 	lsl	x0, x0, #3
    194c:	8b000040 	add	x0, x2, x0
    1950:	f9000401 	str	x1, [x0,#8]
/home/rex/devel/optee/optee_os/lib/libutee/tee_api.c:59
    1954:	1400000f 	b	1990 <__utee_from_param+0x160>
/home/rex/devel/optee/optee_os/lib/libutee/tee_api.c:61
    1958:	f94017e0 	ldr	x0, [sp,#40]
    195c:	d37ff800 	lsl	x0, x0, #1
    1960:	f9400fe1 	ldr	x1, [sp,#24]
    1964:	d37df000 	lsl	x0, x0, #3
    1968:	8b000020 	add	x0, x1, x0
    196c:	f900041f 	str	xzr, [x0,#8]
/home/rex/devel/optee/optee_os/lib/libutee/tee_api.c:62
    1970:	f94017e0 	ldr	x0, [sp,#40]
    1974:	d37ff800 	lsl	x0, x0, #1
    1978:	91000400 	add	x0, x0, #0x1
    197c:	f9400fe1 	ldr	x1, [sp,#24]
    1980:	d37df000 	lsl	x0, x0, #3
    1984:	8b000020 	add	x0, x1, x0
    1988:	f900041f 	str	xzr, [x0,#8]
/home/rex/devel/optee/optee_os/lib/libutee/tee_api.c:63
    198c:	d503201f 	nop
/home/rex/devel/optee/optee_os/lib/libutee/tee_api.c:46 (discriminator 2)
    1990:	f94017e0 	ldr	x0, [sp,#40]
    1994:	91000400 	add	x0, x0, #0x1
    1998:	f90017e0 	str	x0, [sp,#40]
/home/rex/devel/optee/optee_os/lib/libutee/tee_api.c:46 (discriminator 1)
    199c:	f94017e0 	ldr	x0, [sp,#40]
    19a0:	f1000c1f 	cmp	x0, #0x3
    19a4:	54fff589 	b.ls	1854 <__utee_from_param+0x24>
/home/rex/devel/optee/optee_os/lib/libutee/tee_api.c:66
    19a8:	d503201f 	nop
    19ac:	9100c3ff 	add	sp, sp, #0x30
    19b0:	d65f03c0 	ret

00000000000019b4 <__utee_to_param>:
__utee_to_param():
/home/rex/devel/optee/optee_os/lib/libutee/tee_api.c:70
    19b4:	d10103ff 	sub	sp, sp, #0x40
    19b8:	f9000fe0 	str	x0, [sp,#24]
    19bc:	f9000be1 	str	x1, [sp,#16]
    19c0:	f90007e2 	str	x2, [sp,#8]
/home/rex/devel/optee/optee_os/lib/libutee/tee_api.c:72
    19c4:	f94007e0 	ldr	x0, [sp,#8]
    19c8:	f9400000 	ldr	x0, [x0]
    19cc:	b90037e0 	str	w0, [sp,#52]
/home/rex/devel/optee/optee_os/lib/libutee/tee_api.c:74
    19d0:	f9001fff 	str	xzr, [sp,#56]
    19d4:	1400003b 	b	1ac0 <__utee_to_param+0x10c>
/home/rex/devel/optee/optee_os/lib/libutee/tee_api.c:75
    19d8:	f9401fe0 	ldr	x0, [sp,#56]
    19dc:	d37ff800 	lsl	x0, x0, #1
    19e0:	f94007e1 	ldr	x1, [sp,#8]
    19e4:	d37df000 	lsl	x0, x0, #3
    19e8:	8b000020 	add	x0, x1, x0
    19ec:	f9400400 	ldr	x0, [x0,#8]
    19f0:	f90017e0 	str	x0, [sp,#40]
/home/rex/devel/optee/optee_os/lib/libutee/tee_api.c:76
    19f4:	f9401fe0 	ldr	x0, [sp,#56]
    19f8:	d37ff800 	lsl	x0, x0, #1
    19fc:	91000400 	add	x0, x0, #0x1
    1a00:	f94007e1 	ldr	x1, [sp,#8]
    1a04:	d37df000 	lsl	x0, x0, #3
    1a08:	8b000020 	add	x0, x1, x0
    1a0c:	f9400400 	ldr	x0, [x0,#8]
    1a10:	f90013e0 	str	x0, [sp,#32]
/home/rex/devel/optee/optee_os/lib/libutee/tee_api.c:78
    1a14:	f9401fe0 	ldr	x0, [sp,#56]
    1a18:	531e7400 	lsl	w0, w0, #2
    1a1c:	b94037e1 	ldr	w1, [sp,#52]
    1a20:	1ac02420 	lsr	w0, w1, w0
    1a24:	12000c00 	and	w0, w0, #0xf
    1a28:	7100041f 	cmp	w0, #0x1
    1a2c:	54000423 	b.cc	1ab0 <__utee_to_param+0xfc>
    1a30:	71000c1f 	cmp	w0, #0x3
    1a34:	540000a9 	b.ls	1a48 <__utee_to_param+0x94>
    1a38:	51001400 	sub	w0, w0, #0x5
    1a3c:	7100081f 	cmp	w0, #0x2
    1a40:	54000388 	b.hi	1ab0 <__utee_to_param+0xfc>
    1a44:	1400000e 	b	1a7c <__utee_to_param+0xc8>
/home/rex/devel/optee/optee_os/lib/libutee/tee_api.c:82
    1a48:	f9401fe0 	ldr	x0, [sp,#56]
    1a4c:	d37cec00 	lsl	x0, x0, #4
    1a50:	f9400fe1 	ldr	x1, [sp,#24]
    1a54:	8b000020 	add	x0, x1, x0
    1a58:	f94017e1 	ldr	x1, [sp,#40]
    1a5c:	b9000001 	str	w1, [x0]
/home/rex/devel/optee/optee_os/lib/libutee/tee_api.c:83
    1a60:	f9401fe0 	ldr	x0, [sp,#56]
    1a64:	d37cec00 	lsl	x0, x0, #4
    1a68:	f9400fe1 	ldr	x1, [sp,#24]
    1a6c:	8b000020 	add	x0, x1, x0
    1a70:	f94013e1 	ldr	x1, [sp,#32]
    1a74:	b9000401 	str	w1, [x0,#4]
/home/rex/devel/optee/optee_os/lib/libutee/tee_api.c:84
    1a78:	1400000f 	b	1ab4 <__utee_to_param+0x100>
/home/rex/devel/optee/optee_os/lib/libutee/tee_api.c:88
    1a7c:	f9401fe0 	ldr	x0, [sp,#56]
    1a80:	d37cec00 	lsl	x0, x0, #4
    1a84:	f9400fe1 	ldr	x1, [sp,#24]
    1a88:	8b000020 	add	x0, x1, x0
    1a8c:	f94017e1 	ldr	x1, [sp,#40]
    1a90:	f9000001 	str	x1, [x0]
/home/rex/devel/optee/optee_os/lib/libutee/tee_api.c:89
    1a94:	f9401fe0 	ldr	x0, [sp,#56]
    1a98:	d37cec00 	lsl	x0, x0, #4
    1a9c:	f9400fe1 	ldr	x1, [sp,#24]
    1aa0:	8b000020 	add	x0, x1, x0
    1aa4:	f94013e1 	ldr	x1, [sp,#32]
    1aa8:	b9000801 	str	w1, [x0,#8]
/home/rex/devel/optee/optee_os/lib/libutee/tee_api.c:90
    1aac:	14000002 	b	1ab4 <__utee_to_param+0x100>
/home/rex/devel/optee/optee_os/lib/libutee/tee_api.c:92
    1ab0:	d503201f 	nop
/home/rex/devel/optee/optee_os/lib/libutee/tee_api.c:74 (discriminator 2)
    1ab4:	f9401fe0 	ldr	x0, [sp,#56]
    1ab8:	91000400 	add	x0, x0, #0x1
    1abc:	f9001fe0 	str	x0, [sp,#56]
/home/rex/devel/optee/optee_os/lib/libutee/tee_api.c:74 (discriminator 1)
    1ac0:	f9401fe0 	ldr	x0, [sp,#56]
    1ac4:	f1000c1f 	cmp	x0, #0x3
    1ac8:	54fff889 	b.ls	19d8 <__utee_to_param+0x24>
/home/rex/devel/optee/optee_os/lib/libutee/tee_api.c:96
    1acc:	f9400be0 	ldr	x0, [sp,#16]
    1ad0:	f100001f 	cmp	x0, #0x0
    1ad4:	54000080 	b.eq	1ae4 <__utee_to_param+0x130>
/home/rex/devel/optee/optee_os/lib/libutee/tee_api.c:97
    1ad8:	f9400be0 	ldr	x0, [sp,#16]
    1adc:	b94037e1 	ldr	w1, [sp,#52]
    1ae0:	b9000001 	str	w1, [x0]
/home/rex/devel/optee/optee_os/lib/libutee/tee_api.c:98
    1ae4:	d503201f 	nop
    1ae8:	910103ff 	add	sp, sp, #0x40
    1aec:	d65f03c0 	ret

0000000000001af0 <TEE_OpenTASession>:
TEE_OpenTASession():
/home/rex/devel/optee/optee_os/lib/libutee/tee_api.c:106
    1af0:	a9b67bfd 	stp	x29, x30, [sp,#-160]!
    1af4:	910003fd 	mov	x29, sp
    1af8:	f9001fa0 	str	x0, [x29,#56]
    1afc:	b90037a1 	str	w1, [x29,#52]
    1b00:	b90033a2 	str	w2, [x29,#48]
    1b04:	f90017a3 	str	x3, [x29,#40]
    1b08:	f90013a4 	str	x4, [x29,#32]
    1b0c:	f9000fa5 	str	x5, [x29,#24]
/home/rex/devel/optee/optee_os/lib/libutee/tee_api.c:111
    1b10:	910143a0 	add	x0, x29, #0x50
    1b14:	f94017a2 	ldr	x2, [x29,#40]
    1b18:	b94033a1 	ldr	w1, [x29,#48]
    1b1c:	97ffff45 	bl	1830 <__utee_from_param>
/home/rex/devel/optee/optee_os/lib/libutee/tee_api.c:112
    1b20:	b94037a0 	ldr	w0, [x29,#52]
    1b24:	910133a2 	add	x2, x29, #0x4c
    1b28:	910143a1 	add	x1, x29, #0x50
    1b2c:	f9400fa4 	ldr	x4, [x29,#24]
    1b30:	aa0203e3 	mov	x3, x2
    1b34:	aa0103e2 	mov	x2, x1
    1b38:	aa0003e1 	mov	x1, x0
    1b3c:	f9401fa0 	ldr	x0, [x29,#56]
    1b40:	97fffaed 	bl	6f4 <utee_open_ta_session>
    1b44:	b9009fa0 	str	w0, [x29,#156]
/home/rex/devel/optee/optee_os/lib/libutee/tee_api.c:114
    1b48:	910143a0 	add	x0, x29, #0x50
    1b4c:	aa0003e2 	mov	x2, x0
    1b50:	d2800001 	mov	x1, #0x0                   	// #0
    1b54:	f94017a0 	ldr	x0, [x29,#40]
    1b58:	97ffff97 	bl	19b4 <__utee_to_param>
/home/rex/devel/optee/optee_os/lib/libutee/tee_api.c:120
    1b5c:	b9409fa0 	ldr	w0, [x29,#156]
    1b60:	7100001f 	cmp	w0, #0x0
    1b64:	54000040 	b.eq	1b6c <TEE_OpenTASession+0x7c>
/home/rex/devel/optee/optee_os/lib/libutee/tee_api.c:121
    1b68:	b9004fbf 	str	wzr, [x29,#76]
/home/rex/devel/optee/optee_os/lib/libutee/tee_api.c:123
    1b6c:	b9404fa0 	ldr	w0, [x29,#76]
    1b70:	2a0003e0 	mov	w0, w0
    1b74:	aa0003e1 	mov	x1, x0
    1b78:	f94013a0 	ldr	x0, [x29,#32]
    1b7c:	f9000001 	str	x1, [x0]
/home/rex/devel/optee/optee_os/lib/libutee/tee_api.c:124
    1b80:	b9409fa0 	ldr	w0, [x29,#156]
/home/rex/devel/optee/optee_os/lib/libutee/tee_api.c:125
    1b84:	a8ca7bfd 	ldp	x29, x30, [sp],#160
    1b88:	d65f03c0 	ret

0000000000001b8c <TEE_CloseTASession>:
TEE_CloseTASession():
/home/rex/devel/optee/optee_os/lib/libutee/tee_api.c:128
    1b8c:	a9bd7bfd 	stp	x29, x30, [sp,#-48]!
    1b90:	910003fd 	mov	x29, sp
    1b94:	f9000fa0 	str	x0, [x29,#24]
/home/rex/devel/optee/optee_os/lib/libutee/tee_api.c:129
    1b98:	f9400fa0 	ldr	x0, [x29,#24]
    1b9c:	f100001f 	cmp	x0, #0x0
    1ba0:	54000260 	b.eq	1bec <TEE_CloseTASession+0x60>
/home/rex/devel/optee/optee_os/lib/libutee/tee_api.c:130
    1ba4:	f9400fa0 	ldr	x0, [x29,#24]
    1ba8:	97fffad6 	bl	700 <utee_close_ta_session>
    1bac:	b9002fa0 	str	w0, [x29,#44]
/home/rex/devel/optee/optee_os/lib/libutee/tee_api.c:132
    1bb0:	b9402fa0 	ldr	w0, [x29,#44]
    1bb4:	7100001f 	cmp	w0, #0x0
    1bb8:	540001a0 	b.eq	1bec <TEE_CloseTASession+0x60>
/home/rex/devel/optee/optee_os/lib/libutee/tee_api.c:133
    1bbc:	d0000060 	adrp	x0, f000 <__func__.4113+0x18>
    1bc0:	9100a001 	add	x1, x0, #0x28
    1bc4:	d0000060 	adrp	x0, f000 <__func__.4113+0x18>
    1bc8:	9100e000 	add	x0, x0, #0x38
    1bcc:	b9402fa5 	ldr	w5, [x29,#44]
    1bd0:	aa0103e4 	mov	x4, x1
    1bd4:	52800023 	mov	w3, #0x1                   	// #1
    1bd8:	52800022 	mov	w2, #0x1                   	// #1
    1bdc:	528010a1 	mov	w1, #0x85                  	// #133
    1be0:	94001850 	bl	7d20 <trace_printf>
    1be4:	b9402fa0 	ldr	w0, [x29,#44]
    1be8:	940001a9 	bl	228c <__TEE_Panic>
/home/rex/devel/optee/optee_os/lib/libutee/tee_api.c:135
    1bec:	d503201f 	nop
    1bf0:	a8c37bfd 	ldp	x29, x30, [sp],#48
    1bf4:	d65f03c0 	ret

0000000000001bf8 <TEE_InvokeTACommand>:
TEE_InvokeTACommand():
/home/rex/devel/optee/optee_os/lib/libutee/tee_api.c:142
    1bf8:	a9b77bfd 	stp	x29, x30, [sp,#-144]!
    1bfc:	910003fd 	mov	x29, sp
    1c00:	f9001fa0 	str	x0, [x29,#56]
    1c04:	b90037a1 	str	w1, [x29,#52]
    1c08:	b90033a2 	str	w2, [x29,#48]
    1c0c:	b9002fa3 	str	w3, [x29,#44]
    1c10:	f90013a4 	str	x4, [x29,#32]
    1c14:	f9000fa5 	str	x5, [x29,#24]
/home/rex/devel/optee/optee_os/lib/libutee/tee_api.c:147
    1c18:	910103a0 	add	x0, x29, #0x40
    1c1c:	f94013a2 	ldr	x2, [x29,#32]
    1c20:	b9402fa1 	ldr	w1, [x29,#44]
    1c24:	97ffff03 	bl	1830 <__utee_from_param>
/home/rex/devel/optee/optee_os/lib/libutee/tee_api.c:148
    1c28:	f9401fa0 	ldr	x0, [x29,#56]
    1c2c:	b94037a1 	ldr	w1, [x29,#52]
    1c30:	b94033a2 	ldr	w2, [x29,#48]
    1c34:	910223a4 	add	x4, x29, #0x88
    1c38:	910103a3 	add	x3, x29, #0x40
    1c3c:	97fffab4 	bl	70c <utee_invoke_ta_command>
    1c40:	b9008fa0 	str	w0, [x29,#140]
/home/rex/devel/optee/optee_os/lib/libutee/tee_api.c:151
    1c44:	910103a0 	add	x0, x29, #0x40
    1c48:	aa0003e2 	mov	x2, x0
    1c4c:	d2800001 	mov	x1, #0x0                   	// #0
    1c50:	f94013a0 	ldr	x0, [x29,#32]
    1c54:	97ffff58 	bl	19b4 <__utee_to_param>
/home/rex/devel/optee/optee_os/lib/libutee/tee_api.c:153
    1c58:	f9400fa0 	ldr	x0, [x29,#24]
    1c5c:	f100001f 	cmp	x0, #0x0
    1c60:	54000080 	b.eq	1c70 <TEE_InvokeTACommand+0x78>
/home/rex/devel/optee/optee_os/lib/libutee/tee_api.c:154
    1c64:	b9408ba1 	ldr	w1, [x29,#136]
    1c68:	f9400fa0 	ldr	x0, [x29,#24]
    1c6c:	b9000001 	str	w1, [x0]
/home/rex/devel/optee/optee_os/lib/libutee/tee_api.c:156
    1c70:	b9408ba0 	ldr	w0, [x29,#136]
    1c74:	7100101f 	cmp	w0, #0x4
    1c78:	54000061 	b.ne	1c84 <TEE_InvokeTACommand+0x8c>
/home/rex/devel/optee/optee_os/lib/libutee/tee_api.c:157
    1c7c:	b9408fa0 	ldr	w0, [x29,#140]
    1c80:	14000019 	b	1ce4 <TEE_InvokeTACommand+0xec>
/home/rex/devel/optee/optee_os/lib/libutee/tee_api.c:159
    1c84:	b9408fa0 	ldr	w0, [x29,#140]
    1c88:	7100001f 	cmp	w0, #0x0
    1c8c:	540002a0 	b.eq	1ce0 <TEE_InvokeTACommand+0xe8>
/home/rex/devel/optee/optee_os/lib/libutee/tee_api.c:159 (discriminator 1)
    1c90:	b9408fa1 	ldr	w1, [x29,#140]
    1c94:	129ffe60 	mov	w0, #0xffff000c            	// #-65524
    1c98:	6b00003f 	cmp	w1, w0
    1c9c:	54000220 	b.eq	1ce0 <TEE_InvokeTACommand+0xe8>
/home/rex/devel/optee/optee_os/lib/libutee/tee_api.c:160
    1ca0:	b9408fa1 	ldr	w1, [x29,#140]
    1ca4:	1299fb60 	mov	w0, #0xffff3024            	// #-53212
    1ca8:	6b00003f 	cmp	w1, w0
    1cac:	540001a0 	b.eq	1ce0 <TEE_InvokeTACommand+0xe8>
/home/rex/devel/optee/optee_os/lib/libutee/tee_api.c:162
    1cb0:	d0000060 	adrp	x0, f000 <__func__.4113+0x18>
    1cb4:	9100a001 	add	x1, x0, #0x28
    1cb8:	d0000060 	adrp	x0, f000 <__func__.4113+0x18>
    1cbc:	91014000 	add	x0, x0, #0x50
    1cc0:	b9408fa5 	ldr	w5, [x29,#140]
    1cc4:	aa0103e4 	mov	x4, x1
    1cc8:	52800023 	mov	w3, #0x1                   	// #1
    1ccc:	52800022 	mov	w2, #0x1                   	// #1
    1cd0:	52801441 	mov	w1, #0xa2                  	// #162
    1cd4:	94001813 	bl	7d20 <trace_printf>
    1cd8:	b9408fa0 	ldr	w0, [x29,#140]
    1cdc:	9400016c 	bl	228c <__TEE_Panic>
/home/rex/devel/optee/optee_os/lib/libutee/tee_api.c:164
    1ce0:	b9408fa0 	ldr	w0, [x29,#140]
/home/rex/devel/optee/optee_os/lib/libutee/tee_api.c:165 (discriminator 1)
    1ce4:	a8c97bfd 	ldp	x29, x30, [sp],#144
    1ce8:	d65f03c0 	ret

0000000000001cec <TEE_GetCancellationFlag>:
TEE_GetCancellationFlag():
/home/rex/devel/optee/optee_os/lib/libutee/tee_api.c:170
    1cec:	a9be7bfd 	stp	x29, x30, [sp,#-32]!
    1cf0:	910003fd 	mov	x29, sp
/home/rex/devel/optee/optee_os/lib/libutee/tee_api.c:172
    1cf4:	910063a0 	add	x0, x29, #0x18
    1cf8:	97fffa88 	bl	718 <utee_get_cancellation_flag>
    1cfc:	b9001fa0 	str	w0, [x29,#28]
/home/rex/devel/optee/optee_os/lib/libutee/tee_api.c:174
    1d00:	b9401fa0 	ldr	w0, [x29,#28]
    1d04:	7100001f 	cmp	w0, #0x0
    1d08:	54000040 	b.eq	1d10 <TEE_GetCancellationFlag+0x24>
/home/rex/devel/optee/optee_os/lib/libutee/tee_api.c:175
    1d0c:	b9001bbf 	str	wzr, [x29,#24]
/home/rex/devel/optee/optee_os/lib/libutee/tee_api.c:176
    1d10:	b9401ba0 	ldr	w0, [x29,#24]
    1d14:	7100001f 	cmp	w0, #0x0
    1d18:	1a9f07e0 	cset	w0, ne
    1d1c:	12001c00 	and	w0, w0, #0xff
/home/rex/devel/optee/optee_os/lib/libutee/tee_api.c:177
    1d20:	a8c27bfd 	ldp	x29, x30, [sp],#32
    1d24:	d65f03c0 	ret

0000000000001d28 <TEE_UnmaskCancellation>:
TEE_UnmaskCancellation():
/home/rex/devel/optee/optee_os/lib/libutee/tee_api.c:180
    1d28:	a9be7bfd 	stp	x29, x30, [sp,#-32]!
    1d2c:	910003fd 	mov	x29, sp
/home/rex/devel/optee/optee_os/lib/libutee/tee_api.c:182
    1d30:	910063a0 	add	x0, x29, #0x18
    1d34:	97fffa7f 	bl	730 <utee_unmask_cancellation>
    1d38:	b9001fa0 	str	w0, [x29,#28]
/home/rex/devel/optee/optee_os/lib/libutee/tee_api.c:184
    1d3c:	b9401fa0 	ldr	w0, [x29,#28]
    1d40:	7100001f 	cmp	w0, #0x0
    1d44:	540001a0 	b.eq	1d78 <TEE_UnmaskCancellation+0x50>
/home/rex/devel/optee/optee_os/lib/libutee/tee_api.c:185
    1d48:	d0000060 	adrp	x0, f000 <__func__.4113+0x18>
    1d4c:	9100a001 	add	x1, x0, #0x28
    1d50:	d0000060 	adrp	x0, f000 <__func__.4113+0x18>
    1d54:	9101a000 	add	x0, x0, #0x68
    1d58:	b9401fa5 	ldr	w5, [x29,#28]
    1d5c:	aa0103e4 	mov	x4, x1
    1d60:	52800023 	mov	w3, #0x1                   	// #1
    1d64:	52800022 	mov	w2, #0x1                   	// #1
    1d68:	52801721 	mov	w1, #0xb9                  	// #185
    1d6c:	940017ed 	bl	7d20 <trace_printf>
    1d70:	b9401fa0 	ldr	w0, [x29,#28]
    1d74:	94000146 	bl	228c <__TEE_Panic>
/home/rex/devel/optee/optee_os/lib/libutee/tee_api.c:186
    1d78:	b9401ba0 	ldr	w0, [x29,#24]
    1d7c:	7100001f 	cmp	w0, #0x0
    1d80:	1a9f07e0 	cset	w0, ne
    1d84:	12001c00 	and	w0, w0, #0xff
/home/rex/devel/optee/optee_os/lib/libutee/tee_api.c:187
    1d88:	a8c27bfd 	ldp	x29, x30, [sp],#32
    1d8c:	d65f03c0 	ret

0000000000001d90 <TEE_MaskCancellation>:
TEE_MaskCancellation():
/home/rex/devel/optee/optee_os/lib/libutee/tee_api.c:190
    1d90:	a9be7bfd 	stp	x29, x30, [sp,#-32]!
    1d94:	910003fd 	mov	x29, sp
/home/rex/devel/optee/optee_os/lib/libutee/tee_api.c:192
    1d98:	910063a0 	add	x0, x29, #0x18
    1d9c:	97fffa68 	bl	73c <utee_mask_cancellation>
    1da0:	b9001fa0 	str	w0, [x29,#28]
/home/rex/devel/optee/optee_os/lib/libutee/tee_api.c:194
    1da4:	b9401fa0 	ldr	w0, [x29,#28]
    1da8:	7100001f 	cmp	w0, #0x0
    1dac:	540001a0 	b.eq	1de0 <TEE_MaskCancellation+0x50>
/home/rex/devel/optee/optee_os/lib/libutee/tee_api.c:195
    1db0:	d0000060 	adrp	x0, f000 <__func__.4113+0x18>
    1db4:	9100a001 	add	x1, x0, #0x28
    1db8:	d0000060 	adrp	x0, f000 <__func__.4113+0x18>
    1dbc:	91020000 	add	x0, x0, #0x80
    1dc0:	b9401fa5 	ldr	w5, [x29,#28]
    1dc4:	aa0103e4 	mov	x4, x1
    1dc8:	52800023 	mov	w3, #0x1                   	// #1
    1dcc:	52800022 	mov	w2, #0x1                   	// #1
    1dd0:	52801861 	mov	w1, #0xc3                  	// #195
    1dd4:	940017d3 	bl	7d20 <trace_printf>
    1dd8:	b9401fa0 	ldr	w0, [x29,#28]
    1ddc:	9400012c 	bl	228c <__TEE_Panic>
/home/rex/devel/optee/optee_os/lib/libutee/tee_api.c:196
    1de0:	b9401ba0 	ldr	w0, [x29,#24]
    1de4:	7100001f 	cmp	w0, #0x0
    1de8:	1a9f07e0 	cset	w0, ne
    1dec:	12001c00 	and	w0, w0, #0xff
/home/rex/devel/optee/optee_os/lib/libutee/tee_api.c:197
    1df0:	a8c27bfd 	ldp	x29, x30, [sp],#32
    1df4:	d65f03c0 	ret

0000000000001df8 <TEE_CheckMemoryAccessRights>:
TEE_CheckMemoryAccessRights():
/home/rex/devel/optee/optee_os/lib/libutee/tee_api.c:203
    1df8:	a9bd7bfd 	stp	x29, x30, [sp,#-48]!
    1dfc:	910003fd 	mov	x29, sp
    1e00:	b9001fa0 	str	w0, [x29,#28]
    1e04:	f9000ba1 	str	x1, [x29,#16]
    1e08:	b9001ba2 	str	w2, [x29,#24]
/home/rex/devel/optee/optee_os/lib/libutee/tee_api.c:206
    1e0c:	b9401ba0 	ldr	w0, [x29,#24]
    1e10:	7100001f 	cmp	w0, #0x0
    1e14:	54000061 	b.ne	1e20 <TEE_CheckMemoryAccessRights+0x28>
/home/rex/devel/optee/optee_os/lib/libutee/tee_api.c:207
    1e18:	52800000 	mov	w0, #0x0                   	// #0
    1e1c:	1400000e 	b	1e54 <TEE_CheckMemoryAccessRights+0x5c>
/home/rex/devel/optee/optee_os/lib/libutee/tee_api.c:210
    1e20:	b9401ba0 	ldr	w0, [x29,#24]
    1e24:	aa0003e2 	mov	x2, x0
    1e28:	f9400ba1 	ldr	x1, [x29,#16]
    1e2c:	b9401fa0 	ldr	w0, [x29,#28]
    1e30:	97fffa3d 	bl	724 <utee_check_access_rights>
    1e34:	b9002fa0 	str	w0, [x29,#44]
/home/rex/devel/optee/optee_os/lib/libutee/tee_api.c:211
    1e38:	b9402fa0 	ldr	w0, [x29,#44]
    1e3c:	7100001f 	cmp	w0, #0x0
    1e40:	54000061 	b.ne	1e4c <TEE_CheckMemoryAccessRights+0x54>
/home/rex/devel/optee/optee_os/lib/libutee/tee_api.c:219
    1e44:	b9002fbf 	str	wzr, [x29,#44]
    1e48:	14000002 	b	1e50 <TEE_CheckMemoryAccessRights+0x58>
/home/rex/devel/optee/optee_os/lib/libutee/tee_api.c:212
    1e4c:	d503201f 	nop
/home/rex/devel/optee/optee_os/lib/libutee/tee_api.c:221
    1e50:	b9402fa0 	ldr	w0, [x29,#44]
/home/rex/devel/optee/optee_os/lib/libutee/tee_api.c:222
    1e54:	a8c37bfd 	ldp	x29, x30, [sp],#48
    1e58:	d65f03c0 	ret

0000000000001e5c <TEE_SetInstanceData>:
TEE_SetInstanceData():
/home/rex/devel/optee/optee_os/lib/libutee/tee_api.c:225
    1e5c:	d10043ff 	sub	sp, sp, #0x10
    1e60:	f90007e0 	str	x0, [sp,#8]
/home/rex/devel/optee/optee_os/lib/libutee/tee_api.c:226
    1e64:	b00000c0 	adrp	x0, 1a000 <mempool_u32+0xe80>
    1e68:	91330000 	add	x0, x0, #0xcc0
    1e6c:	f94007e1 	ldr	x1, [sp,#8]
    1e70:	f9000001 	str	x1, [x0]
/home/rex/devel/optee/optee_os/lib/libutee/tee_api.c:227
    1e74:	d503201f 	nop
    1e78:	910043ff 	add	sp, sp, #0x10
    1e7c:	d65f03c0 	ret

0000000000001e80 <TEE_GetInstanceData>:
TEE_GetInstanceData():
/home/rex/devel/optee/optee_os/lib/libutee/tee_api.c:231
    1e80:	b00000c0 	adrp	x0, 1a000 <mempool_u32+0xe80>
    1e84:	91330000 	add	x0, x0, #0xcc0
    1e88:	f9400000 	ldr	x0, [x0]
/home/rex/devel/optee/optee_os/lib/libutee/tee_api.c:232
    1e8c:	d65f03c0 	ret

0000000000001e90 <TEE_MemMove>:
TEE_MemMove():
/home/rex/devel/optee/optee_os/lib/libutee/tee_api.c:235
    1e90:	a9bd7bfd 	stp	x29, x30, [sp,#-48]!
    1e94:	910003fd 	mov	x29, sp
    1e98:	f90017a0 	str	x0, [x29,#40]
    1e9c:	f90013a1 	str	x1, [x29,#32]
    1ea0:	b9001fa2 	str	w2, [x29,#28]
/home/rex/devel/optee/optee_os/lib/libutee/tee_api.c:236
    1ea4:	b9401fa0 	ldr	w0, [x29,#28]
    1ea8:	aa0003e2 	mov	x2, x0
    1eac:	f94013a1 	ldr	x1, [x29,#32]
    1eb0:	f94017a0 	ldr	x0, [x29,#40]
    1eb4:	94000db0 	bl	5574 <memmove>
/home/rex/devel/optee/optee_os/lib/libutee/tee_api.c:237
    1eb8:	a8c37bfd 	ldp	x29, x30, [sp],#48
    1ebc:	d65f03c0 	ret

0000000000001ec0 <TEE_MemCompare>:
TEE_MemCompare():
/home/rex/devel/optee/optee_os/lib/libutee/tee_api.c:240
    1ec0:	a9bd7bfd 	stp	x29, x30, [sp,#-48]!
    1ec4:	910003fd 	mov	x29, sp
    1ec8:	f90017a0 	str	x0, [x29,#40]
    1ecc:	f90013a1 	str	x1, [x29,#32]
    1ed0:	b9001fa2 	str	w2, [x29,#28]
/home/rex/devel/optee/optee_os/lib/libutee/tee_api.c:241
    1ed4:	b9401fa0 	ldr	w0, [x29,#28]
    1ed8:	aa0003e2 	mov	x2, x0
    1edc:	f94013a1 	ldr	x1, [x29,#32]
    1ee0:	f94017a0 	ldr	x0, [x29,#40]
    1ee4:	94000cfa 	bl	52cc <memcmp>
/home/rex/devel/optee/optee_os/lib/libutee/tee_api.c:242
    1ee8:	a8c37bfd 	ldp	x29, x30, [sp],#48
    1eec:	d65f03c0 	ret

0000000000001ef0 <TEE_MemFill>:
TEE_MemFill():
/home/rex/devel/optee/optee_os/lib/libutee/tee_api.c:245
    1ef0:	a9be7bfd 	stp	x29, x30, [sp,#-32]!
    1ef4:	910003fd 	mov	x29, sp
    1ef8:	f9000fa0 	str	x0, [x29,#24]
    1efc:	b90017a1 	str	w1, [x29,#20]
    1f00:	b90013a2 	str	w2, [x29,#16]
/home/rex/devel/optee/optee_os/lib/libutee/tee_api.c:246
    1f04:	b94017a0 	ldr	w0, [x29,#20]
    1f08:	b94013a1 	ldr	w1, [x29,#16]
    1f0c:	aa0103e2 	mov	x2, x1
    1f10:	2a0003e1 	mov	w1, w0
    1f14:	f9400fa0 	ldr	x0, [x29,#24]
    1f18:	94000e1a 	bl	5780 <memset>
/home/rex/devel/optee/optee_os/lib/libutee/tee_api.c:247
    1f1c:	a8c27bfd 	ldp	x29, x30, [sp],#32
    1f20:	d65f03c0 	ret

0000000000001f24 <TEE_GetSystemTime>:
TEE_GetSystemTime():
/home/rex/devel/optee/optee_os/lib/libutee/tee_api.c:252
    1f24:	a9bd7bfd 	stp	x29, x30, [sp,#-48]!
    1f28:	910003fd 	mov	x29, sp
    1f2c:	f9000fa0 	str	x0, [x29,#24]
/home/rex/devel/optee/optee_os/lib/libutee/tee_api.c:253
    1f30:	f9400fa1 	ldr	x1, [x29,#24]
    1f34:	d2800000 	mov	x0, #0x0                   	// #0
    1f38:	97fffa07 	bl	754 <utee_get_time>
    1f3c:	b9002fa0 	str	w0, [x29,#44]
/home/rex/devel/optee/optee_os/lib/libutee/tee_api.c:255
    1f40:	b9402fa0 	ldr	w0, [x29,#44]
    1f44:	7100001f 	cmp	w0, #0x0
    1f48:	540001a0 	b.eq	1f7c <TEE_GetSystemTime+0x58>
/home/rex/devel/optee/optee_os/lib/libutee/tee_api.c:256
    1f4c:	d0000060 	adrp	x0, f000 <__func__.4113+0x18>
    1f50:	9100a001 	add	x1, x0, #0x28
    1f54:	d0000060 	adrp	x0, f000 <__func__.4113+0x18>
    1f58:	91026000 	add	x0, x0, #0x98
    1f5c:	b9402fa5 	ldr	w5, [x29,#44]
    1f60:	aa0103e4 	mov	x4, x1
    1f64:	52800023 	mov	w3, #0x1                   	// #1
    1f68:	52800022 	mov	w2, #0x1                   	// #1
    1f6c:	52802001 	mov	w1, #0x100                 	// #256
    1f70:	9400176c 	bl	7d20 <trace_printf>
    1f74:	b9402fa0 	ldr	w0, [x29,#44]
    1f78:	940000c5 	bl	228c <__TEE_Panic>
/home/rex/devel/optee/optee_os/lib/libutee/tee_api.c:257
    1f7c:	d503201f 	nop
    1f80:	a8c37bfd 	ldp	x29, x30, [sp],#48
    1f84:	d65f03c0 	ret

0000000000001f88 <TEE_Wait>:
TEE_Wait():
/home/rex/devel/optee/optee_os/lib/libutee/tee_api.c:260
    1f88:	a9bd7bfd 	stp	x29, x30, [sp,#-48]!
    1f8c:	910003fd 	mov	x29, sp
    1f90:	b9001fa0 	str	w0, [x29,#28]
/home/rex/devel/optee/optee_os/lib/libutee/tee_api.c:261
    1f94:	b9401fa0 	ldr	w0, [x29,#28]
    1f98:	97fff9ec 	bl	748 <utee_wait>
    1f9c:	b9002fa0 	str	w0, [x29,#44]
/home/rex/devel/optee/optee_os/lib/libutee/tee_api.c:263
    1fa0:	b9402fa0 	ldr	w0, [x29,#44]
    1fa4:	7100001f 	cmp	w0, #0x0
    1fa8:	54000220 	b.eq	1fec <TEE_Wait+0x64>
/home/rex/devel/optee/optee_os/lib/libutee/tee_api.c:263 (discriminator 1)
    1fac:	b9402fa1 	ldr	w1, [x29,#44]
    1fb0:	129fffa0 	mov	w0, #0xffff0002            	// #-65534
    1fb4:	6b00003f 	cmp	w1, w0
    1fb8:	540001a0 	b.eq	1fec <TEE_Wait+0x64>
/home/rex/devel/optee/optee_os/lib/libutee/tee_api.c:264
    1fbc:	d0000060 	adrp	x0, f000 <__func__.4113+0x18>
    1fc0:	9100a001 	add	x1, x0, #0x28
    1fc4:	d0000060 	adrp	x0, f000 <__func__.4113+0x18>
    1fc8:	9102c000 	add	x0, x0, #0xb0
    1fcc:	b9402fa5 	ldr	w5, [x29,#44]
    1fd0:	aa0103e4 	mov	x4, x1
    1fd4:	52800023 	mov	w3, #0x1                   	// #1
    1fd8:	52800022 	mov	w2, #0x1                   	// #1
    1fdc:	52802101 	mov	w1, #0x108                 	// #264
    1fe0:	94001750 	bl	7d20 <trace_printf>
    1fe4:	b9402fa0 	ldr	w0, [x29,#44]
    1fe8:	940000a9 	bl	228c <__TEE_Panic>
/home/rex/devel/optee/optee_os/lib/libutee/tee_api.c:266
    1fec:	b9402fa0 	ldr	w0, [x29,#44]
/home/rex/devel/optee/optee_os/lib/libutee/tee_api.c:267
    1ff0:	a8c37bfd 	ldp	x29, x30, [sp],#48
    1ff4:	d65f03c0 	ret

0000000000001ff8 <TEE_GetTAPersistentTime>:
TEE_GetTAPersistentTime():
/home/rex/devel/optee/optee_os/lib/libutee/tee_api.c:270
    1ff8:	a9bd7bfd 	stp	x29, x30, [sp,#-48]!
    1ffc:	910003fd 	mov	x29, sp
    2000:	f9000fa0 	str	x0, [x29,#24]
/home/rex/devel/optee/optee_os/lib/libutee/tee_api.c:273
    2004:	f9400fa1 	ldr	x1, [x29,#24]
    2008:	d2800020 	mov	x0, #0x1                   	// #1
    200c:	97fff9d2 	bl	754 <utee_get_time>
    2010:	b9002fa0 	str	w0, [x29,#44]
/home/rex/devel/optee/optee_os/lib/libutee/tee_api.c:275
    2014:	b9402fa0 	ldr	w0, [x29,#44]
    2018:	7100001f 	cmp	w0, #0x0
    201c:	54000120 	b.eq	2040 <TEE_GetTAPersistentTime+0x48>
/home/rex/devel/optee/optee_os/lib/libutee/tee_api.c:275 (discriminator 1)
    2020:	b9402fa1 	ldr	w1, [x29,#44]
    2024:	1299fe00 	mov	w0, #0xffff300f            	// #-53233
    2028:	6b00003f 	cmp	w1, w0
    202c:	540000a0 	b.eq	2040 <TEE_GetTAPersistentTime+0x48>
/home/rex/devel/optee/optee_os/lib/libutee/tee_api.c:276
    2030:	f9400fa0 	ldr	x0, [x29,#24]
    2034:	b900001f 	str	wzr, [x0]
/home/rex/devel/optee/optee_os/lib/libutee/tee_api.c:277
    2038:	f9400fa0 	ldr	x0, [x29,#24]
    203c:	b900041f 	str	wzr, [x0,#4]
/home/rex/devel/optee/optee_os/lib/libutee/tee_api.c:280
    2040:	b9402fa0 	ldr	w0, [x29,#44]
    2044:	7100001f 	cmp	w0, #0x0
    2048:	54000380 	b.eq	20b8 <TEE_GetTAPersistentTime+0xc0>
/home/rex/devel/optee/optee_os/lib/libutee/tee_api.c:280 (discriminator 1)
    204c:	b9402fa0 	ldr	w0, [x29,#44]
    2050:	31402c1f 	cmn	w0, #0xb, lsl #12
    2054:	54000320 	b.eq	20b8 <TEE_GetTAPersistentTime+0xc0>
/home/rex/devel/optee/optee_os/lib/libutee/tee_api.c:281
    2058:	b9402fa1 	ldr	w1, [x29,#44]
    205c:	1295ffc0 	mov	w0, #0xffff5001            	// #-45055
    2060:	6b00003f 	cmp	w1, w0
    2064:	540002a0 	b.eq	20b8 <TEE_GetTAPersistentTime+0xc0>
/home/rex/devel/optee/optee_os/lib/libutee/tee_api.c:282
    2068:	b9402fa1 	ldr	w1, [x29,#44]
    206c:	1299fe00 	mov	w0, #0xffff300f            	// #-53233
    2070:	6b00003f 	cmp	w1, w0
    2074:	54000220 	b.eq	20b8 <TEE_GetTAPersistentTime+0xc0>
/home/rex/devel/optee/optee_os/lib/libutee/tee_api.c:283
    2078:	b9402fa1 	ldr	w1, [x29,#44]
    207c:	129ffe60 	mov	w0, #0xffff000c            	// #-65524
    2080:	6b00003f 	cmp	w1, w0
    2084:	540001a0 	b.eq	20b8 <TEE_GetTAPersistentTime+0xc0>
/home/rex/devel/optee/optee_os/lib/libutee/tee_api.c:285
    2088:	b0000060 	adrp	x0, f000 <__func__.4113+0x18>
    208c:	9100a001 	add	x1, x0, #0x28
    2090:	b0000060 	adrp	x0, f000 <__func__.4113+0x18>
    2094:	91030000 	add	x0, x0, #0xc0
    2098:	b9402fa5 	ldr	w5, [x29,#44]
    209c:	aa0103e4 	mov	x4, x1
    20a0:	52800023 	mov	w3, #0x1                   	// #1
    20a4:	52800022 	mov	w2, #0x1                   	// #1
    20a8:	528023a1 	mov	w1, #0x11d                 	// #285
    20ac:	9400171d 	bl	7d20 <trace_printf>
    20b0:	b9402fa0 	ldr	w0, [x29,#44]
    20b4:	94000076 	bl	228c <__TEE_Panic>
/home/rex/devel/optee/optee_os/lib/libutee/tee_api.c:287
    20b8:	b9402fa0 	ldr	w0, [x29,#44]
/home/rex/devel/optee/optee_os/lib/libutee/tee_api.c:288
    20bc:	a8c37bfd 	ldp	x29, x30, [sp],#48
    20c0:	d65f03c0 	ret

00000000000020c4 <TEE_SetTAPersistentTime>:
TEE_SetTAPersistentTime():
/home/rex/devel/optee/optee_os/lib/libutee/tee_api.c:291
    20c4:	a9bd7bfd 	stp	x29, x30, [sp,#-48]!
    20c8:	910003fd 	mov	x29, sp
    20cc:	f9000fa0 	str	x0, [x29,#24]
/home/rex/devel/optee/optee_os/lib/libutee/tee_api.c:294
    20d0:	f9400fa0 	ldr	x0, [x29,#24]
    20d4:	97fff9a3 	bl	760 <utee_set_ta_time>
    20d8:	b9002fa0 	str	w0, [x29,#44]
/home/rex/devel/optee/optee_os/lib/libutee/tee_api.c:296
    20dc:	b9402fa0 	ldr	w0, [x29,#44]
    20e0:	7100001f 	cmp	w0, #0x0
    20e4:	540002a0 	b.eq	2138 <TEE_SetTAPersistentTime+0x74>
/home/rex/devel/optee/optee_os/lib/libutee/tee_api.c:296 (discriminator 1)
    20e8:	b9402fa1 	ldr	w1, [x29,#44]
    20ec:	129ffe60 	mov	w0, #0xffff000c            	// #-65524
    20f0:	6b00003f 	cmp	w1, w0
    20f4:	54000220 	b.eq	2138 <TEE_SetTAPersistentTime+0x74>
/home/rex/devel/optee/optee_os/lib/libutee/tee_api.c:297
    20f8:	b9402fa1 	ldr	w1, [x29,#44]
    20fc:	1299f7c0 	mov	w0, #0xffff3041            	// #-53183
    2100:	6b00003f 	cmp	w1, w0
    2104:	540001a0 	b.eq	2138 <TEE_SetTAPersistentTime+0x74>
/home/rex/devel/optee/optee_os/lib/libutee/tee_api.c:299
    2108:	b0000060 	adrp	x0, f000 <__func__.4113+0x18>
    210c:	9100a001 	add	x1, x0, #0x28
    2110:	b0000060 	adrp	x0, f000 <__func__.4113+0x18>
    2114:	91036000 	add	x0, x0, #0xd8
    2118:	b9402fa5 	ldr	w5, [x29,#44]
    211c:	aa0103e4 	mov	x4, x1
    2120:	52800023 	mov	w3, #0x1                   	// #1
    2124:	52800022 	mov	w2, #0x1                   	// #1
    2128:	52802561 	mov	w1, #0x12b                 	// #299
    212c:	940016fd 	bl	7d20 <trace_printf>
    2130:	b9402fa0 	ldr	w0, [x29,#44]
    2134:	94000056 	bl	228c <__TEE_Panic>
/home/rex/devel/optee/optee_os/lib/libutee/tee_api.c:301
    2138:	b9402fa0 	ldr	w0, [x29,#44]
/home/rex/devel/optee/optee_os/lib/libutee/tee_api.c:302
    213c:	a8c37bfd 	ldp	x29, x30, [sp],#48
    2140:	d65f03c0 	ret

0000000000002144 <TEE_GetREETime>:
TEE_GetREETime():
/home/rex/devel/optee/optee_os/lib/libutee/tee_api.c:305
    2144:	a9bd7bfd 	stp	x29, x30, [sp,#-48]!
    2148:	910003fd 	mov	x29, sp
    214c:	f9000fa0 	str	x0, [x29,#24]
/home/rex/devel/optee/optee_os/lib/libutee/tee_api.c:306
    2150:	f9400fa1 	ldr	x1, [x29,#24]
    2154:	d2800040 	mov	x0, #0x2                   	// #2
    2158:	97fff97f 	bl	754 <utee_get_time>
    215c:	b9002fa0 	str	w0, [x29,#44]
/home/rex/devel/optee/optee_os/lib/libutee/tee_api.c:308
    2160:	b9402fa0 	ldr	w0, [x29,#44]
    2164:	7100001f 	cmp	w0, #0x0
    2168:	540001a0 	b.eq	219c <TEE_GetREETime+0x58>
/home/rex/devel/optee/optee_os/lib/libutee/tee_api.c:309
    216c:	b0000060 	adrp	x0, f000 <__func__.4113+0x18>
    2170:	9100a001 	add	x1, x0, #0x28
    2174:	b0000060 	adrp	x0, f000 <__func__.4113+0x18>
    2178:	9103c000 	add	x0, x0, #0xf0
    217c:	b9402fa5 	ldr	w5, [x29,#44]
    2180:	aa0103e4 	mov	x4, x1
    2184:	52800023 	mov	w3, #0x1                   	// #1
    2188:	52800022 	mov	w2, #0x1                   	// #1
    218c:	528026a1 	mov	w1, #0x135                 	// #309
    2190:	940016e4 	bl	7d20 <trace_printf>
    2194:	b9402fa0 	ldr	w0, [x29,#44]
    2198:	9400003d 	bl	228c <__TEE_Panic>
/home/rex/devel/optee/optee_os/lib/libutee/tee_api.c:310
    219c:	d503201f 	nop
    21a0:	a8c37bfd 	ldp	x29, x30, [sp],#48
    21a4:	d65f03c0 	ret

00000000000021a8 <TEE_Malloc>:
TEE_Malloc():
/home/rex/devel/optee/optee_os/lib/libutee/tee_api.c:313
    21a8:	a9be7bfd 	stp	x29, x30, [sp,#-32]!
    21ac:	910003fd 	mov	x29, sp
    21b0:	b9001fa0 	str	w0, [x29,#28]
    21b4:	b9001ba1 	str	w1, [x29,#24]
/home/rex/devel/optee/optee_os/lib/libutee/tee_api.c:314
    21b8:	b9401fa0 	ldr	w0, [x29,#28]
    21bc:	b9401ba1 	ldr	w1, [x29,#24]
    21c0:	94000189 	bl	27e4 <tee_user_mem_alloc>
/home/rex/devel/optee/optee_os/lib/libutee/tee_api.c:315
    21c4:	a8c27bfd 	ldp	x29, x30, [sp],#32
    21c8:	d65f03c0 	ret

00000000000021cc <TEE_Realloc>:
TEE_Realloc():
/home/rex/devel/optee/optee_os/lib/libutee/tee_api.c:318
    21cc:	a9be7bfd 	stp	x29, x30, [sp,#-32]!
    21d0:	910003fd 	mov	x29, sp
    21d4:	f9000fa0 	str	x0, [x29,#24]
    21d8:	b90017a1 	str	w1, [x29,#20]
/home/rex/devel/optee/optee_os/lib/libutee/tee_api.c:323
    21dc:	b94017a0 	ldr	w0, [x29,#20]
    21e0:	aa0003e1 	mov	x1, x0
    21e4:	f9400fa0 	ldr	x0, [x29,#24]
    21e8:	940001f3 	bl	29b4 <tee_user_mem_realloc>
/home/rex/devel/optee/optee_os/lib/libutee/tee_api.c:324
    21ec:	a8c27bfd 	ldp	x29, x30, [sp],#32
    21f0:	d65f03c0 	ret

00000000000021f4 <TEE_Free>:
TEE_Free():
/home/rex/devel/optee/optee_os/lib/libutee/tee_api.c:327
    21f4:	a9be7bfd 	stp	x29, x30, [sp,#-32]!
    21f8:	910003fd 	mov	x29, sp
    21fc:	f9000fa0 	str	x0, [x29,#24]
/home/rex/devel/optee/optee_os/lib/libutee/tee_api.c:328
    2200:	f9400fa0 	ldr	x0, [x29,#24]
    2204:	94000230 	bl	2ac4 <tee_user_mem_free>
/home/rex/devel/optee/optee_os/lib/libutee/tee_api.c:329
    2208:	d503201f 	nop
    220c:	a8c27bfd 	ldp	x29, x30, [sp],#32
    2210:	d65f03c0 	ret

0000000000002214 <TEE_CacheClean>:
TEE_CacheClean():
/home/rex/devel/optee/optee_os/lib/libutee/tee_api.c:333
    2214:	a9be7bfd 	stp	x29, x30, [sp,#-32]!
    2218:	910003fd 	mov	x29, sp
    221c:	f9000fa0 	str	x0, [x29,#24]
    2220:	f9000ba1 	str	x1, [x29,#16]
/home/rex/devel/optee/optee_os/lib/libutee/tee_api.c:334
    2224:	d2800002 	mov	x2, #0x0                   	// #0
    2228:	f9400ba1 	ldr	x1, [x29,#16]
    222c:	f9400fa0 	ldr	x0, [x29,#24]
    2230:	97fff9f4 	bl	a00 <utee_cache_operation>
/home/rex/devel/optee/optee_os/lib/libutee/tee_api.c:335
    2234:	a8c27bfd 	ldp	x29, x30, [sp],#32
    2238:	d65f03c0 	ret

000000000000223c <TEE_CacheFlush>:
TEE_CacheFlush():
/home/rex/devel/optee/optee_os/lib/libutee/tee_api.c:337
    223c:	a9be7bfd 	stp	x29, x30, [sp,#-32]!
    2240:	910003fd 	mov	x29, sp
    2244:	f9000fa0 	str	x0, [x29,#24]
    2248:	f9000ba1 	str	x1, [x29,#16]
/home/rex/devel/optee/optee_os/lib/libutee/tee_api.c:338
    224c:	d2800022 	mov	x2, #0x1                   	// #1
    2250:	f9400ba1 	ldr	x1, [x29,#16]
    2254:	f9400fa0 	ldr	x0, [x29,#24]
    2258:	97fff9ea 	bl	a00 <utee_cache_operation>
/home/rex/devel/optee/optee_os/lib/libutee/tee_api.c:339
    225c:	a8c27bfd 	ldp	x29, x30, [sp],#32
    2260:	d65f03c0 	ret

0000000000002264 <TEE_CacheInvalidate>:
TEE_CacheInvalidate():
/home/rex/devel/optee/optee_os/lib/libutee/tee_api.c:342
    2264:	a9be7bfd 	stp	x29, x30, [sp,#-32]!
    2268:	910003fd 	mov	x29, sp
    226c:	f9000fa0 	str	x0, [x29,#24]
    2270:	f9000ba1 	str	x1, [x29,#16]
/home/rex/devel/optee/optee_os/lib/libutee/tee_api.c:343
    2274:	d2800042 	mov	x2, #0x2                   	// #2
    2278:	f9400ba1 	ldr	x1, [x29,#16]
    227c:	f9400fa0 	ldr	x0, [x29,#24]
    2280:	97fff9e0 	bl	a00 <utee_cache_operation>
/home/rex/devel/optee/optee_os/lib/libutee/tee_api.c:344
    2284:	a8c27bfd 	ldp	x29, x30, [sp],#32
    2288:	d65f03c0 	ret

000000000000228c <__TEE_Panic>:
__TEE_Panic():
/home/rex/devel/optee/optee_os/lib/libutee/tee_api_panic.c:35
    228c:	a9be7bfd 	stp	x29, x30, [sp,#-32]!
    2290:	910003fd 	mov	x29, sp
    2294:	b9001fa0 	str	w0, [x29,#28]
/home/rex/devel/optee/optee_os/lib/libutee/tee_api_panic.c:36
    2298:	b9401fa0 	ldr	w0, [x29,#28]
    229c:	97fff90d 	bl	6d0 <utee_panic>

00000000000022a0 <TEE_Panic>:
TEE_Panic():
/home/rex/devel/optee/optee_os/lib/libutee/tee_api_panic.c:40
    22a0:	a9be7bfd 	stp	x29, x30, [sp,#-32]!
    22a4:	910003fd 	mov	x29, sp
    22a8:	b9001fa0 	str	w0, [x29,#28]
/home/rex/devel/optee/optee_os/lib/libutee/tee_api_panic.c:41
    22ac:	b9401fa0 	ldr	w0, [x29,#28]
    22b0:	97fffff7 	bl	228c <__TEE_Panic>

00000000000022b4 <utee_get_ta_exec_id>:
utee_get_ta_exec_id():
/home/rex/devel/optee/optee_os/lib/libutee/arch/arm/utee_misc.c:38
    22b4:	52800000 	mov	w0, #0x0                   	// #0
/home/rex/devel/optee/optee_os/lib/libutee/arch/arm/utee_misc.c:39
    22b8:	d65f03c0 	ret

00000000000022bc <utee_malloc>:
utee_malloc():
/home/rex/devel/optee/optee_os/lib/libutee/arch/arm/utee_misc.c:43
    22bc:	a9be7bfd 	stp	x29, x30, [sp,#-32]!
    22c0:	910003fd 	mov	x29, sp
    22c4:	f9000fa0 	str	x0, [x29,#24]
/home/rex/devel/optee/optee_os/lib/libutee/arch/arm/utee_misc.c:44
    22c8:	f9400fa0 	ldr	x0, [x29,#24]
    22cc:	94000a54 	bl	4c1c <malloc>
/home/rex/devel/optee/optee_os/lib/libutee/arch/arm/utee_misc.c:45
    22d0:	a8c27bfd 	ldp	x29, x30, [sp],#32
    22d4:	d65f03c0 	ret

00000000000022d8 <utee_realloc>:
utee_realloc():
/home/rex/devel/optee/optee_os/lib/libutee/arch/arm/utee_misc.c:48
    22d8:	a9be7bfd 	stp	x29, x30, [sp,#-32]!
    22dc:	910003fd 	mov	x29, sp
    22e0:	f9000fa0 	str	x0, [x29,#24]
    22e4:	f9000ba1 	str	x1, [x29,#16]
/home/rex/devel/optee/optee_os/lib/libutee/arch/arm/utee_misc.c:49
    22e8:	f9400ba1 	ldr	x1, [x29,#16]
    22ec:	f9400fa0 	ldr	x0, [x29,#24]
    22f0:	94000a82 	bl	4cf8 <realloc>
/home/rex/devel/optee/optee_os/lib/libutee/arch/arm/utee_misc.c:50
    22f4:	a8c27bfd 	ldp	x29, x30, [sp],#32
    22f8:	d65f03c0 	ret

00000000000022fc <utee_calloc>:
utee_calloc():
/home/rex/devel/optee/optee_os/lib/libutee/arch/arm/utee_misc.c:53
    22fc:	a9be7bfd 	stp	x29, x30, [sp,#-32]!
    2300:	910003fd 	mov	x29, sp
    2304:	f9000fa0 	str	x0, [x29,#24]
    2308:	f9000ba1 	str	x1, [x29,#16]
/home/rex/devel/optee/optee_os/lib/libutee/arch/arm/utee_misc.c:54
    230c:	f9400fa1 	ldr	x1, [x29,#24]
    2310:	f9400ba0 	ldr	x0, [x29,#16]
    2314:	94000a5d 	bl	4c88 <calloc>
/home/rex/devel/optee/optee_os/lib/libutee/arch/arm/utee_misc.c:55
    2318:	a8c27bfd 	ldp	x29, x30, [sp],#32
    231c:	d65f03c0 	ret

0000000000002320 <utee_free>:
utee_free():
/home/rex/devel/optee/optee_os/lib/libutee/arch/arm/utee_misc.c:58
    2320:	a9be7bfd 	stp	x29, x30, [sp,#-32]!
    2324:	910003fd 	mov	x29, sp
    2328:	f9000fa0 	str	x0, [x29,#24]
/home/rex/devel/optee/optee_os/lib/libutee/arch/arm/utee_misc.c:59
    232c:	f9400fa0 	ldr	x0, [x29,#24]
    2330:	94000a4a 	bl	4c58 <free>
/home/rex/devel/optee/optee_os/lib/libutee/arch/arm/utee_misc.c:60
    2334:	d503201f 	nop
    2338:	a8c27bfd 	ldp	x29, x30, [sp],#32
    233c:	d65f03c0 	ret

0000000000002340 <get_rng_array>:
get_rng_array():
/home/rex/devel/optee/optee_os/lib/libutee/arch/arm/utee_misc.c:70
    2340:	a9be7bfd 	stp	x29, x30, [sp,#-32]!
    2344:	910003fd 	mov	x29, sp
    2348:	f9000fa0 	str	x0, [x29,#24]
    234c:	f9000ba1 	str	x1, [x29,#16]
/home/rex/devel/optee/optee_os/lib/libutee/arch/arm/utee_misc.c:71
    2350:	f9400ba1 	ldr	x1, [x29,#16]
    2354:	f9400fa0 	ldr	x0, [x29,#24]
    2358:	97fff93b 	bl	844 <utee_cryp_random_number_generate>
/home/rex/devel/optee/optee_os/lib/libutee/arch/arm/utee_misc.c:72
    235c:	a8c27bfd 	ldp	x29, x30, [sp],#32
    2360:	d65f03c0 	ret

0000000000002364 <buf_addr>:
buf_addr():
/home/rex/devel/optee/optee_os/lib/libutee/tee_user_mem.c:130
    2364:	d10043ff 	sub	sp, sp, #0x10
    2368:	f90007e0 	str	x0, [sp,#8]
/home/rex/devel/optee/optee_os/lib/libutee/tee_user_mem.c:131
    236c:	f94007e0 	ldr	x0, [sp,#8]
    2370:	91008000 	add	x0, x0, #0x20
/home/rex/devel/optee/optee_os/lib/libutee/tee_user_mem.c:132
    2374:	910043ff 	add	sp, sp, #0x10
    2378:	d65f03c0 	ret

000000000000237c <buf_size>:
buf_size():
/home/rex/devel/optee/optee_os/lib/libutee/tee_user_mem.c:135
    237c:	d10043ff 	sub	sp, sp, #0x10
    2380:	f90007e0 	str	x0, [sp,#8]
/home/rex/devel/optee/optee_os/lib/libutee/tee_user_mem.c:136
    2384:	f94007e0 	ldr	x0, [sp,#8]
    2388:	f9400801 	ldr	x1, [x0,#16]
    238c:	d2800020 	mov	x0, #0x1                   	// #1
    2390:	cb000020 	sub	x0, x1, x0
    2394:	d1008000 	sub	x0, x0, #0x20
/home/rex/devel/optee/optee_os/lib/libutee/tee_user_mem.c:137
    2398:	910043ff 	add	sp, sp, #0x10
    239c:	d65f03c0 	ret

00000000000023a0 <elem_addr>:
elem_addr():
/home/rex/devel/optee/optee_os/lib/libutee/tee_user_mem.c:140
    23a0:	d10043ff 	sub	sp, sp, #0x10
    23a4:	f90007e0 	str	x0, [sp,#8]
/home/rex/devel/optee/optee_os/lib/libutee/tee_user_mem.c:141
    23a8:	f94007e0 	ldr	x0, [sp,#8]
    23ac:	d1008000 	sub	x0, x0, #0x20
/home/rex/devel/optee/optee_os/lib/libutee/tee_user_mem.c:142
    23b0:	910043ff 	add	sp, sp, #0x10
    23b4:	d65f03c0 	ret

00000000000023b8 <is_buffer_valid>:
is_buffer_valid():
/home/rex/devel/optee/optee_os/lib/libutee/tee_user_mem.c:148
    23b8:	a9bd7bfd 	stp	x29, x30, [sp,#-48]!
    23bc:	910003fd 	mov	x29, sp
    23c0:	f9000fa0 	str	x0, [x29,#24]
/home/rex/devel/optee/optee_os/lib/libutee/tee_user_mem.c:151
    23c4:	f0000060 	adrp	x0, 11000 <ta_props>
    23c8:	91040000 	add	x0, x0, #0x100
    23cc:	f9400000 	ldr	x0, [x0]
    23d0:	f90017a0 	str	x0, [x29,#40]
    23d4:	1400000c 	b	2404 <is_buffer_valid+0x4c>
/home/rex/devel/optee/optee_os/lib/libutee/tee_user_mem.c:152
    23d8:	f94017a0 	ldr	x0, [x29,#40]
    23dc:	97ffffe2 	bl	2364 <buf_addr>
    23e0:	aa0003e1 	mov	x1, x0
    23e4:	f9400fa0 	ldr	x0, [x29,#24]
    23e8:	eb00003f 	cmp	x1, x0
    23ec:	54000061 	b.ne	23f8 <is_buffer_valid+0x40>
/home/rex/devel/optee/optee_os/lib/libutee/tee_user_mem.c:153
    23f0:	52800020 	mov	w0, #0x1                   	// #1
    23f4:	14000008 	b	2414 <is_buffer_valid+0x5c>
/home/rex/devel/optee/optee_os/lib/libutee/tee_user_mem.c:151 (discriminator 2)
    23f8:	f94017a0 	ldr	x0, [x29,#40]
    23fc:	f9400000 	ldr	x0, [x0]
    2400:	f90017a0 	str	x0, [x29,#40]
/home/rex/devel/optee/optee_os/lib/libutee/tee_user_mem.c:151 (discriminator 1)
    2404:	f94017a0 	ldr	x0, [x29,#40]
    2408:	f100001f 	cmp	x0, #0x0
    240c:	54fffe61 	b.ne	23d8 <is_buffer_valid+0x20>
/home/rex/devel/optee/optee_os/lib/libutee/tee_user_mem.c:155
    2410:	52800000 	mov	w0, #0x0                   	// #0
/home/rex/devel/optee/optee_os/lib/libutee/tee_user_mem.c:156
    2414:	a8c37bfd 	ldp	x29, x30, [sp],#48
    2418:	d65f03c0 	ret

000000000000241c <print_buf>:
print_buf():
/home/rex/devel/optee/optee_os/lib/libutee/tee_user_mem.c:165
    241c:	d10183ff 	sub	sp, sp, #0x60
    2420:	a9027bfd 	stp	x29, x30, [sp,#32]
    2424:	910083fd 	add	x29, sp, #0x20
    2428:	f9001bf3 	str	x19, [sp,#48]
    242c:	b9003fa0 	str	w0, [x29,#60]
    2430:	f9001ba1 	str	x1, [x29,#48]
    2434:	b9003ba2 	str	w2, [x29,#56]
    2438:	f90017a3 	str	x3, [x29,#40]
    243c:	f90013a4 	str	x4, [x29,#32]
/home/rex/devel/optee/optee_os/lib/libutee/tee_user_mem.c:166
    2440:	f94013a0 	ldr	x0, [x29,#32]
    2444:	97ffffc8 	bl	2364 <buf_addr>
    2448:	aa0003f3 	mov	x19, x0
    244c:	f94013a0 	ldr	x0, [x29,#32]
    2450:	97ffffcb 	bl	237c <buf_size>
    2454:	aa0003e2 	mov	x2, x0
    2458:	b0000060 	adrp	x0, f000 <__func__.4113+0x18>
    245c:	91044001 	add	x1, x0, #0x110
    2460:	f9000be2 	str	x2, [sp,#16]
    2464:	f90007f3 	str	x19, [sp,#8]
    2468:	f94013a0 	ldr	x0, [x29,#32]
    246c:	f90003e0 	str	x0, [sp]
    2470:	f94017a7 	ldr	x7, [x29,#40]
    2474:	b9403ba6 	ldr	w6, [x29,#56]
    2478:	f9401ba5 	ldr	x5, [x29,#48]
    247c:	aa0103e4 	mov	x4, x1
    2480:	52800023 	mov	w3, #0x1                   	// #1
    2484:	b9403fa2 	ldr	w2, [x29,#60]
    2488:	52800001 	mov	w1, #0x0                   	// #0
    248c:	d2800000 	mov	x0, #0x0                   	// #0
    2490:	94001624 	bl	7d20 <trace_printf>
/home/rex/devel/optee/optee_os/lib/libutee/tee_user_mem.c:169
    2494:	d503201f 	nop
    2498:	f9401bf3 	ldr	x19, [sp,#48]
    249c:	a9427bfd 	ldp	x29, x30, [sp,#32]
    24a0:	910183ff 	add	sp, sp, #0x60
    24a4:	d65f03c0 	ret

00000000000024a8 <heap_inc>:
heap_inc():
/home/rex/devel/optee/optee_os/lib/libutee/tee_user_mem.c:195
    24a8:	d10043ff 	sub	sp, sp, #0x10
    24ac:	f90007e0 	str	x0, [sp,#8]
/home/rex/devel/optee/optee_os/lib/libutee/tee_user_mem.c:197
    24b0:	900000c0 	adrp	x0, 1a000 <mempool_u32+0xe80>
    24b4:	91332000 	add	x0, x0, #0xcc8
    24b8:	f9400001 	ldr	x1, [x0]
    24bc:	f94007e0 	ldr	x0, [sp,#8]
    24c0:	8b000021 	add	x1, x1, x0
    24c4:	900000c0 	adrp	x0, 1a000 <mempool_u32+0xe80>
    24c8:	91332000 	add	x0, x0, #0xcc8
    24cc:	f9000001 	str	x1, [x0]
/home/rex/devel/optee/optee_os/lib/libutee/tee_user_mem.c:199
    24d0:	900000c0 	adrp	x0, 1a000 <mempool_u32+0xe80>
    24d4:	91334000 	add	x0, x0, #0xcd0
    24d8:	b9400000 	ldr	w0, [x0]
    24dc:	11000401 	add	w1, w0, #0x1
    24e0:	900000c0 	adrp	x0, 1a000 <mempool_u32+0xe80>
    24e4:	91334000 	add	x0, x0, #0xcd0
    24e8:	b9000001 	str	w1, [x0]
/home/rex/devel/optee/optee_os/lib/libutee/tee_user_mem.c:200
    24ec:	900000c0 	adrp	x0, 1a000 <mempool_u32+0xe80>
    24f0:	91334000 	add	x0, x0, #0xcd0
    24f4:	f9400401 	ldr	x1, [x0,#8]
    24f8:	f94007e0 	ldr	x0, [sp,#8]
    24fc:	8b000021 	add	x1, x1, x0
    2500:	900000c0 	adrp	x0, 1a000 <mempool_u32+0xe80>
    2504:	91334000 	add	x0, x0, #0xcd0
    2508:	f9000401 	str	x1, [x0,#8]
/home/rex/devel/optee/optee_os/lib/libutee/tee_user_mem.c:202
    250c:	d503201f 	nop
    2510:	910043ff 	add	sp, sp, #0x10
    2514:	d65f03c0 	ret

0000000000002518 <heap_dec>:
heap_dec():
/home/rex/devel/optee/optee_os/lib/libutee/tee_user_mem.c:205
    2518:	d10043ff 	sub	sp, sp, #0x10
    251c:	f90007e0 	str	x0, [sp,#8]
/home/rex/devel/optee/optee_os/lib/libutee/tee_user_mem.c:207
    2520:	900000c0 	adrp	x0, 1a000 <mempool_u32+0xe80>
    2524:	91332000 	add	x0, x0, #0xcc8
    2528:	f9400001 	ldr	x1, [x0]
    252c:	f94007e0 	ldr	x0, [sp,#8]
    2530:	cb000021 	sub	x1, x1, x0
    2534:	900000c0 	adrp	x0, 1a000 <mempool_u32+0xe80>
    2538:	91332000 	add	x0, x0, #0xcc8
    253c:	f9000001 	str	x1, [x0]
/home/rex/devel/optee/optee_os/lib/libutee/tee_user_mem.c:209
    2540:	900000c0 	adrp	x0, 1a000 <mempool_u32+0xe80>
    2544:	91334000 	add	x0, x0, #0xcd0
    2548:	b9400000 	ldr	w0, [x0]
    254c:	51000401 	sub	w1, w0, #0x1
    2550:	900000c0 	adrp	x0, 1a000 <mempool_u32+0xe80>
    2554:	91334000 	add	x0, x0, #0xcd0
    2558:	b9000001 	str	w1, [x0]
/home/rex/devel/optee/optee_os/lib/libutee/tee_user_mem.c:210
    255c:	900000c0 	adrp	x0, 1a000 <mempool_u32+0xe80>
    2560:	91334000 	add	x0, x0, #0xcd0
    2564:	f9400401 	ldr	x1, [x0,#8]
    2568:	f94007e0 	ldr	x0, [sp,#8]
    256c:	cb000021 	sub	x1, x1, x0
    2570:	900000c0 	adrp	x0, 1a000 <mempool_u32+0xe80>
    2574:	91334000 	add	x0, x0, #0xcd0
    2578:	f9000401 	str	x1, [x0,#8]
/home/rex/devel/optee/optee_os/lib/libutee/tee_user_mem.c:212
    257c:	d503201f 	nop
    2580:	910043ff 	add	sp, sp, #0x10
    2584:	d65f03c0 	ret

0000000000002588 <check_elem_end>:
check_elem_end():
/home/rex/devel/optee/optee_os/lib/libutee/tee_user_mem.c:218
    2588:	a9bd7bfd 	stp	x29, x30, [sp,#-48]!
    258c:	910003fd 	mov	x29, sp
    2590:	f9000fa0 	str	x0, [x29,#24]
/home/rex/devel/optee/optee_os/lib/libutee/tee_user_mem.c:219
    2594:	f9400fa0 	ldr	x0, [x29,#24]
    2598:	f90017a0 	str	x0, [x29,#40]
/home/rex/devel/optee/optee_os/lib/libutee/tee_user_mem.c:226
    259c:	f9400fa0 	ldr	x0, [x29,#24]
    25a0:	f9400801 	ldr	x1, [x0,#16]
    25a4:	d2800020 	mov	x0, #0x1                   	// #1
    25a8:	cb000020 	sub	x0, x1, x0
    25ac:	f94017a1 	ldr	x1, [x29,#40]
    25b0:	8b000020 	add	x0, x1, x0
    25b4:	39400000 	ldrb	w0, [x0]
    25b8:	92401c01 	and	x1, x0, #0xff
/home/rex/devel/optee/optee_os/lib/libutee/tee_user_mem.c:227
    25bc:	f94017a0 	ldr	x0, [x29,#40]
    25c0:	92401c02 	and	x2, x0, #0xff
    25c4:	d28018a0 	mov	x0, #0xc5                  	// #197
    25c8:	ca000040 	eor	x0, x2, x0
/home/rex/devel/optee/optee_os/lib/libutee/tee_user_mem.c:226
    25cc:	eb00003f 	cmp	x1, x0
    25d0:	540001a0 	b.eq	2604 <check_elem_end+0x7c>
/home/rex/devel/optee/optee_os/lib/libutee/tee_user_mem.c:228
    25d4:	b0000060 	adrp	x0, f000 <__func__.4113+0x18>
    25d8:	9104e001 	add	x1, x0, #0x138
    25dc:	b0000060 	adrp	x0, f000 <__func__.4113+0x18>
    25e0:	91090000 	add	x0, x0, #0x240
    25e4:	f9400fa4 	ldr	x4, [x29,#24]
    25e8:	aa0103e3 	mov	x3, x1
    25ec:	52801c82 	mov	w2, #0xe4                  	// #228
    25f0:	aa0003e1 	mov	x1, x0
    25f4:	52800020 	mov	w0, #0x1                   	// #1
    25f8:	97ffff89 	bl	241c <print_buf>
/home/rex/devel/optee/optee_os/lib/libutee/tee_user_mem.c:229
    25fc:	52800000 	mov	w0, #0x0                   	// #0
    2600:	14000002 	b	2608 <check_elem_end+0x80>
/home/rex/devel/optee/optee_os/lib/libutee/tee_user_mem.c:232
    2604:	52800020 	mov	w0, #0x1                   	// #1
/home/rex/devel/optee/optee_os/lib/libutee/tee_user_mem.c:233
    2608:	a8c37bfd 	ldp	x29, x30, [sp],#48
    260c:	d65f03c0 	ret

0000000000002610 <check_elem>:
check_elem():
/home/rex/devel/optee/optee_os/lib/libutee/tee_user_mem.c:236
    2610:	a9bd7bfd 	stp	x29, x30, [sp,#-48]!
    2614:	910003fd 	mov	x29, sp
    2618:	f9000fa0 	str	x0, [x29,#24]
/home/rex/devel/optee/optee_os/lib/libutee/tee_user_mem.c:240
    261c:	f9400fa0 	ldr	x0, [x29,#24]
    2620:	f100001f 	cmp	x0, #0x0
    2624:	54000061 	b.ne	2630 <check_elem+0x20>
/home/rex/devel/optee/optee_os/lib/libutee/tee_user_mem.c:241
    2628:	52800000 	mov	w0, #0x0                   	// #0
    262c:	1400004e 	b	2764 <check_elem+0x154>
/home/rex/devel/optee/optee_os/lib/libutee/tee_user_mem.c:243
    2630:	f9400fa0 	ldr	x0, [x29,#24]
    2634:	92400400 	and	x0, x0, #0x3
    2638:	f100001f 	cmp	x0, #0x0
    263c:	540002c0 	b.eq	2694 <check_elem+0x84>
/home/rex/devel/optee/optee_os/lib/libutee/tee_user_mem.c:244
    2640:	b0000060 	adrp	x0, f000 <__func__.4113+0x18>
    2644:	91052001 	add	x1, x0, #0x148
    2648:	b0000060 	adrp	x0, f000 <__func__.4113+0x18>
    264c:	91094000 	add	x0, x0, #0x250
    2650:	aa0103e4 	mov	x4, x1
    2654:	52800023 	mov	w3, #0x1                   	// #1
    2658:	52800022 	mov	w2, #0x1                   	// #1
    265c:	52801e81 	mov	w1, #0xf4                  	// #244
    2660:	940015b0 	bl	7d20 <trace_printf>
/home/rex/devel/optee/optee_os/lib/libutee/tee_user_mem.c:245
    2664:	b0000060 	adrp	x0, f000 <__func__.4113+0x18>
    2668:	91058001 	add	x1, x0, #0x160
    266c:	b0000060 	adrp	x0, f000 <__func__.4113+0x18>
    2670:	91094000 	add	x0, x0, #0x250
    2674:	52800005 	mov	w5, #0x0                   	// #0
    2678:	aa0103e4 	mov	x4, x1
    267c:	52800023 	mov	w3, #0x1                   	// #1
    2680:	52800022 	mov	w2, #0x1                   	// #1
    2684:	52801ea1 	mov	w1, #0xf5                  	// #245
    2688:	940015a6 	bl	7d20 <trace_printf>
    268c:	52800000 	mov	w0, #0x0                   	// #0
    2690:	97fffeff 	bl	228c <__TEE_Panic>
/home/rex/devel/optee/optee_os/lib/libutee/tee_user_mem.c:248
    2694:	f9400fa0 	ldr	x0, [x29,#24]
    2698:	f9400000 	ldr	x0, [x0]
    269c:	f90017a0 	str	x0, [x29,#40]
/home/rex/devel/optee/optee_os/lib/libutee/tee_user_mem.c:249
    26a0:	f94017a0 	ldr	x0, [x29,#40]
    26a4:	f100001f 	cmp	x0, #0x0
    26a8:	54000280 	b.eq	26f8 <check_elem+0xe8>
/home/rex/devel/optee/optee_os/lib/libutee/tee_user_mem.c:249 (discriminator 1)
    26ac:	f94017a0 	ldr	x0, [x29,#40]
    26b0:	f9400400 	ldr	x0, [x0,#8]
    26b4:	f9400400 	ldr	x0, [x0,#8]
    26b8:	f9400001 	ldr	x1, [x0]
    26bc:	f9400fa0 	ldr	x0, [x29,#24]
    26c0:	eb00003f 	cmp	x1, x0
    26c4:	540001a0 	b.eq	26f8 <check_elem+0xe8>
/home/rex/devel/optee/optee_os/lib/libutee/tee_user_mem.c:250
    26c8:	b0000060 	adrp	x0, f000 <__func__.4113+0x18>
    26cc:	9105c001 	add	x1, x0, #0x170
    26d0:	b0000060 	adrp	x0, f000 <__func__.4113+0x18>
    26d4:	91094000 	add	x0, x0, #0x250
    26d8:	f94017a4 	ldr	x4, [x29,#40]
    26dc:	aa0103e3 	mov	x3, x1
    26e0:	52801f42 	mov	w2, #0xfa                  	// #250
    26e4:	aa0003e1 	mov	x1, x0
    26e8:	52800020 	mov	w0, #0x1                   	// #1
    26ec:	97ffff4c 	bl	241c <print_buf>
/home/rex/devel/optee/optee_os/lib/libutee/tee_user_mem.c:251
    26f0:	52800000 	mov	w0, #0x0                   	// #0
    26f4:	1400001c 	b	2764 <check_elem+0x154>
/home/rex/devel/optee/optee_os/lib/libutee/tee_user_mem.c:254
    26f8:	f9400fa0 	ldr	x0, [x29,#24]
    26fc:	f9400400 	ldr	x0, [x0,#8]
    2700:	f9400400 	ldr	x0, [x0,#8]
    2704:	f9400000 	ldr	x0, [x0]
    2708:	f90017a0 	str	x0, [x29,#40]
/home/rex/devel/optee/optee_os/lib/libutee/tee_user_mem.c:255
    270c:	f94017a0 	ldr	x0, [x29,#40]
    2710:	f100001f 	cmp	x0, #0x0
    2714:	54000240 	b.eq	275c <check_elem+0x14c>
/home/rex/devel/optee/optee_os/lib/libutee/tee_user_mem.c:255 (discriminator 1)
    2718:	f94017a0 	ldr	x0, [x29,#40]
    271c:	f9400001 	ldr	x1, [x0]
    2720:	f9400fa0 	ldr	x0, [x29,#24]
    2724:	eb00003f 	cmp	x1, x0
    2728:	540001a0 	b.eq	275c <check_elem+0x14c>
/home/rex/devel/optee/optee_os/lib/libutee/tee_user_mem.c:256
    272c:	b0000060 	adrp	x0, f000 <__func__.4113+0x18>
    2730:	9105c001 	add	x1, x0, #0x170
    2734:	b0000060 	adrp	x0, f000 <__func__.4113+0x18>
    2738:	91094000 	add	x0, x0, #0x250
    273c:	f94017a4 	ldr	x4, [x29,#40]
    2740:	aa0103e3 	mov	x3, x1
    2744:	52802002 	mov	w2, #0x100                 	// #256
    2748:	aa0003e1 	mov	x1, x0
    274c:	52800020 	mov	w0, #0x1                   	// #1
    2750:	97ffff33 	bl	241c <print_buf>
/home/rex/devel/optee/optee_os/lib/libutee/tee_user_mem.c:257
    2754:	52800000 	mov	w0, #0x0                   	// #0
    2758:	14000003 	b	2764 <check_elem+0x154>
/home/rex/devel/optee/optee_os/lib/libutee/tee_user_mem.c:260
    275c:	f9400fa0 	ldr	x0, [x29,#24]
    2760:	97ffff8a 	bl	2588 <check_elem_end>
/home/rex/devel/optee/optee_os/lib/libutee/tee_user_mem.c:261
    2764:	a8c37bfd 	ldp	x29, x30, [sp],#48
    2768:	d65f03c0 	ret

000000000000276c <is_mem_coherent>:
is_mem_coherent():
/home/rex/devel/optee/optee_os/lib/libutee/tee_user_mem.c:265
    276c:	a9be7bfd 	stp	x29, x30, [sp,#-32]!
    2770:	910003fd 	mov	x29, sp
/home/rex/devel/optee/optee_os/lib/libutee/tee_user_mem.c:268
    2774:	f0000060 	adrp	x0, 11000 <ta_props>
    2778:	91040000 	add	x0, x0, #0x100
    277c:	f9400000 	ldr	x0, [x0]
    2780:	f9000fa0 	str	x0, [x29,#24]
    2784:	14000012 	b	27cc <is_mem_coherent+0x60>
/home/rex/devel/optee/optee_os/lib/libutee/tee_user_mem.c:269
    2788:	f9400fa0 	ldr	x0, [x29,#24]
    278c:	97ffffa1 	bl	2610 <check_elem>
    2790:	7100001f 	cmp	w0, #0x0
    2794:	54000161 	b.ne	27c0 <is_mem_coherent+0x54>
/home/rex/devel/optee/optee_os/lib/libutee/tee_user_mem.c:270 (discriminator 1)
    2798:	b0000060 	adrp	x0, f000 <__func__.4113+0x18>
    279c:	91098002 	add	x2, x0, #0x260
    27a0:	b0000060 	adrp	x0, f000 <__func__.4113+0x18>
    27a4:	91060001 	add	x1, x0, #0x180
    27a8:	b0000060 	adrp	x0, f000 <__func__.4113+0x18>
    27ac:	91068000 	add	x0, x0, #0x1a0
    27b0:	aa0203e3 	mov	x3, x2
    27b4:	528021c2 	mov	w2, #0x10e                 	// #270
    27b8:	94000211 	bl	2ffc <_assert_log>
    27bc:	94000228 	bl	305c <_assert_break>
/home/rex/devel/optee/optee_os/lib/libutee/tee_user_mem.c:268 (discriminator 2)
    27c0:	f9400fa0 	ldr	x0, [x29,#24]
    27c4:	f9400000 	ldr	x0, [x0]
    27c8:	f9000fa0 	str	x0, [x29,#24]
/home/rex/devel/optee/optee_os/lib/libutee/tee_user_mem.c:268 (discriminator 1)
    27cc:	f9400fa0 	ldr	x0, [x29,#24]
    27d0:	f100001f 	cmp	x0, #0x0
    27d4:	54fffda1 	b.ne	2788 <is_mem_coherent+0x1c>
/home/rex/devel/optee/optee_os/lib/libutee/tee_user_mem.c:274
    27d8:	52800020 	mov	w0, #0x1                   	// #1
/home/rex/devel/optee/optee_os/lib/libutee/tee_user_mem.c:275
    27dc:	a8c27bfd 	ldp	x29, x30, [sp],#32
    27e0:	d65f03c0 	ret

00000000000027e4 <tee_user_mem_alloc>:
tee_user_mem_alloc():
/home/rex/devel/optee/optee_os/lib/libutee/tee_user_mem.c:297
    27e4:	a9bc7bfd 	stp	x29, x30, [sp,#-64]!
    27e8:	910003fd 	mov	x29, sp
    27ec:	f9000fa0 	str	x0, [x29,#24]
    27f0:	b90017a1 	str	w1, [x29,#20]
/home/rex/devel/optee/optee_os/lib/libutee/tee_user_mem.c:299
    27f4:	f9001fbf 	str	xzr, [x29,#56]
/home/rex/devel/optee/optee_os/lib/libutee/tee_user_mem.c:301
    27f8:	d2800021 	mov	x1, #0x1                   	// #1
    27fc:	f9400fa0 	ldr	x0, [x29,#24]
    2800:	8b000020 	add	x0, x1, x0
/home/rex/devel/optee/optee_os/lib/libutee/tee_user_mem.c:300
    2804:	91008000 	add	x0, x0, #0x20
    2808:	f9001ba0 	str	x0, [x29,#48]
/home/rex/devel/optee/optee_os/lib/libutee/tee_user_mem.c:306
    280c:	f9400fa0 	ldr	x0, [x29,#24]
    2810:	7100001f 	cmp	w0, #0x0
    2814:	5400006a 	b.ge	2820 <tee_user_mem_alloc+0x3c>
/home/rex/devel/optee/optee_os/lib/libutee/tee_user_mem.c:308
    2818:	d2800000 	mov	x0, #0x0                   	// #0
    281c:	14000064 	b	29ac <tee_user_mem_alloc+0x1c8>
/home/rex/devel/optee/optee_os/lib/libutee/tee_user_mem.c:311
    2820:	f9400fa0 	ldr	x0, [x29,#24]
    2824:	f100001f 	cmp	x0, #0x0
    2828:	540000a1 	b.ne	283c <tee_user_mem_alloc+0x58>
/home/rex/devel/optee/optee_os/lib/libutee/tee_user_mem.c:313
    282c:	f0000060 	adrp	x0, 11000 <ta_props>
    2830:	9103e000 	add	x0, x0, #0xf8
    2834:	f9400000 	ldr	x0, [x0]
    2838:	1400005d 	b	29ac <tee_user_mem_alloc+0x1c8>
/home/rex/devel/optee/optee_os/lib/libutee/tee_user_mem.c:317
    283c:	b94017a0 	ldr	w0, [x29,#20]
    2840:	7100001f 	cmp	w0, #0x0
    2844:	54000200 	b.eq	2884 <tee_user_mem_alloc+0xa0>
    2848:	52b00001 	mov	w1, #0x80000000            	// #-2147483648
    284c:	6b01001f 	cmp	w0, w1
    2850:	540001a0 	b.eq	2884 <tee_user_mem_alloc+0xa0>
/home/rex/devel/optee/optee_os/lib/libutee/tee_user_mem.c:322
    2854:	b0000060 	adrp	x0, f000 <__func__.4113+0x18>
    2858:	9106a001 	add	x1, x0, #0x1a8
    285c:	b0000060 	adrp	x0, f000 <__func__.4113+0x18>
    2860:	9109c000 	add	x0, x0, #0x270
    2864:	b94017a5 	ldr	w5, [x29,#20]
    2868:	aa0103e4 	mov	x4, x1
    286c:	52800023 	mov	w3, #0x1                   	// #1
    2870:	52800022 	mov	w2, #0x1                   	// #1
    2874:	52802841 	mov	w1, #0x142                 	// #322
    2878:	9400152a 	bl	7d20 <trace_printf>
/home/rex/devel/optee/optee_os/lib/libutee/tee_user_mem.c:324
    287c:	d2800000 	mov	x0, #0x0                   	// #0
    2880:	1400004b 	b	29ac <tee_user_mem_alloc+0x1c8>
/home/rex/devel/optee/optee_os/lib/libutee/tee_user_mem.c:320
    2884:	d503201f 	nop
/home/rex/devel/optee/optee_os/lib/libutee/tee_user_mem.c:327
    2888:	f9401ba0 	ldr	x0, [x29,#48]
    288c:	97fffe8c 	bl	22bc <utee_malloc>
    2890:	f90017a0 	str	x0, [x29,#40]
/home/rex/devel/optee/optee_os/lib/libutee/tee_user_mem.c:328
    2894:	f94017a0 	ldr	x0, [x29,#40]
    2898:	f100001f 	cmp	x0, #0x0
    289c:	54000860 	b.eq	29a8 <tee_user_mem_alloc+0x1c4>
/home/rex/devel/optee/optee_os/lib/libutee/tee_user_mem.c:329
    28a0:	f94017a0 	ldr	x0, [x29,#40]
    28a4:	f90013a0 	str	x0, [x29,#32]
/home/rex/devel/optee/optee_os/lib/libutee/tee_user_mem.c:330
    28a8:	f94013a0 	ldr	x0, [x29,#32]
    28ac:	f9401ba1 	ldr	x1, [x29,#48]
    28b0:	f9000801 	str	x1, [x0,#16]
/home/rex/devel/optee/optee_os/lib/libutee/tee_user_mem.c:331
    28b4:	f94013a0 	ldr	x0, [x29,#32]
    28b8:	b94017a1 	ldr	w1, [x29,#20]
    28bc:	b9001801 	str	w1, [x0,#24]
/home/rex/devel/optee/optee_os/lib/libutee/tee_user_mem.c:332
    28c0:	f9401ba0 	ldr	x0, [x29,#48]
    28c4:	97fffef9 	bl	24a8 <heap_inc>
/home/rex/devel/optee/optee_os/lib/libutee/tee_user_mem.c:335
    28c8:	f94013a0 	ldr	x0, [x29,#32]
    28cc:	f900001f 	str	xzr, [x0]
    28d0:	f0000060 	adrp	x0, 11000 <ta_props>
    28d4:	91040000 	add	x0, x0, #0x100
    28d8:	f9400401 	ldr	x1, [x0,#8]
    28dc:	f94013a0 	ldr	x0, [x29,#32]
    28e0:	f9000401 	str	x1, [x0,#8]
    28e4:	f0000060 	adrp	x0, 11000 <ta_props>
    28e8:	91040000 	add	x0, x0, #0x100
    28ec:	f9400400 	ldr	x0, [x0,#8]
    28f0:	f94013a1 	ldr	x1, [x29,#32]
    28f4:	f9000001 	str	x1, [x0]
    28f8:	f94013a1 	ldr	x1, [x29,#32]
    28fc:	f0000060 	adrp	x0, 11000 <ta_props>
    2900:	91040000 	add	x0, x0, #0x100
    2904:	f9000401 	str	x1, [x0,#8]
/home/rex/devel/optee/optee_os/lib/libutee/tee_user_mem.c:339
    2908:	d2800020 	mov	x0, #0x1                   	// #1
    290c:	f9401ba1 	ldr	x1, [x29,#48]
    2910:	cb000020 	sub	x0, x1, x0
    2914:	f94017a1 	ldr	x1, [x29,#40]
    2918:	8b000020 	add	x0, x1, x0
/home/rex/devel/optee/optee_os/lib/libutee/tee_user_mem.c:340
    291c:	f94017a1 	ldr	x1, [x29,#40]
    2920:	12001c22 	and	w2, w1, #0xff
    2924:	12800741 	mov	w1, #0xffffffc5            	// #-59
    2928:	4a010041 	eor	w1, w2, w1
    292c:	12001c21 	and	w1, w1, #0xff
/home/rex/devel/optee/optee_os/lib/libutee/tee_user_mem.c:339
    2930:	39000001 	strb	w1, [x0]
/home/rex/devel/optee/optee_os/lib/libutee/tee_user_mem.c:343
    2934:	b0000060 	adrp	x0, f000 <__func__.4113+0x18>
    2938:	91072001 	add	x1, x0, #0x1c8
    293c:	b0000060 	adrp	x0, f000 <__func__.4113+0x18>
    2940:	9109c000 	add	x0, x0, #0x270
    2944:	f94013a4 	ldr	x4, [x29,#32]
    2948:	aa0103e3 	mov	x3, x1
    294c:	52802ae2 	mov	w2, #0x157                 	// #343
    2950:	aa0003e1 	mov	x1, x0
    2954:	52800080 	mov	w0, #0x4                   	// #4
    2958:	97fffeb1 	bl	241c <print_buf>
/home/rex/devel/optee/optee_os/lib/libutee/tee_user_mem.c:345
    295c:	f94013a0 	ldr	x0, [x29,#32]
    2960:	97fffe81 	bl	2364 <buf_addr>
    2964:	f9001fa0 	str	x0, [x29,#56]
/home/rex/devel/optee/optee_os/lib/libutee/tee_user_mem.c:347
    2968:	b94017a0 	ldr	w0, [x29,#20]
    296c:	7100001f 	cmp	w0, #0x0
    2970:	540000c1 	b.ne	2988 <tee_user_mem_alloc+0x1a4>
/home/rex/devel/optee/optee_os/lib/libutee/tee_user_mem.c:348
    2974:	f9400fa2 	ldr	x2, [x29,#24]
    2978:	52800001 	mov	w1, #0x0                   	// #0
    297c:	f9401fa0 	ldr	x0, [x29,#56]
    2980:	94000b80 	bl	5780 <memset>
    2984:	14000009 	b	29a8 <tee_user_mem_alloc+0x1c4>
/home/rex/devel/optee/optee_os/lib/libutee/tee_user_mem.c:350
    2988:	b94017a1 	ldr	w1, [x29,#20]
    298c:	52b00000 	mov	w0, #0x80000000            	// #-2147483648
    2990:	6b00003f 	cmp	w1, w0
    2994:	540000a1 	b.ne	29a8 <tee_user_mem_alloc+0x1c4>
/home/rex/devel/optee/optee_os/lib/libutee/tee_user_mem.c:352
    2998:	f9400fa2 	ldr	x2, [x29,#24]
    299c:	52801761 	mov	w1, #0xbb                  	// #187
    29a0:	f9401fa0 	ldr	x0, [x29,#56]
    29a4:	94000b77 	bl	5780 <memset>
/home/rex/devel/optee/optee_os/lib/libutee/tee_user_mem.c:357
    29a8:	f9401fa0 	ldr	x0, [x29,#56]
/home/rex/devel/optee/optee_os/lib/libutee/tee_user_mem.c:358
    29ac:	a8c47bfd 	ldp	x29, x30, [sp],#64
    29b0:	d65f03c0 	ret

00000000000029b4 <tee_user_mem_realloc>:
tee_user_mem_realloc():
/home/rex/devel/optee/optee_os/lib/libutee/tee_user_mem.c:367
    29b4:	a9bb7bfd 	stp	x29, x30, [sp,#-80]!
    29b8:	910003fd 	mov	x29, sp
    29bc:	f9000fa0 	str	x0, [x29,#24]
    29c0:	f9000ba1 	str	x1, [x29,#16]
/home/rex/devel/optee/optee_os/lib/libutee/tee_user_mem.c:374
    29c4:	f9400ba0 	ldr	x0, [x29,#16]
    29c8:	7100001f 	cmp	w0, #0x0
    29cc:	5400006a 	b.ge	29d8 <tee_user_mem_realloc+0x24>
/home/rex/devel/optee/optee_os/lib/libutee/tee_user_mem.c:376
    29d0:	d2800000 	mov	x0, #0x0                   	// #0
    29d4:	1400003a 	b	2abc <tee_user_mem_realloc+0x108>
/home/rex/devel/optee/optee_os/lib/libutee/tee_user_mem.c:384
    29d8:	f9400fa0 	ldr	x0, [x29,#24]
    29dc:	f100001f 	cmp	x0, #0x0
    29e0:	54000160 	b.eq	2a0c <tee_user_mem_realloc+0x58>
/home/rex/devel/optee/optee_os/lib/libutee/tee_user_mem.c:384 (discriminator 1)
    29e4:	f0000060 	adrp	x0, 11000 <ta_props>
    29e8:	9103e000 	add	x0, x0, #0xf8
    29ec:	f9400000 	ldr	x0, [x0]
    29f0:	f9400fa1 	ldr	x1, [x29,#24]
    29f4:	eb00003f 	cmp	x1, x0
    29f8:	540000a0 	b.eq	2a0c <tee_user_mem_realloc+0x58>
/home/rex/devel/optee/optee_os/lib/libutee/tee_user_mem.c:384 (discriminator 2)
    29fc:	f9400fa0 	ldr	x0, [x29,#24]
    2a00:	97fffe6e 	bl	23b8 <is_buffer_valid>
    2a04:	7100001f 	cmp	w0, #0x0
    2a08:	54000101 	b.ne	2a28 <tee_user_mem_realloc+0x74>
/home/rex/devel/optee/optee_os/lib/libutee/tee_user_mem.c:385
    2a0c:	52800000 	mov	w0, #0x0                   	// #0
    2a10:	2a0003e1 	mov	w1, w0
    2a14:	f9400ba0 	ldr	x0, [x29,#16]
    2a18:	97ffff73 	bl	27e4 <tee_user_mem_alloc>
    2a1c:	f9001fa0 	str	x0, [x29,#56]
/home/rex/devel/optee/optee_os/lib/libutee/tee_user_mem.c:387
    2a20:	f9401fa0 	ldr	x0, [x29,#56]
    2a24:	14000026 	b	2abc <tee_user_mem_realloc+0x108>
/home/rex/devel/optee/optee_os/lib/libutee/tee_user_mem.c:394
    2a28:	f9400fa0 	ldr	x0, [x29,#24]
    2a2c:	97fffe5d 	bl	23a0 <elem_addr>
    2a30:	f90027a0 	str	x0, [x29,#72]
/home/rex/devel/optee/optee_os/lib/libutee/tee_user_mem.c:395
    2a34:	f94027a0 	ldr	x0, [x29,#72]
    2a38:	97fffe51 	bl	237c <buf_size>
    2a3c:	f90023a0 	str	x0, [x29,#64]
/home/rex/devel/optee/optee_os/lib/libutee/tee_user_mem.c:396
    2a40:	f9400ba1 	ldr	x1, [x29,#16]
    2a44:	f94023a0 	ldr	x0, [x29,#64]
    2a48:	eb00003f 	cmp	x1, x0
    2a4c:	54000061 	b.ne	2a58 <tee_user_mem_realloc+0xa4>
/home/rex/devel/optee/optee_os/lib/libutee/tee_user_mem.c:398
    2a50:	f9400fa0 	ldr	x0, [x29,#24]
    2a54:	1400001a 	b	2abc <tee_user_mem_realloc+0x108>
/home/rex/devel/optee/optee_os/lib/libutee/tee_user_mem.c:406
    2a58:	f94027a0 	ldr	x0, [x29,#72]
    2a5c:	b9401800 	ldr	w0, [x0,#24]
    2a60:	2a0003e1 	mov	w1, w0
    2a64:	f9400ba0 	ldr	x0, [x29,#16]
    2a68:	97ffff5f 	bl	27e4 <tee_user_mem_alloc>
    2a6c:	f9001fa0 	str	x0, [x29,#56]
/home/rex/devel/optee/optee_os/lib/libutee/tee_user_mem.c:407
    2a70:	f9401fa0 	ldr	x0, [x29,#56]
    2a74:	f100001f 	cmp	x0, #0x0
    2a78:	54000200 	b.eq	2ab8 <tee_user_mem_realloc+0x104>
/home/rex/devel/optee/optee_os/lib/libutee/tee_user_mem.c:408
    2a7c:	f9400ba0 	ldr	x0, [x29,#16]
    2a80:	f9001ba0 	str	x0, [x29,#48]
    2a84:	f94023a0 	ldr	x0, [x29,#64]
    2a88:	f90017a0 	str	x0, [x29,#40]
    2a8c:	f9401ba0 	ldr	x0, [x29,#48]
    2a90:	f94017a2 	ldr	x2, [x29,#40]
    2a94:	f94017a1 	ldr	x1, [x29,#40]
    2a98:	eb00005f 	cmp	x2, x0
    2a9c:	9a809020 	csel	x0, x1, x0, ls
    2aa0:	aa0003e2 	mov	x2, x0
    2aa4:	f9400fa1 	ldr	x1, [x29,#24]
    2aa8:	f9401fa0 	ldr	x0, [x29,#56]
    2aac:	94000a52 	bl	53f4 <memcpy>
/home/rex/devel/optee/optee_os/lib/libutee/tee_user_mem.c:411
    2ab0:	f9400fa0 	ldr	x0, [x29,#24]
    2ab4:	94000004 	bl	2ac4 <tee_user_mem_free>
/home/rex/devel/optee/optee_os/lib/libutee/tee_user_mem.c:415
    2ab8:	f9401fa0 	ldr	x0, [x29,#56]
/home/rex/devel/optee/optee_os/lib/libutee/tee_user_mem.c:416
    2abc:	a8c57bfd 	ldp	x29, x30, [sp],#80
    2ac0:	d65f03c0 	ret

0000000000002ac4 <tee_user_mem_free>:
tee_user_mem_free():
/home/rex/devel/optee/optee_os/lib/libutee/tee_user_mem.c:423
    2ac4:	a9bd7bfd 	stp	x29, x30, [sp,#-48]!
    2ac8:	910003fd 	mov	x29, sp
    2acc:	f9000fa0 	str	x0, [x29,#24]
/home/rex/devel/optee/optee_os/lib/libutee/tee_user_mem.c:430
    2ad0:	f9400fa0 	ldr	x0, [x29,#24]
    2ad4:	f100001f 	cmp	x0, #0x0
    2ad8:	54000bc0 	b.eq	2c50 <tee_user_mem_free+0x18c>
/home/rex/devel/optee/optee_os/lib/libutee/tee_user_mem.c:430 (discriminator 1)
    2adc:	f0000060 	adrp	x0, 11000 <ta_props>
    2ae0:	9103e000 	add	x0, x0, #0xf8
    2ae4:	f9400000 	ldr	x0, [x0]
    2ae8:	f9400fa1 	ldr	x1, [x29,#24]
    2aec:	eb00003f 	cmp	x1, x0
    2af0:	54000b00 	b.eq	2c50 <tee_user_mem_free+0x18c>
/home/rex/devel/optee/optee_os/lib/libutee/tee_user_mem.c:434
    2af4:	f9400fa0 	ldr	x0, [x29,#24]
    2af8:	97fffe30 	bl	23b8 <is_buffer_valid>
    2afc:	7100001f 	cmp	w0, #0x0
    2b00:	54000181 	b.ne	2b30 <tee_user_mem_free+0x6c>
/home/rex/devel/optee/optee_os/lib/libutee/tee_user_mem.c:435
    2b04:	b0000060 	adrp	x0, f000 <__func__.4113+0x18>
    2b08:	91076001 	add	x1, x0, #0x1d8
    2b0c:	b0000060 	adrp	x0, f000 <__func__.4113+0x18>
    2b10:	910a2000 	add	x0, x0, #0x288
    2b14:	f9400fa5 	ldr	x5, [x29,#24]
    2b18:	aa0103e4 	mov	x4, x1
    2b1c:	52800023 	mov	w3, #0x1                   	// #1
    2b20:	52800022 	mov	w2, #0x1                   	// #1
    2b24:	52803661 	mov	w1, #0x1b3                 	// #435
    2b28:	9400147e 	bl	7d20 <trace_printf>
/home/rex/devel/optee/optee_os/lib/libutee/tee_user_mem.c:436
    2b2c:	1400004a 	b	2c54 <tee_user_mem_free+0x190>
/home/rex/devel/optee/optee_os/lib/libutee/tee_user_mem.c:439
    2b30:	f9400fa0 	ldr	x0, [x29,#24]
    2b34:	97fffe1b 	bl	23a0 <elem_addr>
    2b38:	f90017a0 	str	x0, [x29,#40]
/home/rex/devel/optee/optee_os/lib/libutee/tee_user_mem.c:440
    2b3c:	f94017a0 	ldr	x0, [x29,#40]
    2b40:	f90013a0 	str	x0, [x29,#32]
/home/rex/devel/optee/optee_os/lib/libutee/tee_user_mem.c:442
    2b44:	b0000060 	adrp	x0, f000 <__func__.4113+0x18>
    2b48:	9107e001 	add	x1, x0, #0x1f8
    2b4c:	b0000060 	adrp	x0, f000 <__func__.4113+0x18>
    2b50:	910a2000 	add	x0, x0, #0x288
    2b54:	f94013a4 	ldr	x4, [x29,#32]
    2b58:	aa0103e3 	mov	x3, x1
    2b5c:	52803742 	mov	w2, #0x1ba                 	// #442
    2b60:	aa0003e1 	mov	x1, x0
    2b64:	52800080 	mov	w0, #0x4                   	// #4
    2b68:	97fffe2d 	bl	241c <print_buf>
/home/rex/devel/optee/optee_os/lib/libutee/tee_user_mem.c:445
    2b6c:	f94013a0 	ldr	x0, [x29,#32]
    2b70:	97fffea8 	bl	2610 <check_elem>
    2b74:	7100001f 	cmp	w0, #0x0
    2b78:	540002c1 	b.ne	2bd0 <tee_user_mem_free+0x10c>
/home/rex/devel/optee/optee_os/lib/libutee/tee_user_mem.c:446
    2b7c:	b0000060 	adrp	x0, f000 <__func__.4113+0x18>
    2b80:	91080001 	add	x1, x0, #0x200
    2b84:	b0000060 	adrp	x0, f000 <__func__.4113+0x18>
    2b88:	910a2000 	add	x0, x0, #0x288
    2b8c:	aa0103e4 	mov	x4, x1
    2b90:	52800023 	mov	w3, #0x1                   	// #1
    2b94:	52800022 	mov	w2, #0x1                   	// #1
    2b98:	528037c1 	mov	w1, #0x1be                 	// #446
    2b9c:	94001461 	bl	7d20 <trace_printf>
/home/rex/devel/optee/optee_os/lib/libutee/tee_user_mem.c:447
    2ba0:	b0000060 	adrp	x0, f000 <__func__.4113+0x18>
    2ba4:	91058001 	add	x1, x0, #0x160
    2ba8:	b0000060 	adrp	x0, f000 <__func__.4113+0x18>
    2bac:	910a2000 	add	x0, x0, #0x288
    2bb0:	52800005 	mov	w5, #0x0                   	// #0
    2bb4:	aa0103e4 	mov	x4, x1
    2bb8:	52800023 	mov	w3, #0x1                   	// #1
    2bbc:	52800022 	mov	w2, #0x1                   	// #1
    2bc0:	528037e1 	mov	w1, #0x1bf                 	// #447
    2bc4:	94001457 	bl	7d20 <trace_printf>
    2bc8:	52800000 	mov	w0, #0x0                   	// #0
    2bcc:	97fffdb0 	bl	228c <__TEE_Panic>
/home/rex/devel/optee/optee_os/lib/libutee/tee_user_mem.c:451
    2bd0:	f94013a0 	ldr	x0, [x29,#32]
    2bd4:	f9400000 	ldr	x0, [x0]
    2bd8:	f100001f 	cmp	x0, #0x0
    2bdc:	540000e0 	b.eq	2bf8 <tee_user_mem_free+0x134>
/home/rex/devel/optee/optee_os/lib/libutee/tee_user_mem.c:451 (discriminator 1)
    2be0:	f94013a0 	ldr	x0, [x29,#32]
    2be4:	f9400000 	ldr	x0, [x0]
    2be8:	f94013a1 	ldr	x1, [x29,#32]
    2bec:	f9400421 	ldr	x1, [x1,#8]
    2bf0:	f9000401 	str	x1, [x0,#8]
    2bf4:	14000006 	b	2c0c <tee_user_mem_free+0x148>
/home/rex/devel/optee/optee_os/lib/libutee/tee_user_mem.c:451 (discriminator 2)
    2bf8:	f94013a0 	ldr	x0, [x29,#32]
    2bfc:	f9400401 	ldr	x1, [x0,#8]
    2c00:	f0000060 	adrp	x0, 11000 <ta_props>
    2c04:	91040000 	add	x0, x0, #0x100
    2c08:	f9000401 	str	x1, [x0,#8]
/home/rex/devel/optee/optee_os/lib/libutee/tee_user_mem.c:451 (discriminator 4)
    2c0c:	f94013a0 	ldr	x0, [x29,#32]
    2c10:	f9400400 	ldr	x0, [x0,#8]
    2c14:	f94013a1 	ldr	x1, [x29,#32]
    2c18:	f9400021 	ldr	x1, [x1]
    2c1c:	f9000001 	str	x1, [x0]
/home/rex/devel/optee/optee_os/lib/libutee/tee_user_mem.c:453 (discriminator 4)
    2c20:	f94013a0 	ldr	x0, [x29,#32]
    2c24:	f9400800 	ldr	x0, [x0,#16]
    2c28:	97fffe3c 	bl	2518 <heap_dec>
/home/rex/devel/optee/optee_os/lib/libutee/tee_user_mem.c:462 (discriminator 4)
    2c2c:	f94013a0 	ldr	x0, [x29,#32]
    2c30:	f9400800 	ldr	x0, [x0,#16]
    2c34:	aa0003e2 	mov	x2, x0
    2c38:	52801541 	mov	w1, #0xaa                  	// #170
    2c3c:	f94017a0 	ldr	x0, [x29,#40]
    2c40:	94000ad0 	bl	5780 <memset>
/home/rex/devel/optee/optee_os/lib/libutee/tee_user_mem.c:465 (discriminator 4)
    2c44:	f94017a0 	ldr	x0, [x29,#40]
    2c48:	97fffdb6 	bl	2320 <utee_free>
    2c4c:	14000002 	b	2c54 <tee_user_mem_free+0x190>
/home/rex/devel/optee/optee_os/lib/libutee/tee_user_mem.c:431
    2c50:	d503201f 	nop
/home/rex/devel/optee/optee_os/lib/libutee/tee_user_mem.c:468
    2c54:	a8c37bfd 	ldp	x29, x30, [sp],#48
    2c58:	d65f03c0 	ret

0000000000002c5c <tee_user_mem_mark_heap>:
tee_user_mem_mark_heap():
/home/rex/devel/optee/optee_os/lib/libutee/tee_user_mem.c:478
    2c5c:	900000c0 	adrp	x0, 1a000 <mempool_u32+0xe80>
    2c60:	91332000 	add	x0, x0, #0xcc8
    2c64:	f900001f 	str	xzr, [x0]
/home/rex/devel/optee/optee_os/lib/libutee/tee_user_mem.c:480
    2c68:	d503201f 	nop
    2c6c:	d65f03c0 	ret

0000000000002c70 <tee_user_mem_check_heap>:
tee_user_mem_check_heap():
/home/rex/devel/optee/optee_os/lib/libutee/tee_user_mem.c:488
    2c70:	a9be7bfd 	stp	x29, x30, [sp,#-32]!
    2c74:	910003fd 	mov	x29, sp
/home/rex/devel/optee/optee_os/lib/libutee/tee_user_mem.c:489
    2c78:	b9001fbf 	str	wzr, [x29,#28]
/home/rex/devel/optee/optee_os/lib/libutee/tee_user_mem.c:492
    2c7c:	900000c0 	adrp	x0, 1a000 <mempool_u32+0xe80>
    2c80:	91332000 	add	x0, x0, #0xcc8
    2c84:	f9400000 	ldr	x0, [x0]
    2c88:	f100001f 	cmp	x0, #0x0
    2c8c:	54000240 	b.eq	2cd4 <tee_user_mem_check_heap+0x64>
/home/rex/devel/optee/optee_os/lib/libutee/tee_user_mem.c:493
    2c90:	900000c0 	adrp	x0, 1a000 <mempool_u32+0xe80>
    2c94:	91332000 	add	x0, x0, #0xcc8
    2c98:	f9400002 	ldr	x2, [x0]
    2c9c:	b0000060 	adrp	x0, f000 <__func__.4113+0x18>
    2ca0:	91086001 	add	x1, x0, #0x218
    2ca4:	b0000060 	adrp	x0, f000 <__func__.4113+0x18>
    2ca8:	910a8000 	add	x0, x0, #0x2a0
    2cac:	aa0203e5 	mov	x5, x2
    2cb0:	aa0103e4 	mov	x4, x1
    2cb4:	52800023 	mov	w3, #0x1                   	// #1
    2cb8:	52800022 	mov	w2, #0x1                   	// #1
    2cbc:	52803da1 	mov	w1, #0x1ed                 	// #493
    2cc0:	94001418 	bl	7d20 <trace_printf>
/home/rex/devel/optee/optee_os/lib/libutee/tee_user_mem.c:495
    2cc4:	900000c0 	adrp	x0, 1a000 <mempool_u32+0xe80>
    2cc8:	91332000 	add	x0, x0, #0xcc8
    2ccc:	f9400000 	ldr	x0, [x0]
    2cd0:	14000007 	b	2cec <tee_user_mem_check_heap+0x7c>
/home/rex/devel/optee/optee_os/lib/libutee/tee_user_mem.c:498
    2cd4:	97fffea6 	bl	276c <is_mem_coherent>
    2cd8:	7100001f 	cmp	w0, #0x0
    2cdc:	1a9f17e0 	cset	w0, eq
    2ce0:	12001c00 	and	w0, w0, #0xff
    2ce4:	b9001fa0 	str	w0, [x29,#28]
/home/rex/devel/optee/optee_os/lib/libutee/tee_user_mem.c:501
    2ce8:	b9801fa0 	ldrsw	x0, [x29,#28]
/home/rex/devel/optee/optee_os/lib/libutee/tee_user_mem.c:502
    2cec:	a8c27bfd 	ldp	x29, x30, [sp],#32
    2cf0:	d65f03c0 	ret

0000000000002cf4 <tee_user_mem_status>:
tee_user_mem_status():
/home/rex/devel/optee/optee_os/lib/libutee/tee_user_mem.c:508
    2cf4:	a9bd7bfd 	stp	x29, x30, [sp,#-48]!
    2cf8:	910003fd 	mov	x29, sp
    2cfc:	f9000fa0 	str	x0, [x29,#24]
/home/rex/devel/optee/optee_os/lib/libutee/tee_user_mem.c:510
    2d00:	f9400fa0 	ldr	x0, [x29,#24]
    2d04:	f100001f 	cmp	x0, #0x0
    2d08:	540000e0 	b.eq	2d24 <tee_user_mem_status+0x30>
/home/rex/devel/optee/optee_os/lib/libutee/tee_user_mem.c:511
    2d0c:	900000c0 	adrp	x0, 1a000 <mempool_u32+0xe80>
    2d10:	91334000 	add	x0, x0, #0xcd0
    2d14:	d2800202 	mov	x2, #0x10                  	// #16
    2d18:	aa0003e1 	mov	x1, x0
    2d1c:	f9400fa0 	ldr	x0, [x29,#24]
    2d20:	940009b5 	bl	53f4 <memcpy>
/home/rex/devel/optee/optee_os/lib/libutee/tee_user_mem.c:518
    2d24:	f0000060 	adrp	x0, 11000 <ta_props>
    2d28:	91040000 	add	x0, x0, #0x100
    2d2c:	f9400000 	ldr	x0, [x0]
    2d30:	f90017a0 	str	x0, [x29,#40]
    2d34:	1400000e 	b	2d6c <tee_user_mem_status+0x78>
/home/rex/devel/optee/optee_os/lib/libutee/tee_user_mem.c:519 (discriminator 3)
    2d38:	b0000060 	adrp	x0, f000 <__func__.4113+0x18>
    2d3c:	9108e001 	add	x1, x0, #0x238
    2d40:	b0000060 	adrp	x0, f000 <__func__.4113+0x18>
    2d44:	910ae000 	add	x0, x0, #0x2b8
    2d48:	f94017a4 	ldr	x4, [x29,#40]
    2d4c:	aa0103e3 	mov	x3, x1
    2d50:	528040e2 	mov	w2, #0x207                 	// #519
    2d54:	aa0003e1 	mov	x1, x0
    2d58:	52800020 	mov	w0, #0x1                   	// #1
    2d5c:	97fffdb0 	bl	241c <print_buf>
/home/rex/devel/optee/optee_os/lib/libutee/tee_user_mem.c:518 (discriminator 3)
    2d60:	f94017a0 	ldr	x0, [x29,#40]
    2d64:	f9400000 	ldr	x0, [x0]
    2d68:	f90017a0 	str	x0, [x29,#40]
/home/rex/devel/optee/optee_os/lib/libutee/tee_user_mem.c:518 (discriminator 1)
    2d6c:	f94017a0 	ldr	x0, [x29,#40]
    2d70:	f100001f 	cmp	x0, #0x0
    2d74:	54fffe21 	b.ne	2d38 <tee_user_mem_status+0x44>
/home/rex/devel/optee/optee_os/lib/libutee/tee_user_mem.c:521
    2d78:	d503201f 	nop
    2d7c:	a8c37bfd 	ldp	x29, x30, [sp],#48
    2d80:	d65f03c0 	ret

0000000000002d84 <tee_user_mem_garbage>:
tee_user_mem_garbage():
/home/rex/devel/optee/optee_os/lib/libutee/tee_user_mem.c:537
    2d84:	a9bf7bfd 	stp	x29, x30, [sp,#-16]!
    2d88:	910003fd 	mov	x29, sp
/home/rex/devel/optee/optee_os/lib/libutee/tee_user_mem.c:539
    2d8c:	d2800000 	mov	x0, #0x0                   	// #0
    2d90:	97ffffd9 	bl	2cf4 <tee_user_mem_status>
/home/rex/devel/optee/optee_os/lib/libutee/tee_user_mem.c:542
    2d94:	14000006 	b	2dac <tee_user_mem_garbage+0x28>
/home/rex/devel/optee/optee_os/lib/libutee/tee_user_mem.c:543
    2d98:	f0000060 	adrp	x0, 11000 <ta_props>
    2d9c:	91040000 	add	x0, x0, #0x100
    2da0:	f9400000 	ldr	x0, [x0]
    2da4:	97fffd70 	bl	2364 <buf_addr>
    2da8:	97ffff47 	bl	2ac4 <tee_user_mem_free>
/home/rex/devel/optee/optee_os/lib/libutee/tee_user_mem.c:542
    2dac:	f0000060 	adrp	x0, 11000 <ta_props>
    2db0:	91040000 	add	x0, x0, #0x100
    2db4:	f9400000 	ldr	x0, [x0]
    2db8:	f100001f 	cmp	x0, #0x0
    2dbc:	54fffee1 	b.ne	2d98 <tee_user_mem_garbage+0x14>
/home/rex/devel/optee/optee_os/lib/libutee/tee_user_mem.c:544
    2dc0:	d503201f 	nop
    2dc4:	a8c17bfd 	ldp	x29, x30, [sp],#16
    2dc8:	d65f03c0 	ret

0000000000002dcc <trace_ext_puts>:
trace_ext_puts():
/home/rex/devel/optee/optee_os/lib/libutee/trace_ext.c:39
    2dcc:	a9be7bfd 	stp	x29, x30, [sp,#-32]!
    2dd0:	910003fd 	mov	x29, sp
    2dd4:	f9000fa0 	str	x0, [x29,#24]
/home/rex/devel/optee/optee_os/lib/libutee/trace_ext.c:40
    2dd8:	f9400fa0 	ldr	x0, [x29,#24]
    2ddc:	94000adc 	bl	594c <strlen>
    2de0:	aa0003e1 	mov	x1, x0
    2de4:	f9400fa0 	ldr	x0, [x29,#24]
    2de8:	97fff637 	bl	6c4 <utee_log>
/home/rex/devel/optee/optee_os/lib/libutee/trace_ext.c:41
    2dec:	d503201f 	nop
    2df0:	a8c27bfd 	ldp	x29, x30, [sp],#32
    2df4:	d65f03c0 	ret

0000000000002df8 <trace_ext_get_thread_id>:
trace_ext_get_thread_id():
/home/rex/devel/optee/optee_os/lib/libutee/trace_ext.c:45
    2df8:	12800000 	mov	w0, #0xffffffff            	// #-1
/home/rex/devel/optee/optee_os/lib/libutee/trace_ext.c:46
    2dfc:	d65f03c0 	ret

0000000000002e00 <printf>:
printf():
/home/rex/devel/optee/optee_os/lib/libutee/trace_ext.c:56
    2e00:	d10903ff 	sub	sp, sp, #0x240
    2e04:	a9007bfd 	stp	x29, x30, [sp]
    2e08:	910003fd 	mov	x29, sp
    2e0c:	f9000bf3 	str	x19, [sp,#16]
    2e10:	f90027a0 	str	x0, [x29,#72]
    2e14:	f90107a1 	str	x1, [x29,#520]
    2e18:	f9010ba2 	str	x2, [x29,#528]
    2e1c:	f9010fa3 	str	x3, [x29,#536]
    2e20:	f90113a4 	str	x4, [x29,#544]
    2e24:	f90117a5 	str	x5, [x29,#552]
    2e28:	f9011ba6 	str	x6, [x29,#560]
    2e2c:	f9011fa7 	str	x7, [x29,#568]
    2e30:	910403a0 	add	x0, x29, #0x100
    2e34:	3d802000 	str	q0, [x0,#128]
    2e38:	910403a0 	add	x0, x29, #0x100
    2e3c:	3d802401 	str	q1, [x0,#144]
    2e40:	910403a0 	add	x0, x29, #0x100
    2e44:	3d802802 	str	q2, [x0,#160]
    2e48:	910403a0 	add	x0, x29, #0x100
    2e4c:	3d802c03 	str	q3, [x0,#176]
    2e50:	910403a0 	add	x0, x29, #0x100
    2e54:	3d803004 	str	q4, [x0,#192]
    2e58:	910403a0 	add	x0, x29, #0x100
    2e5c:	3d803405 	str	q5, [x0,#208]
    2e60:	910403a0 	add	x0, x29, #0x100
    2e64:	3d803806 	str	q6, [x0,#224]
    2e68:	910403a0 	add	x0, x29, #0x100
    2e6c:	3d803c07 	str	q7, [x0,#240]
/home/rex/devel/optee/optee_os/lib/libutee/trace_ext.c:64
    2e70:	9400138b 	bl	7c9c <trace_get_level>
    2e74:	7100001f 	cmp	w0, #0x0
    2e78:	5400006c 	b.gt	2e84 <printf+0x84>
/home/rex/devel/optee/optee_os/lib/libutee/trace_ext.c:65
    2e7c:	52800000 	mov	w0, #0x0                   	// #0
    2e80:	14000050 	b	2fc0 <printf+0x1c0>
/home/rex/devel/optee/optee_os/lib/libutee/trace_ext.c:67
    2e84:	b0000060 	adrp	x0, f000 <__func__.4113+0x18>
    2e88:	910b4001 	add	x1, x0, #0x2d0
    2e8c:	9101e3a0 	add	x0, x29, #0x78
    2e90:	d2802002 	mov	x2, #0x100                 	// #256
    2e94:	94001340 	bl	7b94 <strlcpy>
    2e98:	b9017fa0 	str	w0, [x29,#380]
/home/rex/devel/optee/optee_os/lib/libutee/trace_ext.c:68
    2e9c:	b9417fa0 	ldr	w0, [x29,#380]
    2ea0:	7103fc1f 	cmp	w0, #0xff
    2ea4:	540000c9 	b.ls	2ebc <printf+0xbc>
/home/rex/devel/optee/optee_os/lib/libutee/trace_ext.c:69
    2ea8:	b0000060 	adrp	x0, f000 <__func__.4113+0x18>
    2eac:	910b8000 	add	x0, x0, #0x2e0
    2eb0:	94000048 	bl	2fd0 <puts>
/home/rex/devel/optee/optee_os/lib/libutee/trace_ext.c:70
    2eb4:	52800000 	mov	w0, #0x0                   	// #0
    2eb8:	14000042 	b	2fc0 <printf+0x1c0>
/home/rex/devel/optee/optee_os/lib/libutee/trace_ext.c:73
    2ebc:	910903a0 	add	x0, x29, #0x240
    2ec0:	f9002fa0 	str	x0, [x29,#88]
    2ec4:	910903a0 	add	x0, x29, #0x240
    2ec8:	f90033a0 	str	x0, [x29,#96]
    2ecc:	910803a0 	add	x0, x29, #0x200
    2ed0:	f90037a0 	str	x0, [x29,#104]
    2ed4:	128006e0 	mov	w0, #0xffffffc8            	// #-56
    2ed8:	b90073a0 	str	w0, [x29,#112]
    2edc:	12800fe0 	mov	w0, #0xffffff80            	// #-128
    2ee0:	b90077a0 	str	w0, [x29,#116]
/home/rex/devel/optee/optee_os/lib/libutee/trace_ext.c:74
    2ee4:	b9817fa0 	ldrsw	x0, [x29,#380]
    2ee8:	9101e3a1 	add	x1, x29, #0x78
    2eec:	8b000024 	add	x4, x1, x0
    2ef0:	b9817fa0 	ldrsw	x0, [x29,#380]
    2ef4:	d2802001 	mov	x1, #0x100                 	// #256
    2ef8:	cb000021 	sub	x1, x1, x0
    2efc:	f9402fa0 	ldr	x0, [x29,#88]
    2f00:	f90013a0 	str	x0, [x29,#32]
    2f04:	f94033a0 	ldr	x0, [x29,#96]
    2f08:	f90017a0 	str	x0, [x29,#40]
    2f0c:	f94037a0 	ldr	x0, [x29,#104]
    2f10:	f9001ba0 	str	x0, [x29,#48]
    2f14:	f9403ba0 	ldr	x0, [x29,#112]
    2f18:	f9001fa0 	str	x0, [x29,#56]
    2f1c:	910083a0 	add	x0, x29, #0x20
    2f20:	aa0003e3 	mov	x3, x0
    2f24:	f94027a2 	ldr	x2, [x29,#72]
    2f28:	aa0403e0 	mov	x0, x4
    2f2c:	940008cf 	bl	5268 <vsnprintf>
    2f30:	b9017fa0 	str	w0, [x29,#380]
/home/rex/devel/optee/optee_os/lib/libutee/trace_ext.c:77
    2f34:	b9417fa0 	ldr	w0, [x29,#380]
    2f38:	7100001f 	cmp	w0, #0x0
    2f3c:	540000ca 	b.ge	2f54 <printf+0x154>
/home/rex/devel/optee/optee_os/lib/libutee/trace_ext.c:78
    2f40:	b0000060 	adrp	x0, f000 <__func__.4113+0x18>
    2f44:	910b8000 	add	x0, x0, #0x2e0
    2f48:	94000022 	bl	2fd0 <puts>
/home/rex/devel/optee/optee_os/lib/libutee/trace_ext.c:79
    2f4c:	b9417fa0 	ldr	w0, [x29,#380]
    2f50:	1400001c 	b	2fc0 <printf+0x1c0>
/home/rex/devel/optee/optee_os/lib/libutee/trace_ext.c:81
    2f54:	b9417fa0 	ldr	w0, [x29,#380]
    2f58:	2a0003f3 	mov	w19, w0
    2f5c:	b0000060 	adrp	x0, f000 <__func__.4113+0x18>
    2f60:	910b4000 	add	x0, x0, #0x2d0
    2f64:	94000a7a 	bl	594c <strlen>
    2f68:	aa0003e1 	mov	x1, x0
    2f6c:	d2802000 	mov	x0, #0x100                 	// #256
    2f70:	cb010000 	sub	x0, x0, x1
    2f74:	eb00027f 	cmp	x19, x0
    2f78:	540001e3 	b.cc	2fb4 <printf+0x1b4>
/home/rex/devel/optee/optee_os/lib/libutee/trace_ext.c:82
    2f7c:	b0000060 	adrp	x0, f000 <__func__.4113+0x18>
    2f80:	910be000 	add	x0, x0, #0x2f8
    2f84:	39400001 	ldrb	w1, [x0]
    2f88:	3905cfa1 	strb	w1, [x29,#371]
    2f8c:	39400401 	ldrb	w1, [x0,#1]
    2f90:	3905d3a1 	strb	w1, [x29,#372]
    2f94:	39400801 	ldrb	w1, [x0,#2]
    2f98:	3905d7a1 	strb	w1, [x29,#373]
    2f9c:	39400c01 	ldrb	w1, [x0,#3]
    2fa0:	3905dba1 	strb	w1, [x29,#374]
    2fa4:	39401000 	ldrb	w0, [x0,#4]
    2fa8:	3905dfa0 	strb	w0, [x29,#375]
/home/rex/devel/optee/optee_os/lib/libutee/trace_ext.c:84
    2fac:	52801e20 	mov	w0, #0xf1                  	// #241
    2fb0:	b9017fa0 	str	w0, [x29,#380]
/home/rex/devel/optee/optee_os/lib/libutee/trace_ext.c:87
    2fb4:	9101e3a0 	add	x0, x29, #0x78
    2fb8:	94000006 	bl	2fd0 <puts>
/home/rex/devel/optee/optee_os/lib/libutee/trace_ext.c:89
    2fbc:	b9417fa0 	ldr	w0, [x29,#380]
/home/rex/devel/optee/optee_os/lib/libutee/trace_ext.c:90 (discriminator 1)
    2fc0:	f9400bf3 	ldr	x19, [sp,#16]
    2fc4:	a9407bfd 	ldp	x29, x30, [sp]
    2fc8:	910903ff 	add	sp, sp, #0x240
    2fcc:	d65f03c0 	ret

0000000000002fd0 <puts>:
puts():
/home/rex/devel/optee/optee_os/lib/libutee/trace_ext.c:93
    2fd0:	a9be7bfd 	stp	x29, x30, [sp,#-32]!
    2fd4:	910003fd 	mov	x29, sp
    2fd8:	f9000fa0 	str	x0, [x29,#24]
/home/rex/devel/optee/optee_os/lib/libutee/trace_ext.c:94
    2fdc:	94001330 	bl	7c9c <trace_get_level>
    2fe0:	7100001f 	cmp	w0, #0x0
    2fe4:	5400006d 	b.le	2ff0 <puts+0x20>
/home/rex/devel/optee/optee_os/lib/libutee/trace_ext.c:95
    2fe8:	f9400fa0 	ldr	x0, [x29,#24]
    2fec:	97ffff78 	bl	2dcc <trace_ext_puts>
/home/rex/devel/optee/optee_os/lib/libutee/trace_ext.c:96
    2ff0:	52800020 	mov	w0, #0x1                   	// #1
/home/rex/devel/optee/optee_os/lib/libutee/trace_ext.c:97
    2ff4:	a8c27bfd 	ldp	x29, x30, [sp],#32
    2ff8:	d65f03c0 	ret

0000000000002ffc <_assert_log>:
_assert_log():
/home/rex/devel/optee/optee_os/lib/libutee/assert.c:39
    2ffc:	d10103ff 	sub	sp, sp, #0x40
    3000:	a9017bfd 	stp	x29, x30, [sp,#16]
    3004:	910043fd 	add	x29, sp, #0x10
    3008:	f90017a0 	str	x0, [x29,#40]
    300c:	f90013a1 	str	x1, [x29,#32]
    3010:	b9001fa2 	str	w2, [x29,#28]
    3014:	f9000ba3 	str	x3, [x29,#16]
/home/rex/devel/optee/optee_os/lib/libutee/assert.c:40
    3018:	90000060 	adrp	x0, f000 <__func__.4113+0x18>
    301c:	910c0001 	add	x1, x0, #0x300
    3020:	f9400ba0 	ldr	x0, [x29,#16]
    3024:	f90003e0 	str	x0, [sp]
    3028:	b9401fa7 	ldr	w7, [x29,#28]
    302c:	f94013a6 	ldr	x6, [x29,#32]
    3030:	f94017a5 	ldr	x5, [x29,#40]
    3034:	aa0103e4 	mov	x4, x1
    3038:	52800023 	mov	w3, #0x1                   	// #1
    303c:	52800022 	mov	w2, #0x1                   	// #1
    3040:	52800001 	mov	w1, #0x0                   	// #0
    3044:	d2800000 	mov	x0, #0x0                   	// #0
    3048:	94001336 	bl	7d20 <trace_printf>
/home/rex/devel/optee/optee_os/lib/libutee/assert.c:42
    304c:	d503201f 	nop
    3050:	a9417bfd 	ldp	x29, x30, [sp,#16]
    3054:	910103ff 	add	sp, sp, #0x40
    3058:	d65f03c0 	ret

000000000000305c <_assert_break>:
_assert_break():
/home/rex/devel/optee/optee_os/lib/libutee/assert.c:45
    305c:	a9bf7bfd 	stp	x29, x30, [sp,#-16]!
    3060:	910003fd 	mov	x29, sp
/home/rex/devel/optee/optee_os/lib/libutee/assert.c:46
    3064:	d2bfffe0 	mov	x0, #0xffff0000            	// #4294901760
    3068:	97fff59a 	bl	6d0 <utee_panic>

000000000000306c <malloc_lock>:
malloc_lock():
/home/rex/devel/optee/optee_os/lib/libutils/isoc/bget_malloc.c:140
    306c:	52800000 	mov	w0, #0x0                   	// #0
/home/rex/devel/optee/optee_os/lib/libutils/isoc/bget_malloc.c:141
    3070:	d65f03c0 	ret

0000000000003074 <malloc_unlock>:
malloc_unlock():
/home/rex/devel/optee/optee_os/lib/libutils/isoc/bget_malloc.c:144
    3074:	d10043ff 	sub	sp, sp, #0x10
    3078:	b9000fe0 	str	w0, [sp,#12]
/home/rex/devel/optee/optee_os/lib/libutils/isoc/bget_malloc.c:145
    307c:	d503201f 	nop
    3080:	910043ff 	add	sp, sp, #0x10
    3084:	d65f03c0 	ret

0000000000003088 <tag_asan_free>:
tag_asan_free():
/home/rex/devel/optee/optee_os/lib/libutils/isoc/bget_malloc.c:148
    3088:	d10043ff 	sub	sp, sp, #0x10
    308c:	f90007e0 	str	x0, [sp,#8]
    3090:	f90003e1 	str	x1, [sp]
/home/rex/devel/optee/optee_os/lib/libutils/isoc/bget_malloc.c:149
    3094:	d503201f 	nop
    3098:	910043ff 	add	sp, sp, #0x10
    309c:	d65f03c0 	ret

00000000000030a0 <tag_asan_alloced>:
tag_asan_alloced():
/home/rex/devel/optee/optee_os/lib/libutils/isoc/bget_malloc.c:152
    30a0:	d10043ff 	sub	sp, sp, #0x10
    30a4:	f90007e0 	str	x0, [sp,#8]
    30a8:	f90003e1 	str	x1, [sp]
/home/rex/devel/optee/optee_os/lib/libutils/isoc/bget_malloc.c:153
    30ac:	d503201f 	nop
    30b0:	910043ff 	add	sp, sp, #0x10
    30b4:	d65f03c0 	ret

00000000000030b8 <bget>:
bget():
/home/rex/devel/optee/optee_os/lib/libutils/isoc/bget.c:575
    30b8:	a9bb7bfd 	stp	x29, x30, [sp,#-80]!
    30bc:	910003fd 	mov	x29, sp
    30c0:	f9000fa0 	str	x0, [x29,#24]
/home/rex/devel/optee/optee_os/lib/libutils/isoc/bget.c:576
    30c4:	f9400fa0 	ldr	x0, [x29,#24]
    30c8:	f90027a0 	str	x0, [x29,#72]
/home/rex/devel/optee/optee_os/lib/libutils/isoc/bget.c:586
    30cc:	f94027a0 	ldr	x0, [x29,#72]
    30d0:	f100001f 	cmp	x0, #0x0
    30d4:	5400016c 	b.gt	3100 <bget+0x48>
/home/rex/devel/optee/optee_os/lib/libutils/isoc/bget.c:586 (discriminator 1)
    30d8:	90000060 	adrp	x0, f000 <__func__.4113+0x18>
    30dc:	911e0002 	add	x2, x0, #0x780
    30e0:	90000060 	adrp	x0, f000 <__func__.4113+0x18>
    30e4:	910ca001 	add	x1, x0, #0x328
    30e8:	90000060 	adrp	x0, f000 <__func__.4113+0x18>
    30ec:	910d2000 	add	x0, x0, #0x348
    30f0:	aa0203e3 	mov	x3, x2
    30f4:	52804942 	mov	w2, #0x24a                 	// #586
    30f8:	97ffffc1 	bl	2ffc <_assert_log>
    30fc:	97ffffd8 	bl	305c <_assert_break>
/home/rex/devel/optee/optee_os/lib/libutils/isoc/bget.c:588
    3100:	f94027a0 	ldr	x0, [x29,#72]
    3104:	f1003c1f 	cmp	x0, #0xf
    3108:	54000068 	b.hi	3114 <bget+0x5c>
/home/rex/devel/optee/optee_os/lib/libutils/isoc/bget.c:589
    310c:	d2800200 	mov	x0, #0x10                  	// #16
    3110:	f90027a0 	str	x0, [x29,#72]
/home/rex/devel/optee/optee_os/lib/libutils/isoc/bget.c:593
    3114:	f94027a0 	ldr	x0, [x29,#72]
    3118:	91003c00 	add	x0, x0, #0xf
    311c:	927cec00 	and	x0, x0, #0xfffffffffffffff0
    3120:	f90027a0 	str	x0, [x29,#72]
/home/rex/devel/optee/optee_os/lib/libutils/isoc/bget.c:597
    3124:	f94027a0 	ldr	x0, [x29,#72]
    3128:	91004000 	add	x0, x0, #0x10
    312c:	f90027a0 	str	x0, [x29,#72]
/home/rex/devel/optee/optee_os/lib/libutils/isoc/bget.c:607
    3130:	d0000060 	adrp	x0, 11000 <ta_props>
    3134:	91044000 	add	x0, x0, #0x110
    3138:	f9400800 	ldr	x0, [x0,#16]
    313c:	f90023a0 	str	x0, [x29,#64]
/home/rex/devel/optee/optee_os/lib/libutils/isoc/bget.c:628
    3140:	140000b3 	b	340c <bget+0x354>
/home/rex/devel/optee/optee_os/lib/libutils/isoc/bget.c:629
    3144:	f94023a0 	ldr	x0, [x29,#64]
    3148:	f9400401 	ldr	x1, [x0,#8]
    314c:	f94027a0 	ldr	x0, [x29,#72]
    3150:	eb00003f 	cmp	x1, x0
    3154:	5400156b 	b.lt	3400 <bget+0x348>
/home/rex/devel/optee/optee_os/lib/libutils/isoc/bget.c:640
    3158:	f94023a0 	ldr	x0, [x29,#64]
    315c:	f9400401 	ldr	x1, [x0,#8]
    3160:	f94027a0 	ldr	x0, [x29,#72]
    3164:	cb000020 	sub	x0, x1, x0
    3168:	f100801f 	cmp	x0, #0x20
    316c:	540008a9 	b.ls	3280 <bget+0x1c8>
/home/rex/devel/optee/optee_os/lib/libutils/isoc/bget.c:643
    3170:	f94023a0 	ldr	x0, [x29,#64]
    3174:	f9400401 	ldr	x1, [x0,#8]
    3178:	f94027a0 	ldr	x0, [x29,#72]
    317c:	cb000020 	sub	x0, x1, x0
    3180:	aa0003e1 	mov	x1, x0
    3184:	f94023a0 	ldr	x0, [x29,#64]
    3188:	8b010000 	add	x0, x0, x1
    318c:	f9001fa0 	str	x0, [x29,#56]
/home/rex/devel/optee/optee_os/lib/libutils/isoc/bget.c:644
    3190:	f94027a0 	ldr	x0, [x29,#72]
    3194:	f9401fa1 	ldr	x1, [x29,#56]
    3198:	8b000020 	add	x0, x1, x0
    319c:	f9001ba0 	str	x0, [x29,#48]
/home/rex/devel/optee/optee_os/lib/libutils/isoc/bget.c:645
    31a0:	f9401ba0 	ldr	x0, [x29,#48]
    31a4:	f9400001 	ldr	x1, [x0]
    31a8:	f94023a0 	ldr	x0, [x29,#64]
    31ac:	f9400400 	ldr	x0, [x0,#8]
    31b0:	eb00003f 	cmp	x1, x0
    31b4:	54000160 	b.eq	31e0 <bget+0x128>
/home/rex/devel/optee/optee_os/lib/libutils/isoc/bget.c:645 (discriminator 1)
    31b8:	90000060 	adrp	x0, f000 <__func__.4113+0x18>
    31bc:	911e0002 	add	x2, x0, #0x780
    31c0:	90000060 	adrp	x0, f000 <__func__.4113+0x18>
    31c4:	910ca001 	add	x1, x0, #0x328
    31c8:	90000060 	adrp	x0, f000 <__func__.4113+0x18>
    31cc:	910d6000 	add	x0, x0, #0x358
    31d0:	aa0203e3 	mov	x3, x2
    31d4:	528050a2 	mov	w2, #0x285                 	// #645
    31d8:	97ffff89 	bl	2ffc <_assert_log>
    31dc:	97ffffa0 	bl	305c <_assert_break>
/home/rex/devel/optee/optee_os/lib/libutils/isoc/bget.c:647
    31e0:	f94023a0 	ldr	x0, [x29,#64]
    31e4:	f9400401 	ldr	x1, [x0,#8]
    31e8:	f94027a0 	ldr	x0, [x29,#72]
    31ec:	cb000021 	sub	x1, x1, x0
    31f0:	f94023a0 	ldr	x0, [x29,#64]
    31f4:	f9000401 	str	x1, [x0,#8]
/home/rex/devel/optee/optee_os/lib/libutils/isoc/bget.c:649
    31f8:	f94023a0 	ldr	x0, [x29,#64]
    31fc:	f9400401 	ldr	x1, [x0,#8]
    3200:	f9401fa0 	ldr	x0, [x29,#56]
    3204:	f9000001 	str	x1, [x0]
/home/rex/devel/optee/optee_os/lib/libutils/isoc/bget.c:651
    3208:	f94027a0 	ldr	x0, [x29,#72]
    320c:	cb0003e1 	neg	x1, x0
    3210:	f9401fa0 	ldr	x0, [x29,#56]
    3214:	f9000401 	str	x1, [x0,#8]
/home/rex/devel/optee/optee_os/lib/libutils/isoc/bget.c:653
    3218:	f9401ba0 	ldr	x0, [x29,#48]
    321c:	f900001f 	str	xzr, [x0]
/home/rex/devel/optee/optee_os/lib/libutils/isoc/bget.c:656
    3220:	f00000a0 	adrp	x0, 1a000 <mempool_u32+0xe80>
    3224:	91338000 	add	x0, x0, #0xce0
    3228:	f9400001 	ldr	x1, [x0]
    322c:	f94027a0 	ldr	x0, [x29,#72]
    3230:	8b000021 	add	x1, x1, x0
    3234:	f00000a0 	adrp	x0, 1a000 <mempool_u32+0xe80>
    3238:	91338000 	add	x0, x0, #0xce0
    323c:	f9000001 	str	x1, [x0]
/home/rex/devel/optee/optee_os/lib/libutils/isoc/bget.c:657
    3240:	f00000a0 	adrp	x0, 1a000 <mempool_u32+0xe80>
    3244:	9133a000 	add	x0, x0, #0xce8
    3248:	f9400000 	ldr	x0, [x0]
    324c:	91000401 	add	x1, x0, #0x1
    3250:	f00000a0 	adrp	x0, 1a000 <mempool_u32+0xe80>
    3254:	9133a000 	add	x0, x0, #0xce8
    3258:	f9000001 	str	x1, [x0]
/home/rex/devel/optee/optee_os/lib/libutils/isoc/bget.c:659
    325c:	f9401fa0 	ldr	x0, [x29,#56]
    3260:	91004000 	add	x0, x0, #0x10
    3264:	f90017a0 	str	x0, [x29,#40]
/home/rex/devel/optee/optee_os/lib/libutils/isoc/bget.c:660
    3268:	f94027a0 	ldr	x0, [x29,#72]
    326c:	aa0003e1 	mov	x1, x0
    3270:	f94017a0 	ldr	x0, [x29,#40]
    3274:	97ffff8b 	bl	30a0 <tag_asan_alloced>
/home/rex/devel/optee/optee_os/lib/libutils/isoc/bget.c:661
    3278:	f94017a0 	ldr	x0, [x29,#40]
    327c:	1400006a 	b	3424 <bget+0x36c>
/home/rex/devel/optee/optee_os/lib/libutils/isoc/bget.c:665
    3280:	f94023a0 	ldr	x0, [x29,#64]
    3284:	f9400400 	ldr	x0, [x0,#8]
    3288:	aa0003e1 	mov	x1, x0
    328c:	f94023a0 	ldr	x0, [x29,#64]
    3290:	8b010000 	add	x0, x0, x1
    3294:	f90013a0 	str	x0, [x29,#32]
/home/rex/devel/optee/optee_os/lib/libutils/isoc/bget.c:666
    3298:	f94013a0 	ldr	x0, [x29,#32]
    329c:	f9400001 	ldr	x1, [x0]
    32a0:	f94023a0 	ldr	x0, [x29,#64]
    32a4:	f9400400 	ldr	x0, [x0,#8]
    32a8:	eb00003f 	cmp	x1, x0
    32ac:	54000160 	b.eq	32d8 <bget+0x220>
/home/rex/devel/optee/optee_os/lib/libutils/isoc/bget.c:666 (discriminator 1)
    32b0:	90000060 	adrp	x0, f000 <__func__.4113+0x18>
    32b4:	911e0002 	add	x2, x0, #0x780
    32b8:	90000060 	adrp	x0, f000 <__func__.4113+0x18>
    32bc:	910ca001 	add	x1, x0, #0x328
    32c0:	90000060 	adrp	x0, f000 <__func__.4113+0x18>
    32c4:	910de000 	add	x0, x0, #0x378
    32c8:	aa0203e3 	mov	x3, x2
    32cc:	52805342 	mov	w2, #0x29a                 	// #666
    32d0:	97ffff4b 	bl	2ffc <_assert_log>
    32d4:	97ffff62 	bl	305c <_assert_break>
/home/rex/devel/optee/optee_os/lib/libutils/isoc/bget.c:671
    32d8:	f94023a0 	ldr	x0, [x29,#64]
    32dc:	f9400c00 	ldr	x0, [x0,#24]
    32e0:	f9400801 	ldr	x1, [x0,#16]
    32e4:	f94023a0 	ldr	x0, [x29,#64]
    32e8:	eb00003f 	cmp	x1, x0
    32ec:	54000160 	b.eq	3318 <bget+0x260>
/home/rex/devel/optee/optee_os/lib/libutils/isoc/bget.c:671 (discriminator 1)
    32f0:	90000060 	adrp	x0, f000 <__func__.4113+0x18>
    32f4:	911e0002 	add	x2, x0, #0x780
    32f8:	90000060 	adrp	x0, f000 <__func__.4113+0x18>
    32fc:	910ca001 	add	x1, x0, #0x328
    3300:	90000060 	adrp	x0, f000 <__func__.4113+0x18>
    3304:	910e6000 	add	x0, x0, #0x398
    3308:	aa0203e3 	mov	x3, x2
    330c:	528053e2 	mov	w2, #0x29f                 	// #671
    3310:	97ffff3b 	bl	2ffc <_assert_log>
    3314:	97ffff52 	bl	305c <_assert_break>
/home/rex/devel/optee/optee_os/lib/libutils/isoc/bget.c:672
    3318:	f94023a0 	ldr	x0, [x29,#64]
    331c:	f9400800 	ldr	x0, [x0,#16]
    3320:	f9400c01 	ldr	x1, [x0,#24]
    3324:	f94023a0 	ldr	x0, [x29,#64]
    3328:	eb00003f 	cmp	x1, x0
    332c:	54000160 	b.eq	3358 <bget+0x2a0>
/home/rex/devel/optee/optee_os/lib/libutils/isoc/bget.c:672 (discriminator 1)
    3330:	90000060 	adrp	x0, f000 <__func__.4113+0x18>
    3334:	911e0002 	add	x2, x0, #0x780
    3338:	90000060 	adrp	x0, f000 <__func__.4113+0x18>
    333c:	910ca001 	add	x1, x0, #0x328
    3340:	90000060 	adrp	x0, f000 <__func__.4113+0x18>
    3344:	910ee000 	add	x0, x0, #0x3b8
    3348:	aa0203e3 	mov	x3, x2
    334c:	52805402 	mov	w2, #0x2a0                 	// #672
    3350:	97ffff2b 	bl	2ffc <_assert_log>
    3354:	97ffff42 	bl	305c <_assert_break>
/home/rex/devel/optee/optee_os/lib/libutils/isoc/bget.c:673
    3358:	f94023a0 	ldr	x0, [x29,#64]
    335c:	f9400c00 	ldr	x0, [x0,#24]
    3360:	f94023a1 	ldr	x1, [x29,#64]
    3364:	f9400821 	ldr	x1, [x1,#16]
    3368:	f9000801 	str	x1, [x0,#16]
/home/rex/devel/optee/optee_os/lib/libutils/isoc/bget.c:674
    336c:	f94023a0 	ldr	x0, [x29,#64]
    3370:	f9400800 	ldr	x0, [x0,#16]
    3374:	f94023a1 	ldr	x1, [x29,#64]
    3378:	f9400c21 	ldr	x1, [x1,#24]
    337c:	f9000c01 	str	x1, [x0,#24]
/home/rex/devel/optee/optee_os/lib/libutils/isoc/bget.c:677
    3380:	f94023a0 	ldr	x0, [x29,#64]
    3384:	f9400401 	ldr	x1, [x0,#8]
    3388:	f00000a0 	adrp	x0, 1a000 <mempool_u32+0xe80>
    338c:	91338000 	add	x0, x0, #0xce0
    3390:	f9400000 	ldr	x0, [x0]
    3394:	8b000021 	add	x1, x1, x0
    3398:	f00000a0 	adrp	x0, 1a000 <mempool_u32+0xe80>
    339c:	91338000 	add	x0, x0, #0xce0
    33a0:	f9000001 	str	x1, [x0]
/home/rex/devel/optee/optee_os/lib/libutils/isoc/bget.c:678
    33a4:	f00000a0 	adrp	x0, 1a000 <mempool_u32+0xe80>
    33a8:	9133a000 	add	x0, x0, #0xce8
    33ac:	f9400000 	ldr	x0, [x0]
    33b0:	91000401 	add	x1, x0, #0x1
    33b4:	f00000a0 	adrp	x0, 1a000 <mempool_u32+0xe80>
    33b8:	9133a000 	add	x0, x0, #0xce8
    33bc:	f9000001 	str	x1, [x0]
/home/rex/devel/optee/optee_os/lib/libutils/isoc/bget.c:681
    33c0:	f94023a0 	ldr	x0, [x29,#64]
    33c4:	f9400400 	ldr	x0, [x0,#8]
    33c8:	cb0003e1 	neg	x1, x0
    33cc:	f94023a0 	ldr	x0, [x29,#64]
    33d0:	f9000401 	str	x1, [x0,#8]
/home/rex/devel/optee/optee_os/lib/libutils/isoc/bget.c:685
    33d4:	f94013a0 	ldr	x0, [x29,#32]
    33d8:	f900001f 	str	xzr, [x0]
/home/rex/devel/optee/optee_os/lib/libutils/isoc/bget.c:688
    33dc:	f94023a0 	ldr	x0, [x29,#64]
    33e0:	91004000 	add	x0, x0, #0x10
    33e4:	f90017a0 	str	x0, [x29,#40]
/home/rex/devel/optee/optee_os/lib/libutils/isoc/bget.c:689
    33e8:	f94027a0 	ldr	x0, [x29,#72]
    33ec:	aa0003e1 	mov	x1, x0
    33f0:	f94017a0 	ldr	x0, [x29,#40]
    33f4:	97ffff2b 	bl	30a0 <tag_asan_alloced>
/home/rex/devel/optee/optee_os/lib/libutils/isoc/bget.c:690
    33f8:	f94017a0 	ldr	x0, [x29,#40]
    33fc:	1400000a 	b	3424 <bget+0x36c>
/home/rex/devel/optee/optee_os/lib/libutils/isoc/bget.c:693
    3400:	f94023a0 	ldr	x0, [x29,#64]
    3404:	f9400800 	ldr	x0, [x0,#16]
    3408:	f90023a0 	str	x0, [x29,#64]
/home/rex/devel/optee/optee_os/lib/libutils/isoc/bget.c:628
    340c:	f94023a1 	ldr	x1, [x29,#64]
    3410:	d0000060 	adrp	x0, 11000 <ta_props>
    3414:	91044000 	add	x0, x0, #0x110
    3418:	eb00003f 	cmp	x1, x0
    341c:	54ffe941 	b.ne	3144 <bget+0x8c>
/home/rex/devel/optee/optee_os/lib/libutils/isoc/bget.c:755
    3420:	d2800000 	mov	x0, #0x0                   	// #0
/home/rex/devel/optee/optee_os/lib/libutils/isoc/bget.c:756
    3424:	a8c57bfd 	ldp	x29, x30, [sp],#80
    3428:	d65f03c0 	ret

000000000000342c <bgetz>:
bgetz():
/home/rex/devel/optee/optee_os/lib/libutils/isoc/bget.c:764
    342c:	a9bc7bfd 	stp	x29, x30, [sp,#-64]!
    3430:	910003fd 	mov	x29, sp
    3434:	f9000fa0 	str	x0, [x29,#24]
/home/rex/devel/optee/optee_os/lib/libutils/isoc/bget.c:765
    3438:	f9400fa0 	ldr	x0, [x29,#24]
    343c:	97ffff1f 	bl	30b8 <bget>
    3440:	f9001ba0 	str	x0, [x29,#48]
/home/rex/devel/optee/optee_os/lib/libutils/isoc/bget.c:767
    3444:	f9401ba0 	ldr	x0, [x29,#48]
    3448:	f100001f 	cmp	x0, #0x0
    344c:	54000540 	b.eq	34f4 <bgetz+0xc8>
/home/rex/devel/optee/optee_os/lib/libutils/isoc/bget.c:771
    3450:	f9401ba0 	ldr	x0, [x29,#48]
    3454:	d1004000 	sub	x0, x0, #0x10
    3458:	f90017a0 	str	x0, [x29,#40]
/home/rex/devel/optee/optee_os/lib/libutils/isoc/bget.c:772
    345c:	f94017a0 	ldr	x0, [x29,#40]
    3460:	f9400400 	ldr	x0, [x0,#8]
    3464:	cb0003e0 	neg	x0, x0
    3468:	f9001fa0 	str	x0, [x29,#56]
/home/rex/devel/optee/optee_os/lib/libutils/isoc/bget.c:773
    346c:	f9401fa0 	ldr	x0, [x29,#56]
    3470:	f100001f 	cmp	x0, #0x0
    3474:	54000121 	b.ne	3498 <bgetz+0x6c>
/home/rex/devel/optee/optee_os/lib/libutils/isoc/bget.c:776
    3478:	f9401ba0 	ldr	x0, [x29,#48]
    347c:	d1006000 	sub	x0, x0, #0x18
    3480:	f90013a0 	str	x0, [x29,#32]
/home/rex/devel/optee/optee_os/lib/libutils/isoc/bget.c:777
    3484:	f94013a0 	ldr	x0, [x29,#32]
    3488:	f9400000 	ldr	x0, [x0]
    348c:	d1006000 	sub	x0, x0, #0x18
    3490:	f9001fa0 	str	x0, [x29,#56]
    3494:	14000004 	b	34a4 <bgetz+0x78>
/home/rex/devel/optee/optee_os/lib/libutils/isoc/bget.c:779
    3498:	f9401fa0 	ldr	x0, [x29,#56]
    349c:	d1004000 	sub	x0, x0, #0x10
    34a0:	f9001fa0 	str	x0, [x29,#56]
/home/rex/devel/optee/optee_os/lib/libutils/isoc/bget.c:781
    34a4:	f9401fa1 	ldr	x1, [x29,#56]
    34a8:	f9400fa0 	ldr	x0, [x29,#24]
    34ac:	eb00003f 	cmp	x1, x0
    34b0:	5400016a 	b.ge	34dc <bgetz+0xb0>
/home/rex/devel/optee/optee_os/lib/libutils/isoc/bget.c:781 (discriminator 1)
    34b4:	90000060 	adrp	x0, f000 <__func__.4113+0x18>
    34b8:	911e2002 	add	x2, x0, #0x788
    34bc:	90000060 	adrp	x0, f000 <__func__.4113+0x18>
    34c0:	910ca001 	add	x1, x0, #0x328
    34c4:	90000060 	adrp	x0, f000 <__func__.4113+0x18>
    34c8:	910f6000 	add	x0, x0, #0x3d8
    34cc:	aa0203e3 	mov	x3, x2
    34d0:	528061a2 	mov	w2, #0x30d                 	// #781
    34d4:	97fffeca 	bl	2ffc <_assert_log>
    34d8:	97fffee1 	bl	305c <_assert_break>
/home/rex/devel/optee/optee_os/lib/libutils/isoc/bget.c:782
    34dc:	f9401fa0 	ldr	x0, [x29,#56]
    34e0:	93407c00 	sxtw	x0, w0
    34e4:	aa0003e2 	mov	x2, x0
    34e8:	52800001 	mov	w1, #0x0                   	// #0
    34ec:	f9401ba0 	ldr	x0, [x29,#48]
    34f0:	940008a4 	bl	5780 <memset>
/home/rex/devel/optee/optee_os/lib/libutils/isoc/bget.c:784
    34f4:	f9401ba0 	ldr	x0, [x29,#48]
/home/rex/devel/optee/optee_os/lib/libutils/isoc/bget.c:785
    34f8:	a8c47bfd 	ldp	x29, x30, [sp],#64
    34fc:	d65f03c0 	ret

0000000000003500 <bgetr>:
bgetr():
/home/rex/devel/optee/optee_os/lib/libutils/isoc/bget.c:795
    3500:	a9bc7bfd 	stp	x29, x30, [sp,#-64]!
    3504:	910003fd 	mov	x29, sp
    3508:	f9000fa0 	str	x0, [x29,#24]
    350c:	f9000ba1 	str	x1, [x29,#16]
/home/rex/devel/optee/optee_os/lib/libutils/isoc/bget.c:800
    3510:	f9400ba0 	ldr	x0, [x29,#16]
    3514:	97fffee9 	bl	30b8 <bget>
    3518:	f9001fa0 	str	x0, [x29,#56]
    351c:	f9401fa0 	ldr	x0, [x29,#56]
    3520:	f100001f 	cmp	x0, #0x0
    3524:	54000061 	b.ne	3530 <bgetr+0x30>
/home/rex/devel/optee/optee_os/lib/libutils/isoc/bget.c:801
    3528:	d2800000 	mov	x0, #0x0                   	// #0
    352c:	1400002d 	b	35e0 <bgetr+0xe0>
/home/rex/devel/optee/optee_os/lib/libutils/isoc/bget.c:803
    3530:	f9400fa0 	ldr	x0, [x29,#24]
    3534:	f100001f 	cmp	x0, #0x0
    3538:	54000061 	b.ne	3544 <bgetr+0x44>
/home/rex/devel/optee/optee_os/lib/libutils/isoc/bget.c:804
    353c:	f9401fa0 	ldr	x0, [x29,#56]
    3540:	14000028 	b	35e0 <bgetr+0xe0>
/home/rex/devel/optee/optee_os/lib/libutils/isoc/bget.c:806
    3544:	f9400fa0 	ldr	x0, [x29,#24]
    3548:	d1004000 	sub	x0, x0, #0x10
    354c:	f9001ba0 	str	x0, [x29,#48]
/home/rex/devel/optee/optee_os/lib/libutils/isoc/bget.c:807
    3550:	f9401ba0 	ldr	x0, [x29,#48]
    3554:	f9400400 	ldr	x0, [x0,#8]
    3558:	cb0003e0 	neg	x0, x0
    355c:	f90017a0 	str	x0, [x29,#40]
/home/rex/devel/optee/optee_os/lib/libutils/isoc/bget.c:817
    3560:	f94017a0 	ldr	x0, [x29,#40]
    3564:	d1004000 	sub	x0, x0, #0x10
    3568:	f90017a0 	str	x0, [x29,#40]
/home/rex/devel/optee/optee_os/lib/libutils/isoc/bget.c:818
    356c:	f94017a0 	ldr	x0, [x29,#40]
    3570:	f100001f 	cmp	x0, #0x0
    3574:	5400016c 	b.gt	35a0 <bgetr+0xa0>
/home/rex/devel/optee/optee_os/lib/libutils/isoc/bget.c:818 (discriminator 1)
    3578:	90000060 	adrp	x0, f000 <__func__.4113+0x18>
    357c:	911e4002 	add	x2, x0, #0x790
    3580:	90000060 	adrp	x0, f000 <__func__.4113+0x18>
    3584:	910ca001 	add	x1, x0, #0x328
    3588:	90000060 	adrp	x0, f000 <__func__.4113+0x18>
    358c:	910fa000 	add	x0, x0, #0x3e8
    3590:	aa0203e3 	mov	x3, x2
    3594:	52806642 	mov	w2, #0x332                 	// #818
    3598:	97fffe99 	bl	2ffc <_assert_log>
    359c:	97fffeb0 	bl	305c <_assert_break>
/home/rex/devel/optee/optee_os/lib/libutils/isoc/bget.c:819
    35a0:	f9400ba1 	ldr	x1, [x29,#16]
    35a4:	f94017a0 	ldr	x0, [x29,#40]
    35a8:	eb00003f 	cmp	x1, x0
    35ac:	5400008a 	b.ge	35bc <bgetr+0xbc>
/home/rex/devel/optee/optee_os/lib/libutils/isoc/bget.c:820 (discriminator 1)
    35b0:	f9400ba0 	ldr	x0, [x29,#16]
/home/rex/devel/optee/optee_os/lib/libutils/isoc/bget.c:819 (discriminator 1)
    35b4:	93407c00 	sxtw	x0, w0
    35b8:	14000003 	b	35c4 <bgetr+0xc4>
/home/rex/devel/optee/optee_os/lib/libutils/isoc/bget.c:820 (discriminator 2)
    35bc:	f94017a0 	ldr	x0, [x29,#40]
/home/rex/devel/optee/optee_os/lib/libutils/isoc/bget.c:819 (discriminator 2)
    35c0:	93407c00 	sxtw	x0, w0
/home/rex/devel/optee/optee_os/lib/libutils/isoc/bget.c:819 (discriminator 4)
    35c4:	aa0003e2 	mov	x2, x0
    35c8:	f9400fa1 	ldr	x1, [x29,#24]
    35cc:	f9401fa0 	ldr	x0, [x29,#56]
    35d0:	94000789 	bl	53f4 <memcpy>
/home/rex/devel/optee/optee_os/lib/libutils/isoc/bget.c:821 (discriminator 4)
    35d4:	f9400fa0 	ldr	x0, [x29,#24]
    35d8:	94000004 	bl	35e8 <brel>
/home/rex/devel/optee/optee_os/lib/libutils/isoc/bget.c:822 (discriminator 4)
    35dc:	f9401fa0 	ldr	x0, [x29,#56]
/home/rex/devel/optee/optee_os/lib/libutils/isoc/bget.c:823
    35e0:	a8c47bfd 	ldp	x29, x30, [sp],#64
    35e4:	d65f03c0 	ret

00000000000035e8 <brel>:
brel():
/home/rex/devel/optee/optee_os/lib/libutils/isoc/bget.c:829
    35e8:	a9bb7bfd 	stp	x29, x30, [sp,#-80]!
    35ec:	910003fd 	mov	x29, sp
    35f0:	f9000bf3 	str	x19, [sp,#16]
    35f4:	f90017a0 	str	x0, [x29,#40]
/home/rex/devel/optee/optee_os/lib/libutils/isoc/bget.c:833
    35f8:	f94017a0 	ldr	x0, [x29,#40]
    35fc:	d1004000 	sub	x0, x0, #0x10
    3600:	f90027a0 	str	x0, [x29,#72]
/home/rex/devel/optee/optee_os/lib/libutils/isoc/bget.c:835
    3604:	f00000a0 	adrp	x0, 1a000 <mempool_u32+0xe80>
    3608:	9133c000 	add	x0, x0, #0xcf0
    360c:	f9400000 	ldr	x0, [x0]
    3610:	91000401 	add	x1, x0, #0x1
    3614:	f00000a0 	adrp	x0, 1a000 <mempool_u32+0xe80>
    3618:	9133c000 	add	x0, x0, #0xcf0
    361c:	f9000001 	str	x1, [x0]
/home/rex/devel/optee/optee_os/lib/libutils/isoc/bget.c:837
    3620:	f94017a0 	ldr	x0, [x29,#40]
    3624:	f100001f 	cmp	x0, #0x0
    3628:	54000161 	b.ne	3654 <brel+0x6c>
/home/rex/devel/optee/optee_os/lib/libutils/isoc/bget.c:837 (discriminator 1)
    362c:	90000060 	adrp	x0, f000 <__func__.4113+0x18>
    3630:	911e6002 	add	x2, x0, #0x798
    3634:	90000060 	adrp	x0, f000 <__func__.4113+0x18>
    3638:	910ca001 	add	x1, x0, #0x328
    363c:	90000060 	adrp	x0, f000 <__func__.4113+0x18>
    3640:	910fe000 	add	x0, x0, #0x3f8
    3644:	aa0203e3 	mov	x3, x2
    3648:	528068a2 	mov	w2, #0x345                 	// #837
    364c:	97fffe6c 	bl	2ffc <_assert_log>
    3650:	97fffe83 	bl	305c <_assert_break>
/home/rex/devel/optee/optee_os/lib/libutils/isoc/bget.c:865
    3654:	f94027a0 	ldr	x0, [x29,#72]
    3658:	f9400400 	ldr	x0, [x0,#8]
    365c:	f100001f 	cmp	x0, #0x0
    3660:	5400004b 	b.lt	3668 <brel+0x80>
/home/rex/devel/optee/optee_os/lib/libutils/isoc/bget.c:866
    3664:	f90023bf 	str	xzr, [x29,#64]
/home/rex/devel/optee/optee_os/lib/libutils/isoc/bget.c:868
    3668:	f94027a0 	ldr	x0, [x29,#72]
    366c:	f9400400 	ldr	x0, [x0,#8]
    3670:	f100001f 	cmp	x0, #0x0
    3674:	5400016b 	b.lt	36a0 <brel+0xb8>
/home/rex/devel/optee/optee_os/lib/libutils/isoc/bget.c:868 (discriminator 1)
    3678:	90000060 	adrp	x0, f000 <__func__.4113+0x18>
    367c:	911e6002 	add	x2, x0, #0x798
    3680:	90000060 	adrp	x0, f000 <__func__.4113+0x18>
    3684:	910ca001 	add	x1, x0, #0x328
    3688:	90000060 	adrp	x0, f000 <__func__.4113+0x18>
    368c:	91102000 	add	x0, x0, #0x408
    3690:	aa0203e3 	mov	x3, x2
    3694:	52806c82 	mov	w2, #0x364                 	// #868
    3698:	97fffe59 	bl	2ffc <_assert_log>
    369c:	97fffe70 	bl	305c <_assert_break>
/home/rex/devel/optee/optee_os/lib/libutils/isoc/bget.c:869
    36a0:	f94027a0 	ldr	x0, [x29,#72]
    36a4:	f9400400 	ldr	x0, [x0,#8]
    36a8:	cb0003e0 	neg	x0, x0
    36ac:	f9001fa0 	str	x0, [x29,#56]
/home/rex/devel/optee/optee_os/lib/libutils/isoc/bget.c:874
    36b0:	f94027a0 	ldr	x0, [x29,#72]
    36b4:	f9400400 	ldr	x0, [x0,#8]
    36b8:	cb0003e0 	neg	x0, x0
    36bc:	f94027a1 	ldr	x1, [x29,#72]
    36c0:	8b000020 	add	x0, x1, x0
    36c4:	f9400000 	ldr	x0, [x0]
    36c8:	f100001f 	cmp	x0, #0x0
    36cc:	54000160 	b.eq	36f8 <brel+0x110>
/home/rex/devel/optee/optee_os/lib/libutils/isoc/bget.c:874 (discriminator 1)
    36d0:	90000060 	adrp	x0, f000 <__func__.4113+0x18>
    36d4:	911e6002 	add	x2, x0, #0x798
    36d8:	90000060 	adrp	x0, f000 <__func__.4113+0x18>
    36dc:	910ca001 	add	x1, x0, #0x328
    36e0:	90000060 	adrp	x0, f000 <__func__.4113+0x18>
    36e4:	91106000 	add	x0, x0, #0x418
    36e8:	aa0203e3 	mov	x3, x2
    36ec:	52806d42 	mov	w2, #0x36a                 	// #874
    36f0:	97fffe43 	bl	2ffc <_assert_log>
    36f4:	97fffe5a 	bl	305c <_assert_break>
/home/rex/devel/optee/optee_os/lib/libutils/isoc/bget.c:877
    36f8:	f94027a0 	ldr	x0, [x29,#72]
    36fc:	f9400401 	ldr	x1, [x0,#8]
    3700:	f00000a0 	adrp	x0, 1a000 <mempool_u32+0xe80>
    3704:	91338000 	add	x0, x0, #0xce0
    3708:	f9400000 	ldr	x0, [x0]
    370c:	8b000021 	add	x1, x1, x0
    3710:	f00000a0 	adrp	x0, 1a000 <mempool_u32+0xe80>
    3714:	91338000 	add	x0, x0, #0xce0
    3718:	f9000001 	str	x1, [x0]
/home/rex/devel/optee/optee_os/lib/libutils/isoc/bget.c:878
    371c:	f00000a0 	adrp	x0, 1a000 <mempool_u32+0xe80>
    3720:	91338000 	add	x0, x0, #0xce0
    3724:	f9400000 	ldr	x0, [x0]
    3728:	f100001f 	cmp	x0, #0x0
    372c:	5400016a 	b.ge	3758 <brel+0x170>
/home/rex/devel/optee/optee_os/lib/libutils/isoc/bget.c:878 (discriminator 1)
    3730:	90000060 	adrp	x0, f000 <__func__.4113+0x18>
    3734:	911e6002 	add	x2, x0, #0x798
    3738:	90000060 	adrp	x0, f000 <__func__.4113+0x18>
    373c:	910ca001 	add	x1, x0, #0x328
    3740:	90000060 	adrp	x0, f000 <__func__.4113+0x18>
    3744:	91112000 	add	x0, x0, #0x448
    3748:	aa0203e3 	mov	x3, x2
    374c:	52806dc2 	mov	w2, #0x36e                 	// #878
    3750:	97fffe2b 	bl	2ffc <_assert_log>
    3754:	97fffe42 	bl	305c <_assert_break>
/home/rex/devel/optee/optee_os/lib/libutils/isoc/bget.c:883
    3758:	f94027a0 	ldr	x0, [x29,#72]
    375c:	f9400000 	ldr	x0, [x0]
    3760:	f100001f 	cmp	x0, #0x0
    3764:	54000460 	b.eq	37f0 <brel+0x208>
/home/rex/devel/optee/optee_os/lib/libutils/isoc/bget.c:891
    3768:	f94027a0 	ldr	x0, [x29,#72]
    376c:	f9400413 	ldr	x19, [x0,#8]
/home/rex/devel/optee/optee_os/lib/libutils/isoc/bget.c:894
    3770:	f94027a0 	ldr	x0, [x29,#72]
    3774:	f9400000 	ldr	x0, [x0]
    3778:	cb0003e0 	neg	x0, x0
    377c:	f94027a1 	ldr	x1, [x29,#72]
    3780:	8b000020 	add	x0, x1, x0
    3784:	f9400401 	ldr	x1, [x0,#8]
    3788:	f94027a0 	ldr	x0, [x29,#72]
    378c:	f9400000 	ldr	x0, [x0]
    3790:	eb00003f 	cmp	x1, x0
    3794:	54000160 	b.eq	37c0 <brel+0x1d8>
/home/rex/devel/optee/optee_os/lib/libutils/isoc/bget.c:894 (discriminator 1)
    3798:	90000060 	adrp	x0, f000 <__func__.4113+0x18>
    379c:	911e6002 	add	x2, x0, #0x798
    37a0:	90000060 	adrp	x0, f000 <__func__.4113+0x18>
    37a4:	910ca001 	add	x1, x0, #0x328
    37a8:	90000060 	adrp	x0, f000 <__func__.4113+0x18>
    37ac:	91116000 	add	x0, x0, #0x458
    37b0:	aa0203e3 	mov	x3, x2
    37b4:	52806fc2 	mov	w2, #0x37e                 	// #894
    37b8:	97fffe11 	bl	2ffc <_assert_log>
    37bc:	97fffe28 	bl	305c <_assert_break>
/home/rex/devel/optee/optee_os/lib/libutils/isoc/bget.c:895
    37c0:	f94027a0 	ldr	x0, [x29,#72]
    37c4:	f9400000 	ldr	x0, [x0]
    37c8:	cb0003e0 	neg	x0, x0
    37cc:	f94027a1 	ldr	x1, [x29,#72]
    37d0:	8b000020 	add	x0, x1, x0
    37d4:	f90027a0 	str	x0, [x29,#72]
/home/rex/devel/optee/optee_os/lib/libutils/isoc/bget.c:896
    37d8:	f94027a0 	ldr	x0, [x29,#72]
    37dc:	f9400400 	ldr	x0, [x0,#8]
    37e0:	cb130001 	sub	x1, x0, x19
    37e4:	f94027a0 	ldr	x0, [x29,#72]
    37e8:	f9000401 	str	x1, [x0,#8]
    37ec:	1400003b 	b	38d8 <brel+0x2f0>
/home/rex/devel/optee/optee_os/lib/libutils/isoc/bget.c:902
    37f0:	d0000060 	adrp	x0, 11000 <ta_props>
    37f4:	91044000 	add	x0, x0, #0x110
    37f8:	f9400c00 	ldr	x0, [x0,#24]
    37fc:	f9400801 	ldr	x1, [x0,#16]
    3800:	d0000060 	adrp	x0, 11000 <ta_props>
    3804:	91044000 	add	x0, x0, #0x110
    3808:	eb00003f 	cmp	x1, x0
    380c:	54000160 	b.eq	3838 <brel+0x250>
/home/rex/devel/optee/optee_os/lib/libutils/isoc/bget.c:902 (discriminator 1)
    3810:	90000060 	adrp	x0, f000 <__func__.4113+0x18>
    3814:	911e6002 	add	x2, x0, #0x798
    3818:	90000060 	adrp	x0, f000 <__func__.4113+0x18>
    381c:	910ca001 	add	x1, x0, #0x328
    3820:	90000060 	adrp	x0, f000 <__func__.4113+0x18>
    3824:	91126000 	add	x0, x0, #0x498
    3828:	aa0203e3 	mov	x3, x2
    382c:	528070c2 	mov	w2, #0x386                 	// #902
    3830:	97fffdf3 	bl	2ffc <_assert_log>
    3834:	97fffe0a 	bl	305c <_assert_break>
/home/rex/devel/optee/optee_os/lib/libutils/isoc/bget.c:903
    3838:	d0000060 	adrp	x0, 11000 <ta_props>
    383c:	91044000 	add	x0, x0, #0x110
    3840:	f9400800 	ldr	x0, [x0,#16]
    3844:	f9400c01 	ldr	x1, [x0,#24]
    3848:	d0000060 	adrp	x0, 11000 <ta_props>
    384c:	91044000 	add	x0, x0, #0x110
    3850:	eb00003f 	cmp	x1, x0
    3854:	54000160 	b.eq	3880 <brel+0x298>
/home/rex/devel/optee/optee_os/lib/libutils/isoc/bget.c:903 (discriminator 1)
    3858:	90000060 	adrp	x0, f000 <__func__.4113+0x18>
    385c:	911e6002 	add	x2, x0, #0x798
    3860:	90000060 	adrp	x0, f000 <__func__.4113+0x18>
    3864:	910ca001 	add	x1, x0, #0x328
    3868:	90000060 	adrp	x0, f000 <__func__.4113+0x18>
    386c:	91132000 	add	x0, x0, #0x4c8
    3870:	aa0203e3 	mov	x3, x2
    3874:	528070e2 	mov	w2, #0x387                 	// #903
    3878:	97fffde1 	bl	2ffc <_assert_log>
    387c:	97fffdf8 	bl	305c <_assert_break>
/home/rex/devel/optee/optee_os/lib/libutils/isoc/bget.c:904
    3880:	f94027a0 	ldr	x0, [x29,#72]
    3884:	d0000061 	adrp	x1, 11000 <ta_props>
    3888:	91044021 	add	x1, x1, #0x110
    388c:	f9000801 	str	x1, [x0,#16]
/home/rex/devel/optee/optee_os/lib/libutils/isoc/bget.c:905
    3890:	d0000060 	adrp	x0, 11000 <ta_props>
    3894:	91044000 	add	x0, x0, #0x110
    3898:	f9400c01 	ldr	x1, [x0,#24]
    389c:	f94027a0 	ldr	x0, [x29,#72]
    38a0:	f9000c01 	str	x1, [x0,#24]
/home/rex/devel/optee/optee_os/lib/libutils/isoc/bget.c:906
    38a4:	d0000060 	adrp	x0, 11000 <ta_props>
    38a8:	91044000 	add	x0, x0, #0x110
    38ac:	f94027a1 	ldr	x1, [x29,#72]
    38b0:	f9000c01 	str	x1, [x0,#24]
/home/rex/devel/optee/optee_os/lib/libutils/isoc/bget.c:907
    38b4:	f94027a0 	ldr	x0, [x29,#72]
    38b8:	f9400c00 	ldr	x0, [x0,#24]
    38bc:	f94027a1 	ldr	x1, [x29,#72]
    38c0:	f9000801 	str	x1, [x0,#16]
/home/rex/devel/optee/optee_os/lib/libutils/isoc/bget.c:908
    38c4:	f94027a0 	ldr	x0, [x29,#72]
    38c8:	f9400400 	ldr	x0, [x0,#8]
    38cc:	cb0003e1 	neg	x1, x0
    38d0:	f94027a0 	ldr	x0, [x29,#72]
    38d4:	f9000401 	str	x1, [x0,#8]
/home/rex/devel/optee/optee_os/lib/libutils/isoc/bget.c:916
    38d8:	f94027a0 	ldr	x0, [x29,#72]
    38dc:	f9400400 	ldr	x0, [x0,#8]
    38e0:	aa0003e1 	mov	x1, x0
    38e4:	f94027a0 	ldr	x0, [x29,#72]
    38e8:	8b010000 	add	x0, x0, x1
    38ec:	f90023a0 	str	x0, [x29,#64]
/home/rex/devel/optee/optee_os/lib/libutils/isoc/bget.c:917
    38f0:	f94023a0 	ldr	x0, [x29,#64]
    38f4:	f9400400 	ldr	x0, [x0,#8]
    38f8:	f100001f 	cmp	x0, #0x0
    38fc:	5400098d 	b.le	3a2c <brel+0x444>
/home/rex/devel/optee/optee_os/lib/libutils/isoc/bget.c:922
    3900:	f94023a0 	ldr	x0, [x29,#64]
    3904:	f9400400 	ldr	x0, [x0,#8]
    3908:	aa0003e1 	mov	x1, x0
    390c:	f94023a0 	ldr	x0, [x29,#64]
    3910:	8b010000 	add	x0, x0, x1
    3914:	f9400001 	ldr	x1, [x0]
    3918:	f94023a0 	ldr	x0, [x29,#64]
    391c:	f9400400 	ldr	x0, [x0,#8]
    3920:	eb00003f 	cmp	x1, x0
    3924:	54000160 	b.eq	3950 <brel+0x368>
/home/rex/devel/optee/optee_os/lib/libutils/isoc/bget.c:922 (discriminator 1)
    3928:	90000060 	adrp	x0, f000 <__func__.4113+0x18>
    392c:	911e6002 	add	x2, x0, #0x798
    3930:	90000060 	adrp	x0, f000 <__func__.4113+0x18>
    3934:	910ca001 	add	x1, x0, #0x328
    3938:	90000060 	adrp	x0, f000 <__func__.4113+0x18>
    393c:	9113e000 	add	x0, x0, #0x4f8
    3940:	aa0203e3 	mov	x3, x2
    3944:	52807342 	mov	w2, #0x39a                 	// #922
    3948:	97fffdad 	bl	2ffc <_assert_log>
    394c:	97fffdc4 	bl	305c <_assert_break>
/home/rex/devel/optee/optee_os/lib/libutils/isoc/bget.c:923
    3950:	f94023a0 	ldr	x0, [x29,#64]
    3954:	f9400c00 	ldr	x0, [x0,#24]
    3958:	f9400801 	ldr	x1, [x0,#16]
    395c:	f94023a0 	ldr	x0, [x29,#64]
    3960:	eb00003f 	cmp	x1, x0
    3964:	54000160 	b.eq	3990 <brel+0x3a8>
/home/rex/devel/optee/optee_os/lib/libutils/isoc/bget.c:923 (discriminator 1)
    3968:	90000060 	adrp	x0, f000 <__func__.4113+0x18>
    396c:	911e6002 	add	x2, x0, #0x798
    3970:	90000060 	adrp	x0, f000 <__func__.4113+0x18>
    3974:	910ca001 	add	x1, x0, #0x328
    3978:	90000060 	adrp	x0, f000 <__func__.4113+0x18>
    397c:	9114e000 	add	x0, x0, #0x538
    3980:	aa0203e3 	mov	x3, x2
    3984:	52807362 	mov	w2, #0x39b                 	// #923
    3988:	97fffd9d 	bl	2ffc <_assert_log>
    398c:	97fffdb4 	bl	305c <_assert_break>
/home/rex/devel/optee/optee_os/lib/libutils/isoc/bget.c:924
    3990:	f94023a0 	ldr	x0, [x29,#64]
    3994:	f9400800 	ldr	x0, [x0,#16]
    3998:	f9400c01 	ldr	x1, [x0,#24]
    399c:	f94023a0 	ldr	x0, [x29,#64]
    39a0:	eb00003f 	cmp	x1, x0
    39a4:	54000160 	b.eq	39d0 <brel+0x3e8>
/home/rex/devel/optee/optee_os/lib/libutils/isoc/bget.c:924 (discriminator 1)
    39a8:	90000060 	adrp	x0, f000 <__func__.4113+0x18>
    39ac:	911e6002 	add	x2, x0, #0x798
    39b0:	90000060 	adrp	x0, f000 <__func__.4113+0x18>
    39b4:	910ca001 	add	x1, x0, #0x328
    39b8:	90000060 	adrp	x0, f000 <__func__.4113+0x18>
    39bc:	91156000 	add	x0, x0, #0x558
    39c0:	aa0203e3 	mov	x3, x2
    39c4:	52807382 	mov	w2, #0x39c                 	// #924
    39c8:	97fffd8d 	bl	2ffc <_assert_log>
    39cc:	97fffda4 	bl	305c <_assert_break>
/home/rex/devel/optee/optee_os/lib/libutils/isoc/bget.c:925
    39d0:	f94023a0 	ldr	x0, [x29,#64]
    39d4:	f9400c00 	ldr	x0, [x0,#24]
    39d8:	f94023a1 	ldr	x1, [x29,#64]
    39dc:	f9400821 	ldr	x1, [x1,#16]
    39e0:	f9000801 	str	x1, [x0,#16]
/home/rex/devel/optee/optee_os/lib/libutils/isoc/bget.c:926
    39e4:	f94023a0 	ldr	x0, [x29,#64]
    39e8:	f9400800 	ldr	x0, [x0,#16]
    39ec:	f94023a1 	ldr	x1, [x29,#64]
    39f0:	f9400c21 	ldr	x1, [x1,#24]
    39f4:	f9000c01 	str	x1, [x0,#24]
/home/rex/devel/optee/optee_os/lib/libutils/isoc/bget.c:927
    39f8:	f94027a0 	ldr	x0, [x29,#72]
    39fc:	f9400401 	ldr	x1, [x0,#8]
    3a00:	f94023a0 	ldr	x0, [x29,#64]
    3a04:	f9400400 	ldr	x0, [x0,#8]
    3a08:	8b000021 	add	x1, x1, x0
    3a0c:	f94027a0 	ldr	x0, [x29,#72]
    3a10:	f9000401 	str	x1, [x0,#8]
/home/rex/devel/optee/optee_os/lib/libutils/isoc/bget.c:936
    3a14:	f94027a0 	ldr	x0, [x29,#72]
    3a18:	f9400400 	ldr	x0, [x0,#8]
    3a1c:	aa0003e1 	mov	x1, x0
    3a20:	f94027a0 	ldr	x0, [x29,#72]
    3a24:	8b010000 	add	x0, x0, x1
    3a28:	f90023a0 	str	x0, [x29,#64]
/home/rex/devel/optee/optee_os/lib/libutils/isoc/bget.c:942
    3a2c:	f94023a0 	ldr	x0, [x29,#64]
    3a30:	f9400400 	ldr	x0, [x0,#8]
    3a34:	f100001f 	cmp	x0, #0x0
    3a38:	5400016b 	b.lt	3a64 <brel+0x47c>
/home/rex/devel/optee/optee_os/lib/libutils/isoc/bget.c:942 (discriminator 1)
    3a3c:	90000060 	adrp	x0, f000 <__func__.4113+0x18>
    3a40:	911e6002 	add	x2, x0, #0x798
    3a44:	90000060 	adrp	x0, f000 <__func__.4113+0x18>
    3a48:	910ca001 	add	x1, x0, #0x328
    3a4c:	90000060 	adrp	x0, f000 <__func__.4113+0x18>
    3a50:	9115e000 	add	x0, x0, #0x578
    3a54:	aa0203e3 	mov	x3, x2
    3a58:	528075c2 	mov	w2, #0x3ae                 	// #942
    3a5c:	97fffd68 	bl	2ffc <_assert_log>
    3a60:	97fffd7f 	bl	305c <_assert_break>
/home/rex/devel/optee/optee_os/lib/libutils/isoc/bget.c:947
    3a64:	f94027a0 	ldr	x0, [x29,#72]
    3a68:	f9400401 	ldr	x1, [x0,#8]
    3a6c:	f94023a0 	ldr	x0, [x29,#64]
    3a70:	f9000001 	str	x1, [x0]
/home/rex/devel/optee/optee_os/lib/libutils/isoc/bget.c:974
    3a74:	f9401fa0 	ldr	x0, [x29,#56]
    3a78:	aa0003e1 	mov	x1, x0
    3a7c:	f94017a0 	ldr	x0, [x29,#40]
    3a80:	97fffd82 	bl	3088 <tag_asan_free>
/home/rex/devel/optee/optee_os/lib/libutils/isoc/bget.c:975
    3a84:	d503201f 	nop
    3a88:	f9400bf3 	ldr	x19, [sp,#16]
    3a8c:	a8c57bfd 	ldp	x29, x30, [sp],#80
    3a90:	d65f03c0 	ret

0000000000003a94 <bpool>:
bpool():
/home/rex/devel/optee/optee_os/lib/libutils/isoc/bget.c:999
    3a94:	a9bd7bfd 	stp	x29, x30, [sp,#-48]!
    3a98:	910003fd 	mov	x29, sp
    3a9c:	f9000fa0 	str	x0, [x29,#24]
    3aa0:	f9000ba1 	str	x1, [x29,#16]
/home/rex/devel/optee/optee_os/lib/libutils/isoc/bget.c:1000
    3aa4:	f9400fa0 	ldr	x0, [x29,#24]
    3aa8:	f90017a0 	str	x0, [x29,#40]
/home/rex/devel/optee/optee_os/lib/libutils/isoc/bget.c:1004
    3aac:	f9400ba0 	ldr	x0, [x29,#16]
    3ab0:	927cec00 	and	x0, x0, #0xfffffffffffffff0
    3ab4:	f9000ba0 	str	x0, [x29,#16]
/home/rex/devel/optee/optee_os/lib/libutils/isoc/bget.c:1023
    3ab8:	f9400ba0 	ldr	x0, [x29,#16]
    3abc:	d1004000 	sub	x0, x0, #0x10
    3ac0:	f100001f 	cmp	x0, #0x0
    3ac4:	5400016a 	b.ge	3af0 <bpool+0x5c>
/home/rex/devel/optee/optee_os/lib/libutils/isoc/bget.c:1023 (discriminator 1)
    3ac8:	90000060 	adrp	x0, f000 <__func__.4113+0x18>
    3acc:	911e8002 	add	x2, x0, #0x7a0
    3ad0:	90000060 	adrp	x0, f000 <__func__.4113+0x18>
    3ad4:	910ca001 	add	x1, x0, #0x328
    3ad8:	90000060 	adrp	x0, f000 <__func__.4113+0x18>
    3adc:	91164000 	add	x0, x0, #0x590
    3ae0:	aa0203e3 	mov	x3, x2
    3ae4:	52807fe2 	mov	w2, #0x3ff                 	// #1023
    3ae8:	97fffd45 	bl	2ffc <_assert_log>
    3aec:	97fffd5c 	bl	305c <_assert_break>
/home/rex/devel/optee/optee_os/lib/libutils/isoc/bget.c:1029
    3af0:	f94017a0 	ldr	x0, [x29,#40]
    3af4:	f900001f 	str	xzr, [x0]
/home/rex/devel/optee/optee_os/lib/libutils/isoc/bget.c:1033
    3af8:	d0000060 	adrp	x0, 11000 <ta_props>
    3afc:	91044000 	add	x0, x0, #0x110
    3b00:	f9400c00 	ldr	x0, [x0,#24]
    3b04:	f9400801 	ldr	x1, [x0,#16]
    3b08:	d0000060 	adrp	x0, 11000 <ta_props>
    3b0c:	91044000 	add	x0, x0, #0x110
    3b10:	eb00003f 	cmp	x1, x0
    3b14:	54000160 	b.eq	3b40 <bpool+0xac>
/home/rex/devel/optee/optee_os/lib/libutils/isoc/bget.c:1033 (discriminator 1)
    3b18:	90000060 	adrp	x0, f000 <__func__.4113+0x18>
    3b1c:	911e8002 	add	x2, x0, #0x7a0
    3b20:	90000060 	adrp	x0, f000 <__func__.4113+0x18>
    3b24:	910ca001 	add	x1, x0, #0x328
    3b28:	90000060 	adrp	x0, f000 <__func__.4113+0x18>
    3b2c:	91126000 	add	x0, x0, #0x498
    3b30:	aa0203e3 	mov	x3, x2
    3b34:	52808122 	mov	w2, #0x409                 	// #1033
    3b38:	97fffd31 	bl	2ffc <_assert_log>
    3b3c:	97fffd48 	bl	305c <_assert_break>
/home/rex/devel/optee/optee_os/lib/libutils/isoc/bget.c:1034
    3b40:	d0000060 	adrp	x0, 11000 <ta_props>
    3b44:	91044000 	add	x0, x0, #0x110
    3b48:	f9400800 	ldr	x0, [x0,#16]
    3b4c:	f9400c01 	ldr	x1, [x0,#24]
    3b50:	d0000060 	adrp	x0, 11000 <ta_props>
    3b54:	91044000 	add	x0, x0, #0x110
    3b58:	eb00003f 	cmp	x1, x0
    3b5c:	54000160 	b.eq	3b88 <bpool+0xf4>
/home/rex/devel/optee/optee_os/lib/libutils/isoc/bget.c:1034 (discriminator 1)
    3b60:	90000060 	adrp	x0, f000 <__func__.4113+0x18>
    3b64:	911e8002 	add	x2, x0, #0x7a0
    3b68:	90000060 	adrp	x0, f000 <__func__.4113+0x18>
    3b6c:	910ca001 	add	x1, x0, #0x328
    3b70:	90000060 	adrp	x0, f000 <__func__.4113+0x18>
    3b74:	91132000 	add	x0, x0, #0x4c8
    3b78:	aa0203e3 	mov	x3, x2
    3b7c:	52808142 	mov	w2, #0x40a                 	// #1034
    3b80:	97fffd1f 	bl	2ffc <_assert_log>
    3b84:	97fffd36 	bl	305c <_assert_break>
/home/rex/devel/optee/optee_os/lib/libutils/isoc/bget.c:1035
    3b88:	f94017a0 	ldr	x0, [x29,#40]
    3b8c:	d0000061 	adrp	x1, 11000 <ta_props>
    3b90:	91044021 	add	x1, x1, #0x110
    3b94:	f9000801 	str	x1, [x0,#16]
/home/rex/devel/optee/optee_os/lib/libutils/isoc/bget.c:1036
    3b98:	d0000060 	adrp	x0, 11000 <ta_props>
    3b9c:	91044000 	add	x0, x0, #0x110
    3ba0:	f9400c01 	ldr	x1, [x0,#24]
    3ba4:	f94017a0 	ldr	x0, [x29,#40]
    3ba8:	f9000c01 	str	x1, [x0,#24]
/home/rex/devel/optee/optee_os/lib/libutils/isoc/bget.c:1037
    3bac:	d0000060 	adrp	x0, 11000 <ta_props>
    3bb0:	91044000 	add	x0, x0, #0x110
    3bb4:	f94017a1 	ldr	x1, [x29,#40]
    3bb8:	f9000c01 	str	x1, [x0,#24]
/home/rex/devel/optee/optee_os/lib/libutils/isoc/bget.c:1038
    3bbc:	f94017a0 	ldr	x0, [x29,#40]
    3bc0:	f9400c00 	ldr	x0, [x0,#24]
    3bc4:	f94017a1 	ldr	x1, [x29,#40]
    3bc8:	f9000801 	str	x1, [x0,#16]
/home/rex/devel/optee/optee_os/lib/libutils/isoc/bget.c:1048
    3bcc:	f9400ba0 	ldr	x0, [x29,#16]
    3bd0:	d1004000 	sub	x0, x0, #0x10
    3bd4:	f9000ba0 	str	x0, [x29,#16]
/home/rex/devel/optee/optee_os/lib/libutils/isoc/bget.c:1049
    3bd8:	f94017a0 	ldr	x0, [x29,#40]
    3bdc:	f9400ba1 	ldr	x1, [x29,#16]
    3be0:	f9000401 	str	x1, [x0,#8]
/home/rex/devel/optee/optee_os/lib/libutils/isoc/bget.c:1054
    3be4:	f9400ba0 	ldr	x0, [x29,#16]
    3be8:	f94017a1 	ldr	x1, [x29,#40]
    3bec:	8b000020 	add	x0, x1, x0
    3bf0:	f90013a0 	str	x0, [x29,#32]
/home/rex/devel/optee/optee_os/lib/libutils/isoc/bget.c:1055
    3bf4:	f94013a0 	ldr	x0, [x29,#32]
    3bf8:	f9400ba1 	ldr	x1, [x29,#16]
    3bfc:	f9000001 	str	x1, [x0]
/home/rex/devel/optee/optee_os/lib/libutils/isoc/bget.c:1058
    3c00:	f94013a0 	ldr	x0, [x29,#32]
    3c04:	d2f00001 	mov	x1, #0x8000000000000000    	// #-9223372036854775808
    3c08:	f9000401 	str	x1, [x0,#8]
/home/rex/devel/optee/optee_os/lib/libutils/isoc/bget.c:1059
    3c0c:	d503201f 	nop
    3c10:	a8c37bfd 	ldp	x29, x30, [sp],#48
    3c14:	d65f03c0 	ret

0000000000003c18 <bstats>:
bstats():
/home/rex/devel/optee/optee_os/lib/libutils/isoc/bget.c:1068
    3c18:	a9bb7bfd 	stp	x29, x30, [sp,#-80]!
    3c1c:	910003fd 	mov	x29, sp
    3c20:	f9001fa0 	str	x0, [x29,#56]
    3c24:	f9001ba1 	str	x1, [x29,#48]
    3c28:	f90017a2 	str	x2, [x29,#40]
    3c2c:	f90013a3 	str	x3, [x29,#32]
    3c30:	f9000fa4 	str	x4, [x29,#24]
/home/rex/devel/optee/optee_os/lib/libutils/isoc/bget.c:1069
    3c34:	d0000060 	adrp	x0, 11000 <ta_props>
    3c38:	91044000 	add	x0, x0, #0x110
    3c3c:	f9400800 	ldr	x0, [x0,#16]
    3c40:	f90027a0 	str	x0, [x29,#72]
/home/rex/devel/optee/optee_os/lib/libutils/isoc/bget.c:1071
    3c44:	f00000a0 	adrp	x0, 1a000 <mempool_u32+0xe80>
    3c48:	9133a000 	add	x0, x0, #0xce8
    3c4c:	f9400001 	ldr	x1, [x0]
    3c50:	f94013a0 	ldr	x0, [x29,#32]
    3c54:	f9000001 	str	x1, [x0]
/home/rex/devel/optee/optee_os/lib/libutils/isoc/bget.c:1072
    3c58:	f00000a0 	adrp	x0, 1a000 <mempool_u32+0xe80>
    3c5c:	9133c000 	add	x0, x0, #0xcf0
    3c60:	f9400001 	ldr	x1, [x0]
    3c64:	f9400fa0 	ldr	x0, [x29,#24]
    3c68:	f9000001 	str	x1, [x0]
/home/rex/devel/optee/optee_os/lib/libutils/isoc/bget.c:1073
    3c6c:	f00000a0 	adrp	x0, 1a000 <mempool_u32+0xe80>
    3c70:	91338000 	add	x0, x0, #0xce0
    3c74:	f9400001 	ldr	x1, [x0]
    3c78:	f9401fa0 	ldr	x0, [x29,#56]
    3c7c:	f9000001 	str	x1, [x0]
/home/rex/devel/optee/optee_os/lib/libutils/isoc/bget.c:1074
    3c80:	f9401ba0 	ldr	x0, [x29,#48]
    3c84:	f900001f 	str	xzr, [x0]
/home/rex/devel/optee/optee_os/lib/libutils/isoc/bget.c:1075
    3c88:	f94017a0 	ldr	x0, [x29,#40]
    3c8c:	92800001 	mov	x1, #0xffffffffffffffff    	// #-1
    3c90:	f9000001 	str	x1, [x0]
/home/rex/devel/optee/optee_os/lib/libutils/isoc/bget.c:1076
    3c94:	14000023 	b	3d20 <bstats+0x108>
/home/rex/devel/optee/optee_os/lib/libutils/isoc/bget.c:1077
    3c98:	f94027a0 	ldr	x0, [x29,#72]
    3c9c:	f9400400 	ldr	x0, [x0,#8]
    3ca0:	f100001f 	cmp	x0, #0x0
    3ca4:	5400016c 	b.gt	3cd0 <bstats+0xb8>
/home/rex/devel/optee/optee_os/lib/libutils/isoc/bget.c:1077 (discriminator 1)
    3ca8:	90000060 	adrp	x0, f000 <__func__.4113+0x18>
    3cac:	911ea002 	add	x2, x0, #0x7a8
    3cb0:	90000060 	adrp	x0, f000 <__func__.4113+0x18>
    3cb4:	910ca001 	add	x1, x0, #0x328
    3cb8:	90000060 	adrp	x0, f000 <__func__.4113+0x18>
    3cbc:	91172000 	add	x0, x0, #0x5c8
    3cc0:	aa0203e3 	mov	x3, x2
    3cc4:	528086a2 	mov	w2, #0x435                 	// #1077
    3cc8:	97fffccd 	bl	2ffc <_assert_log>
    3ccc:	97fffce4 	bl	305c <_assert_break>
/home/rex/devel/optee/optee_os/lib/libutils/isoc/bget.c:1078
    3cd0:	f9401ba0 	ldr	x0, [x29,#48]
    3cd4:	f9400001 	ldr	x1, [x0]
    3cd8:	f94027a0 	ldr	x0, [x29,#72]
    3cdc:	f9400400 	ldr	x0, [x0,#8]
    3ce0:	8b000021 	add	x1, x1, x0
    3ce4:	f9401ba0 	ldr	x0, [x29,#48]
    3ce8:	f9000001 	str	x1, [x0]
/home/rex/devel/optee/optee_os/lib/libutils/isoc/bget.c:1079
    3cec:	f94027a0 	ldr	x0, [x29,#72]
    3cf0:	f9400401 	ldr	x1, [x0,#8]
    3cf4:	f94017a0 	ldr	x0, [x29,#40]
    3cf8:	f9400000 	ldr	x0, [x0]
    3cfc:	eb00003f 	cmp	x1, x0
    3d00:	540000ad 	b.le	3d14 <bstats+0xfc>
/home/rex/devel/optee/optee_os/lib/libutils/isoc/bget.c:1080
    3d04:	f94027a0 	ldr	x0, [x29,#72]
    3d08:	f9400401 	ldr	x1, [x0,#8]
    3d0c:	f94017a0 	ldr	x0, [x29,#40]
    3d10:	f9000001 	str	x1, [x0]
/home/rex/devel/optee/optee_os/lib/libutils/isoc/bget.c:1082
    3d14:	f94027a0 	ldr	x0, [x29,#72]
    3d18:	f9400800 	ldr	x0, [x0,#16]
    3d1c:	f90027a0 	str	x0, [x29,#72]
/home/rex/devel/optee/optee_os/lib/libutils/isoc/bget.c:1076
    3d20:	f94027a1 	ldr	x1, [x29,#72]
    3d24:	d0000060 	adrp	x0, 11000 <ta_props>
    3d28:	91044000 	add	x0, x0, #0x110
    3d2c:	eb00003f 	cmp	x1, x0
    3d30:	54fffb41 	b.ne	3c98 <bstats+0x80>
/home/rex/devel/optee/optee_os/lib/libutils/isoc/bget.c:1084
    3d34:	d503201f 	nop
    3d38:	a8c57bfd 	ldp	x29, x30, [sp],#80
    3d3c:	d65f03c0 	ret

0000000000003d40 <raw_malloc_return_hook>:
raw_malloc_return_hook():
/home/rex/devel/optee/optee_os/lib/libutils/isoc/bget_malloc.c:171
    3d40:	d10043ff 	sub	sp, sp, #0x10
    3d44:	f90007e0 	str	x0, [sp,#8]
    3d48:	f90003e1 	str	x1, [sp]
/home/rex/devel/optee/optee_os/lib/libutils/isoc/bget_malloc.c:172
    3d4c:	f00000a0 	adrp	x0, 1a000 <mempool_u32+0xe80>
    3d50:	91342000 	add	x0, x0, #0xd08
    3d54:	b9402400 	ldr	w0, [x0,#36]
    3d58:	2a0003e1 	mov	w1, w0
    3d5c:	f00000a0 	adrp	x0, 1a000 <mempool_u32+0xe80>
    3d60:	91338000 	add	x0, x0, #0xce0
    3d64:	f9400000 	ldr	x0, [x0]
    3d68:	eb00003f 	cmp	x1, x0
    3d6c:	5400010a 	b.ge	3d8c <raw_malloc_return_hook+0x4c>
/home/rex/devel/optee/optee_os/lib/libutils/isoc/bget_malloc.c:173
    3d70:	f00000a0 	adrp	x0, 1a000 <mempool_u32+0xe80>
    3d74:	91338000 	add	x0, x0, #0xce0
    3d78:	f9400000 	ldr	x0, [x0]
    3d7c:	2a0003e1 	mov	w1, w0
    3d80:	f00000a0 	adrp	x0, 1a000 <mempool_u32+0xe80>
    3d84:	91342000 	add	x0, x0, #0xd08
    3d88:	b9002401 	str	w1, [x0,#36]
/home/rex/devel/optee/optee_os/lib/libutils/isoc/bget_malloc.c:175
    3d8c:	f94007e0 	ldr	x0, [sp,#8]
    3d90:	f100001f 	cmp	x0, #0x0
    3d94:	54000361 	b.ne	3e00 <raw_malloc_return_hook+0xc0>
/home/rex/devel/optee/optee_os/lib/libutils/isoc/bget_malloc.c:176
    3d98:	f00000a0 	adrp	x0, 1a000 <mempool_u32+0xe80>
    3d9c:	91342000 	add	x0, x0, #0xd08
    3da0:	b9402c00 	ldr	w0, [x0,#44]
    3da4:	11000401 	add	w1, w0, #0x1
    3da8:	f00000a0 	adrp	x0, 1a000 <mempool_u32+0xe80>
    3dac:	91342000 	add	x0, x0, #0xd08
    3db0:	b9002c01 	str	w1, [x0,#44]
/home/rex/devel/optee/optee_os/lib/libutils/isoc/bget_malloc.c:177
    3db4:	f00000a0 	adrp	x0, 1a000 <mempool_u32+0xe80>
    3db8:	91342000 	add	x0, x0, #0xd08
    3dbc:	b9403000 	ldr	w0, [x0,#48]
    3dc0:	2a0003e1 	mov	w1, w0
    3dc4:	f94003e0 	ldr	x0, [sp]
    3dc8:	eb00003f 	cmp	x1, x0
    3dcc:	540001a2 	b.cs	3e00 <raw_malloc_return_hook+0xc0>
/home/rex/devel/optee/optee_os/lib/libutils/isoc/bget_malloc.c:178
    3dd0:	f94003e0 	ldr	x0, [sp]
    3dd4:	2a0003e1 	mov	w1, w0
    3dd8:	f00000a0 	adrp	x0, 1a000 <mempool_u32+0xe80>
    3ddc:	91342000 	add	x0, x0, #0xd08
    3de0:	b9003001 	str	w1, [x0,#48]
/home/rex/devel/optee/optee_os/lib/libutils/isoc/bget_malloc.c:179
    3de4:	f00000a0 	adrp	x0, 1a000 <mempool_u32+0xe80>
    3de8:	91338000 	add	x0, x0, #0xce0
    3dec:	f9400000 	ldr	x0, [x0]
    3df0:	2a0003e1 	mov	w1, w0
    3df4:	f00000a0 	adrp	x0, 1a000 <mempool_u32+0xe80>
    3df8:	91342000 	add	x0, x0, #0xd08
    3dfc:	b9003401 	str	w1, [x0,#52]
/home/rex/devel/optee/optee_os/lib/libutils/isoc/bget_malloc.c:182
    3e00:	d503201f 	nop
    3e04:	910043ff 	add	sp, sp, #0x10
    3e08:	d65f03c0 	ret

0000000000003e0c <malloc_reset_stats>:
malloc_reset_stats():
/home/rex/devel/optee/optee_os/lib/libutils/isoc/bget_malloc.c:185
    3e0c:	a9be7bfd 	stp	x29, x30, [sp,#-32]!
    3e10:	910003fd 	mov	x29, sp
/home/rex/devel/optee/optee_os/lib/libutils/isoc/bget_malloc.c:186
    3e14:	97fffc96 	bl	306c <malloc_lock>
    3e18:	b9001fa0 	str	w0, [x29,#28]
/home/rex/devel/optee/optee_os/lib/libutils/isoc/bget_malloc.c:188
    3e1c:	f00000a0 	adrp	x0, 1a000 <mempool_u32+0xe80>
    3e20:	91342000 	add	x0, x0, #0xd08
    3e24:	b900241f 	str	wzr, [x0,#36]
/home/rex/devel/optee/optee_os/lib/libutils/isoc/bget_malloc.c:189
    3e28:	f00000a0 	adrp	x0, 1a000 <mempool_u32+0xe80>
    3e2c:	91342000 	add	x0, x0, #0xd08
    3e30:	b9002c1f 	str	wzr, [x0,#44]
/home/rex/devel/optee/optee_os/lib/libutils/isoc/bget_malloc.c:190
    3e34:	f00000a0 	adrp	x0, 1a000 <mempool_u32+0xe80>
    3e38:	91342000 	add	x0, x0, #0xd08
    3e3c:	b900301f 	str	wzr, [x0,#48]
/home/rex/devel/optee/optee_os/lib/libutils/isoc/bget_malloc.c:191
    3e40:	f00000a0 	adrp	x0, 1a000 <mempool_u32+0xe80>
    3e44:	91342000 	add	x0, x0, #0xd08
    3e48:	b900341f 	str	wzr, [x0,#52]
/home/rex/devel/optee/optee_os/lib/libutils/isoc/bget_malloc.c:192
    3e4c:	b9401fa0 	ldr	w0, [x29,#28]
    3e50:	97fffc89 	bl	3074 <malloc_unlock>
/home/rex/devel/optee/optee_os/lib/libutils/isoc/bget_malloc.c:193
    3e54:	d503201f 	nop
    3e58:	a8c27bfd 	ldp	x29, x30, [sp],#32
    3e5c:	d65f03c0 	ret

0000000000003e60 <malloc_get_stats>:
malloc_get_stats():
/home/rex/devel/optee/optee_os/lib/libutils/isoc/bget_malloc.c:196
    3e60:	a9bd7bfd 	stp	x29, x30, [sp,#-48]!
    3e64:	910003fd 	mov	x29, sp
    3e68:	f9000fa0 	str	x0, [x29,#24]
/home/rex/devel/optee/optee_os/lib/libutils/isoc/bget_malloc.c:197
    3e6c:	97fffc80 	bl	306c <malloc_lock>
    3e70:	b9002fa0 	str	w0, [x29,#44]
/home/rex/devel/optee/optee_os/lib/libutils/isoc/bget_malloc.c:199
    3e74:	f00000a0 	adrp	x0, 1a000 <mempool_u32+0xe80>
    3e78:	91342000 	add	x0, x0, #0xd08
    3e7c:	d2800702 	mov	x2, #0x38                  	// #56
    3e80:	aa0003e1 	mov	x1, x0
    3e84:	f9400fa0 	ldr	x0, [x29,#24]
    3e88:	9400055b 	bl	53f4 <memcpy>
/home/rex/devel/optee/optee_os/lib/libutils/isoc/bget_malloc.c:200
    3e8c:	f00000a0 	adrp	x0, 1a000 <mempool_u32+0xe80>
    3e90:	91338000 	add	x0, x0, #0xce0
    3e94:	f9400000 	ldr	x0, [x0]
    3e98:	2a0003e1 	mov	w1, w0
    3e9c:	f9400fa0 	ldr	x0, [x29,#24]
    3ea0:	b9002001 	str	w1, [x0,#32]
/home/rex/devel/optee/optee_os/lib/libutils/isoc/bget_malloc.c:201
    3ea4:	b9402fa0 	ldr	w0, [x29,#44]
    3ea8:	97fffc73 	bl	3074 <malloc_unlock>
/home/rex/devel/optee/optee_os/lib/libutils/isoc/bget_malloc.c:202
    3eac:	d503201f 	nop
    3eb0:	a8c37bfd 	ldp	x29, x30, [sp],#48
    3eb4:	d65f03c0 	ret

0000000000003eb8 <raw_malloc_validate_pools>:
raw_malloc_validate_pools():
/home/rex/devel/optee/optee_os/lib/libutils/isoc/bget_malloc.c:223
    3eb8:	d503201f 	nop
    3ebc:	d65f03c0 	ret

0000000000003ec0 <bpool_foreach_iterator_init>:
bpool_foreach_iterator_init():
/home/rex/devel/optee/optee_os/lib/libutils/isoc/bget_malloc.c:232
    3ec0:	d10043ff 	sub	sp, sp, #0x10
    3ec4:	f90007e0 	str	x0, [sp,#8]
/home/rex/devel/optee/optee_os/lib/libutils/isoc/bget_malloc.c:233
    3ec8:	f94007e0 	ldr	x0, [sp,#8]
    3ecc:	f900041f 	str	xzr, [x0,#8]
/home/rex/devel/optee/optee_os/lib/libutils/isoc/bget_malloc.c:234
    3ed0:	f00000a0 	adrp	x0, 1a000 <mempool_u32+0xe80>
    3ed4:	9133e000 	add	x0, x0, #0xcf8
    3ed8:	f9400000 	ldr	x0, [x0]
    3edc:	f9400001 	ldr	x1, [x0]
    3ee0:	f94007e0 	ldr	x0, [sp,#8]
    3ee4:	f9000001 	str	x1, [x0]
/home/rex/devel/optee/optee_os/lib/libutils/isoc/bget_malloc.c:235
    3ee8:	d503201f 	nop
    3eec:	910043ff 	add	sp, sp, #0x10
    3ef0:	d65f03c0 	ret

0000000000003ef4 <bpool_foreach_pool>:
bpool_foreach_pool():
/home/rex/devel/optee/optee_os/lib/libutils/isoc/bget_malloc.c:239
    3ef4:	a9bc7bfd 	stp	x29, x30, [sp,#-64]!
    3ef8:	910003fd 	mov	x29, sp
    3efc:	f90017a0 	str	x0, [x29,#40]
    3f00:	f90013a1 	str	x1, [x29,#32]
    3f04:	f9000fa2 	str	x2, [x29,#24]
    3f08:	f9000ba3 	str	x3, [x29,#16]
/home/rex/devel/optee/optee_os/lib/libutils/isoc/bget_malloc.c:240
    3f0c:	f94017a0 	ldr	x0, [x29,#40]
    3f10:	f9400000 	ldr	x0, [x0]
    3f14:	f9001ba0 	str	x0, [x29,#48]
/home/rex/devel/optee/optee_os/lib/libutils/isoc/bget_malloc.c:241
    3f18:	f9401ba0 	ldr	x0, [x29,#48]
    3f1c:	f9400400 	ldr	x0, [x0,#8]
    3f20:	f9001fa0 	str	x0, [x29,#56]
/home/rex/devel/optee/optee_os/lib/libutils/isoc/bget_malloc.c:243
    3f24:	f9401fa1 	ldr	x1, [x29,#56]
    3f28:	d2f00000 	mov	x0, #0x8000000000000000    	// #-9223372036854775808
    3f2c:	eb00003f 	cmp	x1, x0
    3f30:	54000061 	b.ne	3f3c <bpool_foreach_pool+0x48>
/home/rex/devel/optee/optee_os/lib/libutils/isoc/bget_malloc.c:244
    3f34:	52800000 	mov	w0, #0x0                   	// #0
    3f38:	1400003b 	b	4024 <bpool_foreach_pool+0x130>
/home/rex/devel/optee/optee_os/lib/libutils/isoc/bget_malloc.c:246
    3f3c:	f9401fa0 	ldr	x0, [x29,#56]
    3f40:	f100001f 	cmp	x0, #0x0
    3f44:	540000ea 	b.ge	3f60 <bpool_foreach_pool+0x6c>
/home/rex/devel/optee/optee_os/lib/libutils/isoc/bget_malloc.c:248
    3f48:	f9401fa0 	ldr	x0, [x29,#56]
    3f4c:	cb0003e0 	neg	x0, x0
    3f50:	f9001fa0 	str	x0, [x29,#56]
/home/rex/devel/optee/optee_os/lib/libutils/isoc/bget_malloc.c:250
    3f54:	f9400ba0 	ldr	x0, [x29,#16]
    3f58:	3900001f 	strb	wzr, [x0]
    3f5c:	14000024 	b	3fec <bpool_foreach_pool+0xf8>
/home/rex/devel/optee/optee_os/lib/libutils/isoc/bget_malloc.c:253
    3f60:	f9400ba0 	ldr	x0, [x29,#16]
    3f64:	52800021 	mov	w1, #0x1                   	// #1
    3f68:	39000001 	strb	w1, [x0]
/home/rex/devel/optee/optee_os/lib/libutils/isoc/bget_malloc.c:256
    3f6c:	f9401ba0 	ldr	x0, [x29,#48]
    3f70:	f9400c00 	ldr	x0, [x0,#24]
    3f74:	f9400801 	ldr	x1, [x0,#16]
    3f78:	f9401ba0 	ldr	x0, [x29,#48]
    3f7c:	eb00003f 	cmp	x1, x0
    3f80:	54000160 	b.eq	3fac <bpool_foreach_pool+0xb8>
/home/rex/devel/optee/optee_os/lib/libutils/isoc/bget_malloc.c:256 (discriminator 1)
    3f84:	90000060 	adrp	x0, f000 <__func__.4113+0x18>
    3f88:	911ec002 	add	x2, x0, #0x7b0
    3f8c:	90000060 	adrp	x0, f000 <__func__.4113+0x18>
    3f90:	91176001 	add	x1, x0, #0x5d8
    3f94:	90000060 	adrp	x0, f000 <__func__.4113+0x18>
    3f98:	910e6000 	add	x0, x0, #0x398
    3f9c:	aa0203e3 	mov	x3, x2
    3fa0:	52802002 	mov	w2, #0x100                 	// #256
    3fa4:	97fffc16 	bl	2ffc <_assert_log>
    3fa8:	97fffc2d 	bl	305c <_assert_break>
/home/rex/devel/optee/optee_os/lib/libutils/isoc/bget_malloc.c:257
    3fac:	f9401ba0 	ldr	x0, [x29,#48]
    3fb0:	f9400800 	ldr	x0, [x0,#16]
    3fb4:	f9400c01 	ldr	x1, [x0,#24]
    3fb8:	f9401ba0 	ldr	x0, [x29,#48]
    3fbc:	eb00003f 	cmp	x1, x0
    3fc0:	54000160 	b.eq	3fec <bpool_foreach_pool+0xf8>
/home/rex/devel/optee/optee_os/lib/libutils/isoc/bget_malloc.c:257 (discriminator 1)
    3fc4:	90000060 	adrp	x0, f000 <__func__.4113+0x18>
    3fc8:	911ec002 	add	x2, x0, #0x7b0
    3fcc:	90000060 	adrp	x0, f000 <__func__.4113+0x18>
    3fd0:	91176001 	add	x1, x0, #0x5d8
    3fd4:	90000060 	adrp	x0, f000 <__func__.4113+0x18>
    3fd8:	910ee000 	add	x0, x0, #0x3b8
    3fdc:	aa0203e3 	mov	x3, x2
    3fe0:	52802022 	mov	w2, #0x101                 	// #257
    3fe4:	97fffc06 	bl	2ffc <_assert_log>
    3fe8:	97fffc1d 	bl	305c <_assert_break>
/home/rex/devel/optee/optee_os/lib/libutils/isoc/bget_malloc.c:260
    3fec:	f9401ba0 	ldr	x0, [x29,#48]
    3ff0:	91004001 	add	x1, x0, #0x10
    3ff4:	f94013a0 	ldr	x0, [x29,#32]
    3ff8:	f9000001 	str	x1, [x0]
/home/rex/devel/optee/optee_os/lib/libutils/isoc/bget_malloc.c:261
    3ffc:	f9401fa0 	ldr	x0, [x29,#56]
    4000:	d1004001 	sub	x1, x0, #0x10
    4004:	f9400fa0 	ldr	x0, [x29,#24]
    4008:	f9000001 	str	x1, [x0]
/home/rex/devel/optee/optee_os/lib/libutils/isoc/bget_malloc.c:263
    400c:	f9401fa0 	ldr	x0, [x29,#56]
    4010:	f9401ba1 	ldr	x1, [x29,#48]
    4014:	8b000021 	add	x1, x1, x0
    4018:	f94017a0 	ldr	x0, [x29,#40]
    401c:	f9000001 	str	x1, [x0]
/home/rex/devel/optee/optee_os/lib/libutils/isoc/bget_malloc.c:264
    4020:	52800020 	mov	w0, #0x1                   	// #1
/home/rex/devel/optee/optee_os/lib/libutils/isoc/bget_malloc.c:265
    4024:	a8c47bfd 	ldp	x29, x30, [sp],#64
    4028:	d65f03c0 	ret

000000000000402c <bpool_foreach>:
bpool_foreach():
/home/rex/devel/optee/optee_os/lib/libutils/isoc/bget_malloc.c:268
    402c:	a9bd7bfd 	stp	x29, x30, [sp,#-48]!
    4030:	910003fd 	mov	x29, sp
    4034:	f9000fa0 	str	x0, [x29,#24]
    4038:	f9000ba1 	str	x1, [x29,#16]
/home/rex/devel/optee/optee_os/lib/libutils/isoc/bget_malloc.c:273
    403c:	91009fa1 	add	x1, x29, #0x27
    4040:	9100a3a0 	add	x0, x29, #0x28
    4044:	aa0103e3 	mov	x3, x1
    4048:	aa0003e2 	mov	x2, x0
    404c:	f9400ba1 	ldr	x1, [x29,#16]
    4050:	f9400fa0 	ldr	x0, [x29,#24]
    4054:	97ffffa8 	bl	3ef4 <bpool_foreach_pool>
    4058:	12001c00 	and	w0, w0, #0xff
    405c:	7100001f 	cmp	w0, #0x0
    4060:	540000c0 	b.eq	4078 <bpool_foreach+0x4c>
/home/rex/devel/optee/optee_os/lib/libutils/isoc/bget_malloc.c:274
    4064:	39409fa0 	ldrb	w0, [x29,#39]
    4068:	7100001f 	cmp	w0, #0x0
    406c:	540003a1 	b.ne	40e0 <bpool_foreach+0xb4>
/home/rex/devel/optee/optee_os/lib/libutils/isoc/bget_malloc.c:276
    4070:	52800020 	mov	w0, #0x1                   	// #1
    4074:	1400001d 	b	40e8 <bpool_foreach+0xbc>
/home/rex/devel/optee/optee_os/lib/libutils/isoc/bget_malloc.c:279
    4078:	f9400fa0 	ldr	x0, [x29,#24]
    407c:	f9400400 	ldr	x0, [x0,#8]
    4080:	91000401 	add	x1, x0, #0x1
    4084:	d00000a0 	adrp	x0, 1a000 <mempool_u32+0xe80>
    4088:	91340000 	add	x0, x0, #0xd00
    408c:	f9400000 	ldr	x0, [x0]
    4090:	eb00003f 	cmp	x1, x0
    4094:	54000063 	b.cc	40a0 <bpool_foreach+0x74>
/home/rex/devel/optee/optee_os/lib/libutils/isoc/bget_malloc.c:280
    4098:	52800000 	mov	w0, #0x0                   	// #0
    409c:	14000013 	b	40e8 <bpool_foreach+0xbc>
/home/rex/devel/optee/optee_os/lib/libutils/isoc/bget_malloc.c:282
    40a0:	f9400fa0 	ldr	x0, [x29,#24]
    40a4:	f9400400 	ldr	x0, [x0,#8]
    40a8:	91000401 	add	x1, x0, #0x1
    40ac:	f9400fa0 	ldr	x0, [x29,#24]
    40b0:	f9000401 	str	x1, [x0,#8]
/home/rex/devel/optee/optee_os/lib/libutils/isoc/bget_malloc.c:283
    40b4:	d00000a0 	adrp	x0, 1a000 <mempool_u32+0xe80>
    40b8:	9133e000 	add	x0, x0, #0xcf8
    40bc:	f9400001 	ldr	x1, [x0]
    40c0:	f9400fa0 	ldr	x0, [x29,#24]
    40c4:	f9400400 	ldr	x0, [x0,#8]
    40c8:	d37cec00 	lsl	x0, x0, #4
    40cc:	8b000020 	add	x0, x1, x0
    40d0:	f9400001 	ldr	x1, [x0]
    40d4:	f9400fa0 	ldr	x0, [x29,#24]
    40d8:	f9000001 	str	x1, [x0]
    40dc:	17ffffd8 	b	403c <bpool_foreach+0x10>
/home/rex/devel/optee/optee_os/lib/libutils/isoc/bget_malloc.c:275
    40e0:	d503201f 	nop
/home/rex/devel/optee/optee_os/lib/libutils/isoc/bget_malloc.c:269
    40e4:	17ffffd6 	b	403c <bpool_foreach+0x10>
/home/rex/devel/optee/optee_os/lib/libutils/isoc/bget_malloc.c:285
    40e8:	a8c37bfd 	ldp	x29, x30, [sp],#48
    40ec:	d65f03c0 	ret

00000000000040f0 <raw_malloc>:
raw_malloc():
/home/rex/devel/optee/optee_os/lib/libutils/isoc/bget_malloc.c:293
    40f0:	a9bc7bfd 	stp	x29, x30, [sp,#-64]!
    40f4:	910003fd 	mov	x29, sp
    40f8:	f90017a0 	str	x0, [x29,#40]
    40fc:	f90013a1 	str	x1, [x29,#32]
    4100:	f9000fa2 	str	x2, [x29,#24]
/home/rex/devel/optee/optee_os/lib/libutils/isoc/bget_malloc.c:294
    4104:	f9001fbf 	str	xzr, [x29,#56]
/home/rex/devel/optee/optee_os/lib/libutils/isoc/bget_malloc.c:295
    4108:	f94017a1 	ldr	x1, [x29,#40]
    410c:	f94013a0 	ldr	x0, [x29,#32]
    4110:	8b000021 	add	x1, x1, x0
    4114:	f9400fa0 	ldr	x0, [x29,#24]
    4118:	8b000020 	add	x0, x1, x0
    411c:	f9001ba0 	str	x0, [x29,#48]
/home/rex/devel/optee/optee_os/lib/libutils/isoc/bget_malloc.c:302
    4120:	d503201f 	nop
/home/rex/devel/optee/optee_os/lib/libutils/isoc/bget_malloc.c:304
    4124:	97ffff65 	bl	3eb8 <raw_malloc_validate_pools>
/home/rex/devel/optee/optee_os/lib/libutils/isoc/bget_malloc.c:307
    4128:	f9401ba1 	ldr	x1, [x29,#48]
    412c:	f9400fa0 	ldr	x0, [x29,#24]
    4130:	eb00003f 	cmp	x1, x0
    4134:	54000163 	b.cc	4160 <raw_malloc+0x70>
/home/rex/devel/optee/optee_os/lib/libutils/isoc/bget_malloc.c:311
    4138:	f9401ba0 	ldr	x0, [x29,#48]
    413c:	f100001f 	cmp	x0, #0x0
    4140:	54000081 	b.ne	4150 <raw_malloc+0x60>
/home/rex/devel/optee/optee_os/lib/libutils/isoc/bget_malloc.c:312
    4144:	f9401ba0 	ldr	x0, [x29,#48]
    4148:	91000400 	add	x0, x0, #0x1
    414c:	f9001ba0 	str	x0, [x29,#48]
/home/rex/devel/optee/optee_os/lib/libutils/isoc/bget_malloc.c:314
    4150:	f9401ba0 	ldr	x0, [x29,#48]
    4154:	97fffbd9 	bl	30b8 <bget>
    4158:	f9001fa0 	str	x0, [x29,#56]
    415c:	14000002 	b	4164 <raw_malloc+0x74>
/home/rex/devel/optee/optee_os/lib/libutils/isoc/bget_malloc.c:308
    4160:	d503201f 	nop
/home/rex/devel/optee/optee_os/lib/libutils/isoc/bget_malloc.c:316
    4164:	f9400fa1 	ldr	x1, [x29,#24]
    4168:	f9401fa0 	ldr	x0, [x29,#56]
    416c:	97fffef5 	bl	3d40 <raw_malloc_return_hook>
/home/rex/devel/optee/optee_os/lib/libutils/isoc/bget_malloc.c:318
    4170:	f9401fa0 	ldr	x0, [x29,#56]
/home/rex/devel/optee/optee_os/lib/libutils/isoc/bget_malloc.c:319
    4174:	a8c47bfd 	ldp	x29, x30, [sp],#64
    4178:	d65f03c0 	ret

000000000000417c <raw_free>:
raw_free():
/home/rex/devel/optee/optee_os/lib/libutils/isoc/bget_malloc.c:322
    417c:	a9be7bfd 	stp	x29, x30, [sp,#-32]!
    4180:	910003fd 	mov	x29, sp
    4184:	f9000fa0 	str	x0, [x29,#24]
/home/rex/devel/optee/optee_os/lib/libutils/isoc/bget_malloc.c:323
    4188:	97ffff4c 	bl	3eb8 <raw_malloc_validate_pools>
/home/rex/devel/optee/optee_os/lib/libutils/isoc/bget_malloc.c:325
    418c:	f9400fa0 	ldr	x0, [x29,#24]
    4190:	f100001f 	cmp	x0, #0x0
    4194:	54000060 	b.eq	41a0 <raw_free+0x24>
/home/rex/devel/optee/optee_os/lib/libutils/isoc/bget_malloc.c:326
    4198:	f9400fa0 	ldr	x0, [x29,#24]
    419c:	97fffd13 	bl	35e8 <brel>
/home/rex/devel/optee/optee_os/lib/libutils/isoc/bget_malloc.c:327
    41a0:	d503201f 	nop
    41a4:	a8c27bfd 	ldp	x29, x30, [sp],#32
    41a8:	d65f03c0 	ret

00000000000041ac <raw_calloc>:
raw_calloc():
/home/rex/devel/optee/optee_os/lib/libutils/isoc/bget_malloc.c:331
    41ac:	a9bc7bfd 	stp	x29, x30, [sp,#-64]!
    41b0:	910003fd 	mov	x29, sp
    41b4:	f90017a0 	str	x0, [x29,#40]
    41b8:	f90013a1 	str	x1, [x29,#32]
    41bc:	f9000fa2 	str	x2, [x29,#24]
    41c0:	f9000ba3 	str	x3, [x29,#16]
/home/rex/devel/optee/optee_os/lib/libutils/isoc/bget_malloc.c:332
    41c4:	f94017a1 	ldr	x1, [x29,#40]
    41c8:	f94013a0 	ldr	x0, [x29,#32]
    41cc:	8b000021 	add	x1, x1, x0
    41d0:	f9400fa2 	ldr	x2, [x29,#24]
    41d4:	f9400ba0 	ldr	x0, [x29,#16]
    41d8:	9b007c40 	mul	x0, x2, x0
    41dc:	8b000020 	add	x0, x1, x0
    41e0:	f9001fa0 	str	x0, [x29,#56]
/home/rex/devel/optee/optee_os/lib/libutils/isoc/bget_malloc.c:333
    41e4:	f9001bbf 	str	xzr, [x29,#48]
/home/rex/devel/optee/optee_os/lib/libutils/isoc/bget_malloc.c:335
    41e8:	97ffff34 	bl	3eb8 <raw_malloc_validate_pools>
/home/rex/devel/optee/optee_os/lib/libutils/isoc/bget_malloc.c:338
    41ec:	f9401fa1 	ldr	x1, [x29,#56]
    41f0:	f9400fa0 	ldr	x0, [x29,#24]
    41f4:	eb00003f 	cmp	x1, x0
    41f8:	540001c3 	b.cc	4230 <raw_calloc+0x84>
/home/rex/devel/optee/optee_os/lib/libutils/isoc/bget_malloc.c:338 (discriminator 1)
    41fc:	f9401fa1 	ldr	x1, [x29,#56]
    4200:	f9400ba0 	ldr	x0, [x29,#16]
    4204:	eb00003f 	cmp	x1, x0
    4208:	54000143 	b.cc	4230 <raw_calloc+0x84>
/home/rex/devel/optee/optee_os/lib/libutils/isoc/bget_malloc.c:342
    420c:	f9401fa0 	ldr	x0, [x29,#56]
    4210:	f100001f 	cmp	x0, #0x0
    4214:	54000081 	b.ne	4224 <raw_calloc+0x78>
/home/rex/devel/optee/optee_os/lib/libutils/isoc/bget_malloc.c:343
    4218:	f9401fa0 	ldr	x0, [x29,#56]
    421c:	91000400 	add	x0, x0, #0x1
    4220:	f9001fa0 	str	x0, [x29,#56]
/home/rex/devel/optee/optee_os/lib/libutils/isoc/bget_malloc.c:345
    4224:	f9401fa0 	ldr	x0, [x29,#56]
    4228:	97fffc81 	bl	342c <bgetz>
    422c:	f9001ba0 	str	x0, [x29,#48]
/home/rex/devel/optee/optee_os/lib/libutils/isoc/bget_malloc.c:347
    4230:	f9400fa1 	ldr	x1, [x29,#24]
    4234:	f9400ba0 	ldr	x0, [x29,#16]
    4238:	9b007c20 	mul	x0, x1, x0
    423c:	aa0003e1 	mov	x1, x0
    4240:	f9401ba0 	ldr	x0, [x29,#48]
    4244:	97fffebf 	bl	3d40 <raw_malloc_return_hook>
/home/rex/devel/optee/optee_os/lib/libutils/isoc/bget_malloc.c:349
    4248:	f9401ba0 	ldr	x0, [x29,#48]
/home/rex/devel/optee/optee_os/lib/libutils/isoc/bget_malloc.c:350
    424c:	a8c47bfd 	ldp	x29, x30, [sp],#64
    4250:	d65f03c0 	ret

0000000000004254 <raw_realloc>:
raw_realloc():
/home/rex/devel/optee/optee_os/lib/libutils/isoc/bget_malloc.c:354
    4254:	a9bc7bfd 	stp	x29, x30, [sp,#-64]!
    4258:	910003fd 	mov	x29, sp
    425c:	f90017a0 	str	x0, [x29,#40]
    4260:	f90013a1 	str	x1, [x29,#32]
    4264:	f9000fa2 	str	x2, [x29,#24]
    4268:	f9000ba3 	str	x3, [x29,#16]
/home/rex/devel/optee/optee_os/lib/libutils/isoc/bget_malloc.c:355
    426c:	f94013a1 	ldr	x1, [x29,#32]
    4270:	f9400fa0 	ldr	x0, [x29,#24]
    4274:	8b000021 	add	x1, x1, x0
    4278:	f9400ba0 	ldr	x0, [x29,#16]
    427c:	8b000020 	add	x0, x1, x0
    4280:	f9001fa0 	str	x0, [x29,#56]
/home/rex/devel/optee/optee_os/lib/libutils/isoc/bget_malloc.c:356
    4284:	f9001bbf 	str	xzr, [x29,#48]
/home/rex/devel/optee/optee_os/lib/libutils/isoc/bget_malloc.c:359
    4288:	f9401fa1 	ldr	x1, [x29,#56]
    428c:	f9400ba0 	ldr	x0, [x29,#16]
    4290:	eb00003f 	cmp	x1, x0
    4294:	540001c3 	b.cc	42cc <raw_realloc+0x78>
/home/rex/devel/optee/optee_os/lib/libutils/isoc/bget_malloc.c:362
    4298:	97ffff08 	bl	3eb8 <raw_malloc_validate_pools>
/home/rex/devel/optee/optee_os/lib/libutils/isoc/bget_malloc.c:365
    429c:	f9401fa0 	ldr	x0, [x29,#56]
    42a0:	f100001f 	cmp	x0, #0x0
    42a4:	54000081 	b.ne	42b4 <raw_realloc+0x60>
/home/rex/devel/optee/optee_os/lib/libutils/isoc/bget_malloc.c:366
    42a8:	f9401fa0 	ldr	x0, [x29,#56]
    42ac:	91000400 	add	x0, x0, #0x1
    42b0:	f9001fa0 	str	x0, [x29,#56]
/home/rex/devel/optee/optee_os/lib/libutils/isoc/bget_malloc.c:368
    42b4:	f9401fa0 	ldr	x0, [x29,#56]
    42b8:	aa0003e1 	mov	x1, x0
    42bc:	f94017a0 	ldr	x0, [x29,#40]
    42c0:	97fffc90 	bl	3500 <bgetr>
    42c4:	f9001ba0 	str	x0, [x29,#48]
    42c8:	14000002 	b	42d0 <raw_realloc+0x7c>
/home/rex/devel/optee/optee_os/lib/libutils/isoc/bget_malloc.c:360
    42cc:	d503201f 	nop
/home/rex/devel/optee/optee_os/lib/libutils/isoc/bget_malloc.c:370
    42d0:	f9400ba1 	ldr	x1, [x29,#16]
    42d4:	f9401ba0 	ldr	x0, [x29,#48]
    42d8:	97fffe9a 	bl	3d40 <raw_malloc_return_hook>
/home/rex/devel/optee/optee_os/lib/libutils/isoc/bget_malloc.c:372
    42dc:	f9401ba0 	ldr	x0, [x29,#48]
/home/rex/devel/optee/optee_os/lib/libutils/isoc/bget_malloc.c:373
    42e0:	a8c47bfd 	ldp	x29, x30, [sp],#64
    42e4:	d65f03c0 	ret

00000000000042e8 <create_free_block>:
create_free_block():
/home/rex/devel/optee/optee_os/lib/libutils/isoc/bget_malloc.c:376
    42e8:	a9bd7bfd 	stp	x29, x30, [sp,#-48]!
    42ec:	910003fd 	mov	x29, sp
    42f0:	f90017a0 	str	x0, [x29,#40]
    42f4:	f90013a1 	str	x1, [x29,#32]
    42f8:	f9000fa2 	str	x2, [x29,#24]
/home/rex/devel/optee/optee_os/lib/libutils/isoc/bget_malloc.c:377
    42fc:	f94013a0 	ldr	x0, [x29,#32]
    4300:	f94017a1 	ldr	x1, [x29,#40]
    4304:	8b000021 	add	x1, x1, x0
    4308:	f9400fa0 	ldr	x0, [x29,#24]
    430c:	eb00003f 	cmp	x1, x0
    4310:	54000160 	b.eq	433c <create_free_block+0x54>
/home/rex/devel/optee/optee_os/lib/libutils/isoc/bget_malloc.c:377 (discriminator 1)
    4314:	f0000040 	adrp	x0, f000 <__func__.4113+0x18>
    4318:	911f2002 	add	x2, x0, #0x7c8
    431c:	f0000040 	adrp	x0, f000 <__func__.4113+0x18>
    4320:	91176001 	add	x1, x0, #0x5d8
    4324:	f0000040 	adrp	x0, f000 <__func__.4113+0x18>
    4328:	9117e000 	add	x0, x0, #0x5f8
    432c:	aa0203e3 	mov	x3, x2
    4330:	52802f22 	mov	w2, #0x179                 	// #377
    4334:	97fffb32 	bl	2ffc <_assert_log>
    4338:	97fffb49 	bl	305c <_assert_break>
/home/rex/devel/optee/optee_os/lib/libutils/isoc/bget_malloc.c:378
    433c:	f9400fa0 	ldr	x0, [x29,#24]
    4340:	f9400400 	ldr	x0, [x0,#8]
    4344:	f100001f 	cmp	x0, #0x0
    4348:	5400016b 	b.lt	4374 <create_free_block+0x8c>
/home/rex/devel/optee/optee_os/lib/libutils/isoc/bget_malloc.c:378 (discriminator 1)
    434c:	f0000040 	adrp	x0, f000 <__func__.4113+0x18>
    4350:	911f2002 	add	x2, x0, #0x7c8
    4354:	f0000040 	adrp	x0, f000 <__func__.4113+0x18>
    4358:	91176001 	add	x1, x0, #0x5d8
    435c:	f0000040 	adrp	x0, f000 <__func__.4113+0x18>
    4360:	91186000 	add	x0, x0, #0x618
    4364:	aa0203e3 	mov	x3, x2
    4368:	52802f42 	mov	w2, #0x17a                 	// #378
    436c:	97fffb24 	bl	2ffc <_assert_log>
    4370:	97fffb3b 	bl	305c <_assert_break>
/home/rex/devel/optee/optee_os/lib/libutils/isoc/bget_malloc.c:380
    4374:	f9400fa0 	ldr	x0, [x29,#24]
    4378:	f9400000 	ldr	x0, [x0]
    437c:	f100001f 	cmp	x0, #0x0
    4380:	54000160 	b.eq	43ac <create_free_block+0xc4>
/home/rex/devel/optee/optee_os/lib/libutils/isoc/bget_malloc.c:380 (discriminator 1)
    4384:	f0000040 	adrp	x0, f000 <__func__.4113+0x18>
    4388:	911f2002 	add	x2, x0, #0x7c8
    438c:	f0000040 	adrp	x0, f000 <__func__.4113+0x18>
    4390:	91176001 	add	x1, x0, #0x5d8
    4394:	f0000040 	adrp	x0, f000 <__func__.4113+0x18>
    4398:	9118a000 	add	x0, x0, #0x628
    439c:	aa0203e3 	mov	x3, x2
    43a0:	52802f82 	mov	w2, #0x17c                 	// #380
    43a4:	97fffb16 	bl	2ffc <_assert_log>
    43a8:	97fffb2d 	bl	305c <_assert_break>
/home/rex/devel/optee/optee_os/lib/libutils/isoc/bget_malloc.c:383
    43ac:	f94017a0 	ldr	x0, [x29,#40]
    43b0:	f94013a1 	ldr	x1, [x29,#32]
    43b4:	f9000401 	str	x1, [x0,#8]
/home/rex/devel/optee/optee_os/lib/libutils/isoc/bget_malloc.c:384
    43b8:	f94017a0 	ldr	x0, [x29,#40]
    43bc:	f900001f 	str	xzr, [x0]
/home/rex/devel/optee/optee_os/lib/libutils/isoc/bget_malloc.c:387
    43c0:	f9400fa0 	ldr	x0, [x29,#24]
    43c4:	f94013a1 	ldr	x1, [x29,#32]
    43c8:	f9000001 	str	x1, [x0]
/home/rex/devel/optee/optee_os/lib/libutils/isoc/bget_malloc.c:390
    43cc:	b0000060 	adrp	x0, 11000 <ta_props>
    43d0:	91044000 	add	x0, x0, #0x110
    43d4:	f9400c00 	ldr	x0, [x0,#24]
    43d8:	f9400801 	ldr	x1, [x0,#16]
    43dc:	b0000060 	adrp	x0, 11000 <ta_props>
    43e0:	91044000 	add	x0, x0, #0x110
    43e4:	eb00003f 	cmp	x1, x0
    43e8:	54000160 	b.eq	4414 <create_free_block+0x12c>
/home/rex/devel/optee/optee_os/lib/libutils/isoc/bget_malloc.c:390 (discriminator 1)
    43ec:	f0000040 	adrp	x0, f000 <__func__.4113+0x18>
    43f0:	911f2002 	add	x2, x0, #0x7c8
    43f4:	f0000040 	adrp	x0, f000 <__func__.4113+0x18>
    43f8:	91176001 	add	x1, x0, #0x5d8
    43fc:	f0000040 	adrp	x0, f000 <__func__.4113+0x18>
    4400:	91126000 	add	x0, x0, #0x498
    4404:	aa0203e3 	mov	x3, x2
    4408:	528030c2 	mov	w2, #0x186                 	// #390
    440c:	97fffafc 	bl	2ffc <_assert_log>
    4410:	97fffb13 	bl	305c <_assert_break>
/home/rex/devel/optee/optee_os/lib/libutils/isoc/bget_malloc.c:391
    4414:	b0000060 	adrp	x0, 11000 <ta_props>
    4418:	91044000 	add	x0, x0, #0x110
    441c:	f9400800 	ldr	x0, [x0,#16]
    4420:	f9400c01 	ldr	x1, [x0,#24]
    4424:	b0000060 	adrp	x0, 11000 <ta_props>
    4428:	91044000 	add	x0, x0, #0x110
    442c:	eb00003f 	cmp	x1, x0
    4430:	54000160 	b.eq	445c <create_free_block+0x174>
/home/rex/devel/optee/optee_os/lib/libutils/isoc/bget_malloc.c:391 (discriminator 1)
    4434:	f0000040 	adrp	x0, f000 <__func__.4113+0x18>
    4438:	911f2002 	add	x2, x0, #0x7c8
    443c:	f0000040 	adrp	x0, f000 <__func__.4113+0x18>
    4440:	91176001 	add	x1, x0, #0x5d8
    4444:	f0000040 	adrp	x0, f000 <__func__.4113+0x18>
    4448:	91132000 	add	x0, x0, #0x4c8
    444c:	aa0203e3 	mov	x3, x2
    4450:	528030e2 	mov	w2, #0x187                 	// #391
    4454:	97fffaea 	bl	2ffc <_assert_log>
    4458:	97fffb01 	bl	305c <_assert_break>
/home/rex/devel/optee/optee_os/lib/libutils/isoc/bget_malloc.c:392
    445c:	f94017a0 	ldr	x0, [x29,#40]
    4460:	b0000061 	adrp	x1, 11000 <ta_props>
    4464:	91044021 	add	x1, x1, #0x110
    4468:	f9000801 	str	x1, [x0,#16]
/home/rex/devel/optee/optee_os/lib/libutils/isoc/bget_malloc.c:393
    446c:	b0000060 	adrp	x0, 11000 <ta_props>
    4470:	91044000 	add	x0, x0, #0x110
    4474:	f9400c01 	ldr	x1, [x0,#24]
    4478:	f94017a0 	ldr	x0, [x29,#40]
    447c:	f9000c01 	str	x1, [x0,#24]
/home/rex/devel/optee/optee_os/lib/libutils/isoc/bget_malloc.c:394
    4480:	b0000060 	adrp	x0, 11000 <ta_props>
    4484:	91044000 	add	x0, x0, #0x110
    4488:	f94017a1 	ldr	x1, [x29,#40]
    448c:	f9000c01 	str	x1, [x0,#24]
/home/rex/devel/optee/optee_os/lib/libutils/isoc/bget_malloc.c:395
    4490:	f94017a0 	ldr	x0, [x29,#40]
    4494:	f9400c00 	ldr	x0, [x0,#24]
    4498:	f94017a1 	ldr	x1, [x29,#40]
    449c:	f9000801 	str	x1, [x0,#16]
/home/rex/devel/optee/optee_os/lib/libutils/isoc/bget_malloc.c:396
    44a0:	d503201f 	nop
    44a4:	a8c37bfd 	ldp	x29, x30, [sp],#48
    44a8:	d65f03c0 	ret

00000000000044ac <brel_before>:
brel_before():
/home/rex/devel/optee/optee_os/lib/libutils/isoc/bget_malloc.c:399
    44ac:	a9bb7bfd 	stp	x29, x30, [sp,#-80]!
    44b0:	910003fd 	mov	x29, sp
    44b4:	f9000fa0 	str	x0, [x29,#24]
    44b8:	f9000ba1 	str	x1, [x29,#16]
/home/rex/devel/optee/optee_os/lib/libutils/isoc/bget_malloc.c:405
    44bc:	f9400fa1 	ldr	x1, [x29,#24]
    44c0:	f9400ba0 	ldr	x0, [x29,#16]
    44c4:	eb00003f 	cmp	x1, x0
    44c8:	54000163 	b.cc	44f4 <brel_before+0x48>
/home/rex/devel/optee/optee_os/lib/libutils/isoc/bget_malloc.c:405 (discriminator 1)
    44cc:	f0000040 	adrp	x0, f000 <__func__.4113+0x18>
    44d0:	911f8002 	add	x2, x0, #0x7e0
    44d4:	f0000040 	adrp	x0, f000 <__func__.4113+0x18>
    44d8:	91176001 	add	x1, x0, #0x5d8
    44dc:	f0000040 	adrp	x0, f000 <__func__.4113+0x18>
    44e0:	91190000 	add	x0, x0, #0x640
    44e4:	aa0203e3 	mov	x3, x2
    44e8:	528032a2 	mov	w2, #0x195                 	// #405
    44ec:	97fffac4 	bl	2ffc <_assert_log>
    44f0:	97fffadb 	bl	305c <_assert_break>
/home/rex/devel/optee/optee_os/lib/libutils/isoc/bget_malloc.c:407
    44f4:	f9400ba1 	ldr	x1, [x29,#16]
    44f8:	f9400fa0 	ldr	x0, [x29,#24]
    44fc:	cb000020 	sub	x0, x1, x0
    4500:	f90027a0 	str	x0, [x29,#72]
/home/rex/devel/optee/optee_os/lib/libutils/isoc/bget_malloc.c:408
    4504:	f94027a0 	ldr	x0, [x29,#72]
    4508:	f1007c1f 	cmp	x0, #0x1f
    450c:	54000168 	b.hi	4538 <brel_before+0x8c>
/home/rex/devel/optee/optee_os/lib/libutils/isoc/bget_malloc.c:408 (discriminator 1)
    4510:	f0000040 	adrp	x0, f000 <__func__.4113+0x18>
    4514:	911f8002 	add	x2, x0, #0x7e0
    4518:	f0000040 	adrp	x0, f000 <__func__.4113+0x18>
    451c:	91176001 	add	x1, x0, #0x5d8
    4520:	f0000040 	adrp	x0, f000 <__func__.4113+0x18>
    4524:	91196000 	add	x0, x0, #0x658
    4528:	aa0203e3 	mov	x3, x2
    452c:	52803302 	mov	w2, #0x198                 	// #408
    4530:	97fffab3 	bl	2ffc <_assert_log>
    4534:	97fffaca 	bl	305c <_assert_break>
/home/rex/devel/optee/optee_os/lib/libutils/isoc/bget_malloc.c:411
    4538:	f9400fa0 	ldr	x0, [x29,#24]
    453c:	d1004000 	sub	x0, x0, #0x10
    4540:	f90023a0 	str	x0, [x29,#64]
/home/rex/devel/optee/optee_os/lib/libutils/isoc/bget_malloc.c:412
    4544:	f94023a0 	ldr	x0, [x29,#64]
    4548:	f9400400 	ldr	x0, [x0,#8]
    454c:	cb0003e0 	neg	x0, x0
    4550:	f9001fa0 	str	x0, [x29,#56]
/home/rex/devel/optee/optee_os/lib/libutils/isoc/bget_malloc.c:415
    4554:	f9400ba0 	ldr	x0, [x29,#16]
    4558:	d1004000 	sub	x0, x0, #0x10
    455c:	f9001ba0 	str	x0, [x29,#48]
/home/rex/devel/optee/optee_os/lib/libutils/isoc/bget_malloc.c:417
    4560:	f94023a0 	ldr	x0, [x29,#64]
    4564:	f9400000 	ldr	x0, [x0]
    4568:	f100001f 	cmp	x0, #0x0
    456c:	540004e0 	b.eq	4608 <brel_before+0x15c>
/home/rex/devel/optee/optee_os/lib/libutils/isoc/bget_malloc.c:422
    4570:	f94023a0 	ldr	x0, [x29,#64]
    4574:	f9400000 	ldr	x0, [x0]
    4578:	cb0003e0 	neg	x0, x0
    457c:	f94023a1 	ldr	x1, [x29,#64]
    4580:	8b000020 	add	x0, x1, x0
    4584:	f90017a0 	str	x0, [x29,#40]
/home/rex/devel/optee/optee_os/lib/libutils/isoc/bget_malloc.c:423
    4588:	f94017a0 	ldr	x0, [x29,#40]
    458c:	f9400401 	ldr	x1, [x0,#8]
    4590:	f94023a0 	ldr	x0, [x29,#64]
    4594:	f9400000 	ldr	x0, [x0]
    4598:	eb00003f 	cmp	x1, x0
    459c:	54000160 	b.eq	45c8 <brel_before+0x11c>
/home/rex/devel/optee/optee_os/lib/libutils/isoc/bget_malloc.c:423 (discriminator 1)
    45a0:	f0000040 	adrp	x0, f000 <__func__.4113+0x18>
    45a4:	911f8002 	add	x2, x0, #0x7e0
    45a8:	f0000040 	adrp	x0, f000 <__func__.4113+0x18>
    45ac:	91176001 	add	x1, x0, #0x5d8
    45b0:	f0000040 	adrp	x0, f000 <__func__.4113+0x18>
    45b4:	911a0000 	add	x0, x0, #0x680
    45b8:	aa0203e3 	mov	x3, x2
    45bc:	528034e2 	mov	w2, #0x1a7                 	// #423
    45c0:	97fffa8f 	bl	2ffc <_assert_log>
    45c4:	97fffaa6 	bl	305c <_assert_break>
/home/rex/devel/optee/optee_os/lib/libutils/isoc/bget_malloc.c:424
    45c8:	f94017a0 	ldr	x0, [x29,#40]
    45cc:	f9400401 	ldr	x1, [x0,#8]
    45d0:	f94027a0 	ldr	x0, [x29,#72]
    45d4:	8b000021 	add	x1, x1, x0
    45d8:	f94017a0 	ldr	x0, [x29,#40]
    45dc:	f9000401 	str	x1, [x0,#8]
/home/rex/devel/optee/optee_os/lib/libutils/isoc/bget_malloc.c:427
    45e0:	f94017a0 	ldr	x0, [x29,#40]
    45e4:	f9400401 	ldr	x1, [x0,#8]
    45e8:	f9401ba0 	ldr	x0, [x29,#48]
    45ec:	f9000001 	str	x1, [x0]
/home/rex/devel/optee/optee_os/lib/libutils/isoc/bget_malloc.c:429
    45f0:	f94027a1 	ldr	x1, [x29,#72]
    45f4:	f9401fa0 	ldr	x0, [x29,#56]
    45f8:	cb000021 	sub	x1, x1, x0
    45fc:	f9401ba0 	ldr	x0, [x29,#48]
    4600:	f9000401 	str	x1, [x0,#8]
    4604:	1400000a 	b	462c <brel_before+0x180>
/home/rex/devel/optee/optee_os/lib/libutils/isoc/bget_malloc.c:437
    4608:	f94027a1 	ldr	x1, [x29,#72]
    460c:	f9401fa0 	ldr	x0, [x29,#56]
    4610:	cb000021 	sub	x1, x1, x0
    4614:	f9401ba0 	ldr	x0, [x29,#48]
    4618:	f9000401 	str	x1, [x0,#8]
/home/rex/devel/optee/optee_os/lib/libutils/isoc/bget_malloc.c:439
    461c:	f9401ba2 	ldr	x2, [x29,#48]
    4620:	f94027a1 	ldr	x1, [x29,#72]
    4624:	f94023a0 	ldr	x0, [x29,#64]
    4628:	97ffff30 	bl	42e8 <create_free_block>
/home/rex/devel/optee/optee_os/lib/libutils/isoc/bget_malloc.c:443
    462c:	d00000a0 	adrp	x0, 1a000 <mempool_u32+0xe80>
    4630:	91338000 	add	x0, x0, #0xce0
    4634:	f9400001 	ldr	x1, [x0]
    4638:	f94027a0 	ldr	x0, [x29,#72]
    463c:	cb000021 	sub	x1, x1, x0
    4640:	d00000a0 	adrp	x0, 1a000 <mempool_u32+0xe80>
    4644:	91338000 	add	x0, x0, #0xce0
    4648:	f9000001 	str	x1, [x0]
/home/rex/devel/optee/optee_os/lib/libutils/isoc/bget_malloc.c:444
    464c:	d00000a0 	adrp	x0, 1a000 <mempool_u32+0xe80>
    4650:	91338000 	add	x0, x0, #0xce0
    4654:	f9400000 	ldr	x0, [x0]
    4658:	f100001f 	cmp	x0, #0x0
    465c:	5400016a 	b.ge	4688 <brel_before+0x1dc>
/home/rex/devel/optee/optee_os/lib/libutils/isoc/bget_malloc.c:444 (discriminator 1)
    4660:	f0000040 	adrp	x0, f000 <__func__.4113+0x18>
    4664:	911f8002 	add	x2, x0, #0x7e0
    4668:	f0000040 	adrp	x0, f000 <__func__.4113+0x18>
    466c:	91176001 	add	x1, x0, #0x5d8
    4670:	f0000040 	adrp	x0, f000 <__func__.4113+0x18>
    4674:	91112000 	add	x0, x0, #0x448
    4678:	aa0203e3 	mov	x3, x2
    467c:	52803782 	mov	w2, #0x1bc                 	// #444
    4680:	97fffa5f 	bl	2ffc <_assert_log>
    4684:	97fffa76 	bl	305c <_assert_break>
/home/rex/devel/optee/optee_os/lib/libutils/isoc/bget_malloc.c:446
    4688:	d503201f 	nop
    468c:	a8c57bfd 	ldp	x29, x30, [sp],#80
    4690:	d65f03c0 	ret

0000000000004694 <brel_after>:
brel_after():
/home/rex/devel/optee/optee_os/lib/libutils/isoc/bget_malloc.c:449
    4694:	a9ba7bfd 	stp	x29, x30, [sp,#-96]!
    4698:	910003fd 	mov	x29, sp
    469c:	f9000fa0 	str	x0, [x29,#24]
    46a0:	f9000ba1 	str	x1, [x29,#16]
/home/rex/devel/optee/optee_os/lib/libutils/isoc/bget_malloc.c:450
    46a4:	f9400fa0 	ldr	x0, [x29,#24]
    46a8:	d1004000 	sub	x0, x0, #0x10
    46ac:	f9002ba0 	str	x0, [x29,#80]
/home/rex/devel/optee/optee_os/lib/libutils/isoc/bget_malloc.c:452
    46b0:	f9400ba0 	ldr	x0, [x29,#16]
    46b4:	f9002fa0 	str	x0, [x29,#88]
/home/rex/devel/optee/optee_os/lib/libutils/isoc/bget_malloc.c:456
    46b8:	f9402fa0 	ldr	x0, [x29,#88]
    46bc:	f1003c1f 	cmp	x0, #0xf
    46c0:	54000068 	b.hi	46cc <brel_after+0x38>
/home/rex/devel/optee/optee_os/lib/libutils/isoc/bget_malloc.c:457
    46c4:	d2800200 	mov	x0, #0x10                  	// #16
    46c8:	f9002fa0 	str	x0, [x29,#88]
/home/rex/devel/optee/optee_os/lib/libutils/isoc/bget_malloc.c:460
    46cc:	f9402fa0 	ldr	x0, [x29,#88]
    46d0:	91003c00 	add	x0, x0, #0xf
    46d4:	927cec00 	and	x0, x0, #0xfffffffffffffff0
    46d8:	f9002fa0 	str	x0, [x29,#88]
/home/rex/devel/optee/optee_os/lib/libutils/isoc/bget_malloc.c:463
    46dc:	f9402fa0 	ldr	x0, [x29,#88]
    46e0:	91004000 	add	x0, x0, #0x10
    46e4:	f9002fa0 	str	x0, [x29,#88]
/home/rex/devel/optee/optee_os/lib/libutils/isoc/bget_malloc.c:464
    46e8:	f9402ba0 	ldr	x0, [x29,#80]
    46ec:	f9400400 	ldr	x0, [x0,#8]
    46f0:	cb0003e1 	neg	x1, x0
    46f4:	f9402fa0 	ldr	x0, [x29,#88]
    46f8:	eb00003f 	cmp	x1, x0
    46fc:	5400016a 	b.ge	4728 <brel_after+0x94>
/home/rex/devel/optee/optee_os/lib/libutils/isoc/bget_malloc.c:464 (discriminator 1)
    4700:	f0000040 	adrp	x0, f000 <__func__.4113+0x18>
    4704:	911fc002 	add	x2, x0, #0x7f0
    4708:	f0000040 	adrp	x0, f000 <__func__.4113+0x18>
    470c:	91176001 	add	x1, x0, #0x5d8
    4710:	f0000040 	adrp	x0, f000 <__func__.4113+0x18>
    4714:	911aa000 	add	x0, x0, #0x6a8
    4718:	aa0203e3 	mov	x3, x2
    471c:	52803a02 	mov	w2, #0x1d0                 	// #464
    4720:	97fffa37 	bl	2ffc <_assert_log>
    4724:	97fffa4e 	bl	305c <_assert_break>
/home/rex/devel/optee/optee_os/lib/libutils/isoc/bget_malloc.c:470
    4728:	f9402ba0 	ldr	x0, [x29,#80]
    472c:	f9400400 	ldr	x0, [x0,#8]
    4730:	cb0003e1 	neg	x1, x0
    4734:	f9402fa0 	ldr	x0, [x29,#88]
    4738:	cb000020 	sub	x0, x1, x0
    473c:	f90027a0 	str	x0, [x29,#72]
/home/rex/devel/optee/optee_os/lib/libutils/isoc/bget_malloc.c:471
    4740:	f94027a0 	ldr	x0, [x29,#72]
    4744:	f1007c1f 	cmp	x0, #0x1f
    4748:	540012a9 	b.ls	499c <brel_after+0x308>
/home/rex/devel/optee/optee_os/lib/libutils/isoc/bget_malloc.c:474
    474c:	f9402ba0 	ldr	x0, [x29,#80]
    4750:	f9400400 	ldr	x0, [x0,#8]
    4754:	cb0003e0 	neg	x0, x0
    4758:	f9402ba1 	ldr	x1, [x29,#80]
    475c:	8b000020 	add	x0, x1, x0
    4760:	f90023a0 	str	x0, [x29,#64]
/home/rex/devel/optee/optee_os/lib/libutils/isoc/bget_malloc.c:478
    4764:	f9402fa0 	ldr	x0, [x29,#88]
    4768:	cb0003e1 	neg	x1, x0
    476c:	f9402ba0 	ldr	x0, [x29,#80]
    4770:	f9000401 	str	x1, [x0,#8]
/home/rex/devel/optee/optee_os/lib/libutils/isoc/bget_malloc.c:479
    4774:	f94023a0 	ldr	x0, [x29,#64]
    4778:	f9400400 	ldr	x0, [x0,#8]
    477c:	f100001f 	cmp	x0, #0x0
    4780:	54000d4d 	b.le	4928 <brel_after+0x294>
/home/rex/devel/optee/optee_os/lib/libutils/isoc/bget_malloc.c:481
    4784:	f94023a0 	ldr	x0, [x29,#64]
    4788:	f9001fa0 	str	x0, [x29,#56]
/home/rex/devel/optee/optee_os/lib/libutils/isoc/bget_malloc.c:482
    478c:	f9402fa0 	ldr	x0, [x29,#88]
    4790:	f9402ba1 	ldr	x1, [x29,#80]
    4794:	8b000020 	add	x0, x1, x0
    4798:	f9001ba0 	str	x0, [x29,#48]
/home/rex/devel/optee/optee_os/lib/libutils/isoc/bget_malloc.c:483
    479c:	f94023a0 	ldr	x0, [x29,#64]
    47a0:	f9400400 	ldr	x0, [x0,#8]
    47a4:	aa0003e1 	mov	x1, x0
    47a8:	f94023a0 	ldr	x0, [x29,#64]
    47ac:	8b010000 	add	x0, x0, x1
    47b0:	f90017a0 	str	x0, [x29,#40]
/home/rex/devel/optee/optee_os/lib/libutils/isoc/bget_malloc.c:485
    47b4:	f9401fa0 	ldr	x0, [x29,#56]
    47b8:	f9400000 	ldr	x0, [x0]
    47bc:	f100001f 	cmp	x0, #0x0
    47c0:	54000160 	b.eq	47ec <brel_after+0x158>
/home/rex/devel/optee/optee_os/lib/libutils/isoc/bget_malloc.c:485 (discriminator 1)
    47c4:	f0000040 	adrp	x0, f000 <__func__.4113+0x18>
    47c8:	911fc002 	add	x2, x0, #0x7f0
    47cc:	f0000040 	adrp	x0, f000 <__func__.4113+0x18>
    47d0:	91176001 	add	x1, x0, #0x5d8
    47d4:	f0000040 	adrp	x0, f000 <__func__.4113+0x18>
    47d8:	911b0000 	add	x0, x0, #0x6c0
    47dc:	aa0203e3 	mov	x3, x2
    47e0:	52803ca2 	mov	w2, #0x1e5                 	// #485
    47e4:	97fffa06 	bl	2ffc <_assert_log>
    47e8:	97fffa1d 	bl	305c <_assert_break>
/home/rex/devel/optee/optee_os/lib/libutils/isoc/bget_malloc.c:486
    47ec:	f94017a0 	ldr	x0, [x29,#40]
    47f0:	f9400001 	ldr	x1, [x0]
    47f4:	f9401fa0 	ldr	x0, [x29,#56]
    47f8:	f9400400 	ldr	x0, [x0,#8]
    47fc:	eb00003f 	cmp	x1, x0
    4800:	54000160 	b.eq	482c <brel_after+0x198>
/home/rex/devel/optee/optee_os/lib/libutils/isoc/bget_malloc.c:486 (discriminator 1)
    4804:	f0000040 	adrp	x0, f000 <__func__.4113+0x18>
    4808:	911fc002 	add	x2, x0, #0x7f0
    480c:	f0000040 	adrp	x0, f000 <__func__.4113+0x18>
    4810:	91176001 	add	x1, x0, #0x5d8
    4814:	f0000040 	adrp	x0, f000 <__func__.4113+0x18>
    4818:	911b6000 	add	x0, x0, #0x6d8
    481c:	aa0203e3 	mov	x3, x2
    4820:	52803cc2 	mov	w2, #0x1e6                 	// #486
    4824:	97fff9f6 	bl	2ffc <_assert_log>
    4828:	97fffa0d 	bl	305c <_assert_break>
/home/rex/devel/optee/optee_os/lib/libutils/isoc/bget_malloc.c:489
    482c:	f9401ba0 	ldr	x0, [x29,#48]
    4830:	f900001f 	str	xzr, [x0]
/home/rex/devel/optee/optee_os/lib/libutils/isoc/bget_malloc.c:490
    4834:	f9401fa0 	ldr	x0, [x29,#56]
    4838:	f9400401 	ldr	x1, [x0,#8]
    483c:	f94027a0 	ldr	x0, [x29,#72]
    4840:	8b000021 	add	x1, x1, x0
    4844:	f9401ba0 	ldr	x0, [x29,#48]
    4848:	f9000401 	str	x1, [x0,#8]
/home/rex/devel/optee/optee_os/lib/libutils/isoc/bget_malloc.c:493
    484c:	f94017a0 	ldr	x0, [x29,#40]
    4850:	f9400001 	ldr	x1, [x0]
    4854:	f94027a0 	ldr	x0, [x29,#72]
    4858:	8b000021 	add	x1, x1, x0
    485c:	f94017a0 	ldr	x0, [x29,#40]
    4860:	f9000001 	str	x1, [x0]
/home/rex/devel/optee/optee_os/lib/libutils/isoc/bget_malloc.c:499
    4864:	f9401fa0 	ldr	x0, [x29,#56]
    4868:	f9400c00 	ldr	x0, [x0,#24]
    486c:	f9400801 	ldr	x1, [x0,#16]
    4870:	f9401fa0 	ldr	x0, [x29,#56]
    4874:	eb00003f 	cmp	x1, x0
    4878:	54000160 	b.eq	48a4 <brel_after+0x210>
/home/rex/devel/optee/optee_os/lib/libutils/isoc/bget_malloc.c:499 (discriminator 1)
    487c:	f0000040 	adrp	x0, f000 <__func__.4113+0x18>
    4880:	911fc002 	add	x2, x0, #0x7f0
    4884:	f0000040 	adrp	x0, f000 <__func__.4113+0x18>
    4888:	91176001 	add	x1, x0, #0x5d8
    488c:	f0000040 	adrp	x0, f000 <__func__.4113+0x18>
    4890:	911be000 	add	x0, x0, #0x6f8
    4894:	aa0203e3 	mov	x3, x2
    4898:	52803e62 	mov	w2, #0x1f3                 	// #499
    489c:	97fff9d8 	bl	2ffc <_assert_log>
    48a0:	97fff9ef 	bl	305c <_assert_break>
/home/rex/devel/optee/optee_os/lib/libutils/isoc/bget_malloc.c:500
    48a4:	f9401fa0 	ldr	x0, [x29,#56]
    48a8:	f9400800 	ldr	x0, [x0,#16]
    48ac:	f9400c01 	ldr	x1, [x0,#24]
    48b0:	f9401fa0 	ldr	x0, [x29,#56]
    48b4:	eb00003f 	cmp	x1, x0
    48b8:	54000160 	b.eq	48e4 <brel_after+0x250>
/home/rex/devel/optee/optee_os/lib/libutils/isoc/bget_malloc.c:500 (discriminator 1)
    48bc:	f0000040 	adrp	x0, f000 <__func__.4113+0x18>
    48c0:	911fc002 	add	x2, x0, #0x7f0
    48c4:	f0000040 	adrp	x0, f000 <__func__.4113+0x18>
    48c8:	91176001 	add	x1, x0, #0x5d8
    48cc:	f0000040 	adrp	x0, f000 <__func__.4113+0x18>
    48d0:	911c6000 	add	x0, x0, #0x718
    48d4:	aa0203e3 	mov	x3, x2
    48d8:	52803e82 	mov	w2, #0x1f4                 	// #500
    48dc:	97fff9c8 	bl	2ffc <_assert_log>
    48e0:	97fff9df 	bl	305c <_assert_break>
/home/rex/devel/optee/optee_os/lib/libutils/isoc/bget_malloc.c:503
    48e4:	f9401fa0 	ldr	x0, [x29,#56]
    48e8:	f9400c01 	ldr	x1, [x0,#24]
    48ec:	f9401ba0 	ldr	x0, [x29,#48]
    48f0:	f9000c01 	str	x1, [x0,#24]
/home/rex/devel/optee/optee_os/lib/libutils/isoc/bget_malloc.c:504
    48f4:	f9401fa0 	ldr	x0, [x29,#56]
    48f8:	f9400801 	ldr	x1, [x0,#16]
    48fc:	f9401ba0 	ldr	x0, [x29,#48]
    4900:	f9000801 	str	x1, [x0,#16]
/home/rex/devel/optee/optee_os/lib/libutils/isoc/bget_malloc.c:507
    4904:	f9401ba0 	ldr	x0, [x29,#48]
    4908:	f9400c00 	ldr	x0, [x0,#24]
    490c:	f9401ba1 	ldr	x1, [x29,#48]
    4910:	f9000801 	str	x1, [x0,#16]
/home/rex/devel/optee/optee_os/lib/libutils/isoc/bget_malloc.c:508
    4914:	f9401ba0 	ldr	x0, [x29,#48]
    4918:	f9400800 	ldr	x0, [x0,#16]
    491c:	f9401ba1 	ldr	x1, [x29,#48]
    4920:	f9000c01 	str	x1, [x0,#24]
    4924:	14000007 	b	4940 <brel_after+0x2ac>
/home/rex/devel/optee/optee_os/lib/libutils/isoc/bget_malloc.c:511
    4928:	f9402fa0 	ldr	x0, [x29,#88]
    492c:	f9402ba1 	ldr	x1, [x29,#80]
    4930:	8b000020 	add	x0, x1, x0
    4934:	f94023a2 	ldr	x2, [x29,#64]
    4938:	f94027a1 	ldr	x1, [x29,#72]
    493c:	97fffe6b 	bl	42e8 <create_free_block>
/home/rex/devel/optee/optee_os/lib/libutils/isoc/bget_malloc.c:515
    4940:	d00000a0 	adrp	x0, 1a000 <mempool_u32+0xe80>
    4944:	91338000 	add	x0, x0, #0xce0
    4948:	f9400001 	ldr	x1, [x0]
    494c:	f94027a0 	ldr	x0, [x29,#72]
    4950:	cb000021 	sub	x1, x1, x0
    4954:	d00000a0 	adrp	x0, 1a000 <mempool_u32+0xe80>
    4958:	91338000 	add	x0, x0, #0xce0
    495c:	f9000001 	str	x1, [x0]
/home/rex/devel/optee/optee_os/lib/libutils/isoc/bget_malloc.c:516
    4960:	d00000a0 	adrp	x0, 1a000 <mempool_u32+0xe80>
    4964:	91338000 	add	x0, x0, #0xce0
    4968:	f9400000 	ldr	x0, [x0]
    496c:	f100001f 	cmp	x0, #0x0
    4970:	5400018a 	b.ge	49a0 <brel_after+0x30c>
/home/rex/devel/optee/optee_os/lib/libutils/isoc/bget_malloc.c:516 (discriminator 1)
    4974:	f0000040 	adrp	x0, f000 <__func__.4113+0x18>
    4978:	911fc002 	add	x2, x0, #0x7f0
    497c:	f0000040 	adrp	x0, f000 <__func__.4113+0x18>
    4980:	91176001 	add	x1, x0, #0x5d8
    4984:	f0000040 	adrp	x0, f000 <__func__.4113+0x18>
    4988:	91112000 	add	x0, x0, #0x448
    498c:	aa0203e3 	mov	x3, x2
    4990:	52804082 	mov	w2, #0x204                 	// #516
    4994:	97fff99a 	bl	2ffc <_assert_log>
    4998:	97fff9b1 	bl	305c <_assert_break>
/home/rex/devel/optee/optee_os/lib/libutils/isoc/bget_malloc.c:472
    499c:	d503201f 	nop
/home/rex/devel/optee/optee_os/lib/libutils/isoc/bget_malloc.c:519
    49a0:	a8c67bfd 	ldp	x29, x30, [sp],#96
    49a4:	d65f03c0 	ret

00000000000049a8 <raw_memalign>:
raw_memalign():
/home/rex/devel/optee/optee_os/lib/libutils/isoc/bget_malloc.c:523
    49a8:	a9bb7bfd 	stp	x29, x30, [sp,#-80]!
    49ac:	910003fd 	mov	x29, sp
    49b0:	f90017a0 	str	x0, [x29,#40]
    49b4:	f90013a1 	str	x1, [x29,#32]
    49b8:	f9000fa2 	str	x2, [x29,#24]
    49bc:	f9000ba3 	str	x3, [x29,#16]
/home/rex/devel/optee/optee_os/lib/libutils/isoc/bget_malloc.c:527
    49c0:	97fffd3e 	bl	3eb8 <raw_malloc_validate_pools>
/home/rex/devel/optee/optee_os/lib/libutils/isoc/bget_malloc.c:529
    49c4:	f9400fa0 	ldr	x0, [x29,#24]
    49c8:	f100001f 	cmp	x0, #0x0
    49cc:	54000100 	b.eq	49ec <raw_memalign+0x44>
/home/rex/devel/optee/optee_os/lib/libutils/isoc/bget_malloc.c:529 (discriminator 1)
    49d0:	f9400fa0 	ldr	x0, [x29,#24]
    49d4:	cb0003e1 	neg	x1, x0
    49d8:	f9400fa0 	ldr	x0, [x29,#24]
    49dc:	8a000021 	and	x1, x1, x0
    49e0:	f9400fa0 	ldr	x0, [x29,#24]
    49e4:	eb00003f 	cmp	x1, x0
    49e8:	54000060 	b.eq	49f4 <raw_memalign+0x4c>
/home/rex/devel/optee/optee_os/lib/libutils/isoc/bget_malloc.c:530
    49ec:	d2800000 	mov	x0, #0x0                   	// #0
    49f0:	1400006c 	b	4ba0 <raw_memalign+0x1f8>
/home/rex/devel/optee/optee_os/lib/libutils/isoc/bget_malloc.c:536
    49f4:	f9400fa0 	ldr	x0, [x29,#24]
    49f8:	f100401f 	cmp	x0, #0x10
    49fc:	540000c8 	b.hi	4a14 <raw_memalign+0x6c>
/home/rex/devel/optee/optee_os/lib/libutils/isoc/bget_malloc.c:537
    4a00:	f9400ba2 	ldr	x2, [x29,#16]
    4a04:	f94013a1 	ldr	x1, [x29,#32]
    4a08:	f94017a0 	ldr	x0, [x29,#40]
    4a0c:	97fffdb9 	bl	40f0 <raw_malloc>
    4a10:	14000064 	b	4ba0 <raw_memalign+0x1f8>
/home/rex/devel/optee/optee_os/lib/libutils/isoc/bget_malloc.c:539
    4a14:	f94017a1 	ldr	x1, [x29,#40]
    4a18:	f94013a0 	ldr	x0, [x29,#32]
    4a1c:	8b000021 	add	x1, x1, x0
    4a20:	f9400fa0 	ldr	x0, [x29,#24]
    4a24:	8b000021 	add	x1, x1, x0
    4a28:	f9400ba0 	ldr	x0, [x29,#16]
    4a2c:	8b000020 	add	x0, x1, x0
    4a30:	91008000 	add	x0, x0, #0x20
    4a34:	f9001fa0 	str	x0, [x29,#56]
/home/rex/devel/optee/optee_os/lib/libutils/isoc/bget_malloc.c:543
    4a38:	f9401fa1 	ldr	x1, [x29,#56]
    4a3c:	f9400fa0 	ldr	x0, [x29,#24]
    4a40:	eb00003f 	cmp	x1, x0
    4a44:	540000a3 	b.cc	4a58 <raw_memalign+0xb0>
/home/rex/devel/optee/optee_os/lib/libutils/isoc/bget_malloc.c:543 (discriminator 1)
    4a48:	f9401fa1 	ldr	x1, [x29,#56]
    4a4c:	f9400ba0 	ldr	x0, [x29,#16]
    4a50:	eb00003f 	cmp	x1, x0
    4a54:	54000062 	b.cs	4a60 <raw_memalign+0xb8>
/home/rex/devel/optee/optee_os/lib/libutils/isoc/bget_malloc.c:544
    4a58:	d2800000 	mov	x0, #0x0                   	// #0
    4a5c:	14000051 	b	4ba0 <raw_memalign+0x1f8>
/home/rex/devel/optee/optee_os/lib/libutils/isoc/bget_malloc.c:546
    4a60:	f9401fa0 	ldr	x0, [x29,#56]
    4a64:	97fff995 	bl	30b8 <bget>
    4a68:	f90027a0 	str	x0, [x29,#72]
/home/rex/devel/optee/optee_os/lib/libutils/isoc/bget_malloc.c:547
    4a6c:	f94027a0 	ldr	x0, [x29,#72]
    4a70:	f100001f 	cmp	x0, #0x0
    4a74:	540008c0 	b.eq	4b8c <raw_memalign+0x1e4>
/home/rex/devel/optee/optee_os/lib/libutils/isoc/bget_malloc.c:550
    4a78:	f94027a1 	ldr	x1, [x29,#72]
    4a7c:	f94017a0 	ldr	x0, [x29,#40]
    4a80:	8b000021 	add	x1, x1, x0
    4a84:	f9400fa0 	ldr	x0, [x29,#24]
    4a88:	d1000400 	sub	x0, x0, #0x1
    4a8c:	8a000020 	and	x0, x1, x0
    4a90:	f100001f 	cmp	x0, #0x0
    4a94:	54000680 	b.eq	4b64 <raw_memalign+0x1bc>
/home/rex/devel/optee/optee_os/lib/libutils/isoc/bget_malloc.c:563
    4a98:	f94027a1 	ldr	x1, [x29,#72]
    4a9c:	f94017a0 	ldr	x0, [x29,#40]
    4aa0:	8b000021 	add	x1, x1, x0
    4aa4:	f9400fa0 	ldr	x0, [x29,#24]
    4aa8:	8b000020 	add	x0, x1, x0
    4aac:	f90023a0 	str	x0, [x29,#64]
/home/rex/devel/optee/optee_os/lib/libutils/isoc/bget_malloc.c:564
    4ab0:	f9400fa0 	ldr	x0, [x29,#24]
    4ab4:	cb0003e0 	neg	x0, x0
    4ab8:	f94023a1 	ldr	x1, [x29,#64]
    4abc:	8a000020 	and	x0, x1, x0
    4ac0:	f90023a0 	str	x0, [x29,#64]
/home/rex/devel/optee/optee_os/lib/libutils/isoc/bget_malloc.c:565
    4ac4:	f94023a1 	ldr	x1, [x29,#64]
    4ac8:	f94017a0 	ldr	x0, [x29,#40]
    4acc:	cb000020 	sub	x0, x1, x0
    4ad0:	f90023a0 	str	x0, [x29,#64]
/home/rex/devel/optee/optee_os/lib/libutils/isoc/bget_malloc.c:566
    4ad4:	f94023a1 	ldr	x1, [x29,#64]
    4ad8:	f94027a0 	ldr	x0, [x29,#72]
    4adc:	cb000020 	sub	x0, x1, x0
    4ae0:	f1007c1f 	cmp	x0, #0x1f
    4ae4:	540000a8 	b.hi	4af8 <raw_memalign+0x150>
/home/rex/devel/optee/optee_os/lib/libutils/isoc/bget_malloc.c:567
    4ae8:	f94023a1 	ldr	x1, [x29,#64]
    4aec:	f9400fa0 	ldr	x0, [x29,#24]
    4af0:	8b000020 	add	x0, x1, x0
    4af4:	f90023a0 	str	x0, [x29,#64]
/home/rex/devel/optee/optee_os/lib/libutils/isoc/bget_malloc.c:568
    4af8:	f94023a1 	ldr	x1, [x29,#64]
    4afc:	f94017a0 	ldr	x0, [x29,#40]
    4b00:	8b000021 	add	x1, x1, x0
    4b04:	f94013a0 	ldr	x0, [x29,#32]
    4b08:	8b000021 	add	x1, x1, x0
    4b0c:	f9400ba0 	ldr	x0, [x29,#16]
    4b10:	8b000021 	add	x1, x1, x0
    4b14:	f94027a2 	ldr	x2, [x29,#72]
    4b18:	f9401fa0 	ldr	x0, [x29,#56]
    4b1c:	8b000040 	add	x0, x2, x0
    4b20:	eb00003f 	cmp	x1, x0
    4b24:	54000169 	b.ls	4b50 <raw_memalign+0x1a8>
/home/rex/devel/optee/optee_os/lib/libutils/isoc/bget_malloc.c:568 (discriminator 1)
    4b28:	f0000040 	adrp	x0, f000 <__func__.4113+0x18>
    4b2c:	91200002 	add	x2, x0, #0x800
    4b30:	f0000040 	adrp	x0, f000 <__func__.4113+0x18>
    4b34:	91176001 	add	x1, x0, #0x5d8
    4b38:	f0000040 	adrp	x0, f000 <__func__.4113+0x18>
    4b3c:	911ce000 	add	x0, x0, #0x738
    4b40:	aa0203e3 	mov	x3, x2
    4b44:	52804702 	mov	w2, #0x238                 	// #568
    4b48:	97fff92d 	bl	2ffc <_assert_log>
    4b4c:	97fff944 	bl	305c <_assert_break>
/home/rex/devel/optee/optee_os/lib/libutils/isoc/bget_malloc.c:571
    4b50:	f94027a0 	ldr	x0, [x29,#72]
    4b54:	f94023a1 	ldr	x1, [x29,#64]
    4b58:	97fffe55 	bl	44ac <brel_before>
/home/rex/devel/optee/optee_os/lib/libutils/isoc/bget_malloc.c:574
    4b5c:	f94023a0 	ldr	x0, [x29,#64]
    4b60:	f90027a0 	str	x0, [x29,#72]
/home/rex/devel/optee/optee_os/lib/libutils/isoc/bget_malloc.c:581
    4b64:	f94027a2 	ldr	x2, [x29,#72]
    4b68:	f94017a1 	ldr	x1, [x29,#40]
    4b6c:	f94013a0 	ldr	x0, [x29,#32]
    4b70:	8b000021 	add	x1, x1, x0
    4b74:	f9400ba0 	ldr	x0, [x29,#16]
    4b78:	8b000020 	add	x0, x1, x0
    4b7c:	aa0003e1 	mov	x1, x0
    4b80:	aa0203e0 	mov	x0, x2
    4b84:	97fffec4 	bl	4694 <brel_after>
    4b88:	14000002 	b	4b90 <raw_memalign+0x1e8>
/home/rex/devel/optee/optee_os/lib/libutils/isoc/bget_malloc.c:548
    4b8c:	d503201f 	nop
/home/rex/devel/optee/optee_os/lib/libutils/isoc/bget_malloc.c:583
    4b90:	f94027a0 	ldr	x0, [x29,#72]
    4b94:	f9400ba1 	ldr	x1, [x29,#16]
    4b98:	97fffc6a 	bl	3d40 <raw_malloc_return_hook>
/home/rex/devel/optee/optee_os/lib/libutils/isoc/bget_malloc.c:585
    4b9c:	f94027a0 	ldr	x0, [x29,#72]
/home/rex/devel/optee/optee_os/lib/libutils/isoc/bget_malloc.c:586
    4ba0:	a8c57bfd 	ldp	x29, x30, [sp],#80
    4ba4:	d65f03c0 	ret

0000000000004ba8 <bget_buf_size>:
bget_buf_size():
/home/rex/devel/optee/optee_os/lib/libutils/isoc/bget_malloc.c:590
    4ba8:	a9bd7bfd 	stp	x29, x30, [sp,#-48]!
    4bac:	910003fd 	mov	x29, sp
    4bb0:	f9000fa0 	str	x0, [x29,#24]
/home/rex/devel/optee/optee_os/lib/libutils/isoc/bget_malloc.c:594
    4bb4:	f9400fa0 	ldr	x0, [x29,#24]
    4bb8:	d1004000 	sub	x0, x0, #0x10
    4bbc:	f90017a0 	str	x0, [x29,#40]
/home/rex/devel/optee/optee_os/lib/libutils/isoc/bget_malloc.c:595
    4bc0:	f94017a0 	ldr	x0, [x29,#40]
    4bc4:	f9400400 	ldr	x0, [x0,#8]
    4bc8:	cb0003e0 	neg	x0, x0
    4bcc:	f90013a0 	str	x0, [x29,#32]
/home/rex/devel/optee/optee_os/lib/libutils/isoc/bget_malloc.c:605
    4bd0:	f94013a0 	ldr	x0, [x29,#32]
    4bd4:	d1004000 	sub	x0, x0, #0x10
    4bd8:	f90013a0 	str	x0, [x29,#32]
/home/rex/devel/optee/optee_os/lib/libutils/isoc/bget_malloc.c:606
    4bdc:	f94013a0 	ldr	x0, [x29,#32]
    4be0:	f100001f 	cmp	x0, #0x0
    4be4:	5400016c 	b.gt	4c10 <bget_buf_size+0x68>
/home/rex/devel/optee/optee_os/lib/libutils/isoc/bget_malloc.c:606 (discriminator 1)
    4be8:	f0000040 	adrp	x0, f000 <__func__.4113+0x18>
    4bec:	91204002 	add	x2, x0, #0x810
    4bf0:	f0000040 	adrp	x0, f000 <__func__.4113+0x18>
    4bf4:	91176001 	add	x1, x0, #0x5d8
    4bf8:	f0000040 	adrp	x0, f000 <__func__.4113+0x18>
    4bfc:	910fa000 	add	x0, x0, #0x3e8
    4c00:	aa0203e3 	mov	x3, x2
    4c04:	52804bc2 	mov	w2, #0x25e                 	// #606
    4c08:	97fff8fd 	bl	2ffc <_assert_log>
    4c0c:	97fff914 	bl	305c <_assert_break>
/home/rex/devel/optee/optee_os/lib/libutils/isoc/bget_malloc.c:607
    4c10:	f94013a0 	ldr	x0, [x29,#32]
/home/rex/devel/optee/optee_os/lib/libutils/isoc/bget_malloc.c:608
    4c14:	a8c37bfd 	ldp	x29, x30, [sp],#48
    4c18:	d65f03c0 	ret

0000000000004c1c <malloc>:
malloc():
/home/rex/devel/optee/optee_os/lib/libutils/isoc/bget_malloc.c:810
    4c1c:	a9bd7bfd 	stp	x29, x30, [sp,#-48]!
    4c20:	910003fd 	mov	x29, sp
    4c24:	f9000fa0 	str	x0, [x29,#24]
/home/rex/devel/optee/optee_os/lib/libutils/isoc/bget_malloc.c:812
    4c28:	97fff911 	bl	306c <malloc_lock>
    4c2c:	b9002fa0 	str	w0, [x29,#44]
/home/rex/devel/optee/optee_os/lib/libutils/isoc/bget_malloc.c:814
    4c30:	f9400fa2 	ldr	x2, [x29,#24]
    4c34:	d2800001 	mov	x1, #0x0                   	// #0
    4c38:	d2800000 	mov	x0, #0x0                   	// #0
    4c3c:	97fffd2d 	bl	40f0 <raw_malloc>
    4c40:	f90013a0 	str	x0, [x29,#32]
/home/rex/devel/optee/optee_os/lib/libutils/isoc/bget_malloc.c:815
    4c44:	b9402fa0 	ldr	w0, [x29,#44]
    4c48:	97fff90b 	bl	3074 <malloc_unlock>
/home/rex/devel/optee/optee_os/lib/libutils/isoc/bget_malloc.c:816
    4c4c:	f94013a0 	ldr	x0, [x29,#32]
/home/rex/devel/optee/optee_os/lib/libutils/isoc/bget_malloc.c:817
    4c50:	a8c37bfd 	ldp	x29, x30, [sp],#48
    4c54:	d65f03c0 	ret

0000000000004c58 <free>:
free():
/home/rex/devel/optee/optee_os/lib/libutils/isoc/bget_malloc.c:820
    4c58:	a9bd7bfd 	stp	x29, x30, [sp,#-48]!
    4c5c:	910003fd 	mov	x29, sp
    4c60:	f9000fa0 	str	x0, [x29,#24]
/home/rex/devel/optee/optee_os/lib/libutils/isoc/bget_malloc.c:821
    4c64:	97fff902 	bl	306c <malloc_lock>
    4c68:	b9002fa0 	str	w0, [x29,#44]
/home/rex/devel/optee/optee_os/lib/libutils/isoc/bget_malloc.c:823
    4c6c:	f9400fa0 	ldr	x0, [x29,#24]
    4c70:	97fffd43 	bl	417c <raw_free>
/home/rex/devel/optee/optee_os/lib/libutils/isoc/bget_malloc.c:824
    4c74:	b9402fa0 	ldr	w0, [x29,#44]
    4c78:	97fff8ff 	bl	3074 <malloc_unlock>
/home/rex/devel/optee/optee_os/lib/libutils/isoc/bget_malloc.c:825
    4c7c:	d503201f 	nop
    4c80:	a8c37bfd 	ldp	x29, x30, [sp],#48
    4c84:	d65f03c0 	ret

0000000000004c88 <calloc>:
calloc():
/home/rex/devel/optee/optee_os/lib/libutils/isoc/bget_malloc.c:828
    4c88:	a9bd7bfd 	stp	x29, x30, [sp,#-48]!
    4c8c:	910003fd 	mov	x29, sp
    4c90:	f9000fa0 	str	x0, [x29,#24]
    4c94:	f9000ba1 	str	x1, [x29,#16]
/home/rex/devel/optee/optee_os/lib/libutils/isoc/bget_malloc.c:830
    4c98:	97fff8f5 	bl	306c <malloc_lock>
    4c9c:	b9002fa0 	str	w0, [x29,#44]
/home/rex/devel/optee/optee_os/lib/libutils/isoc/bget_malloc.c:832
    4ca0:	f9400ba3 	ldr	x3, [x29,#16]
    4ca4:	f9400fa2 	ldr	x2, [x29,#24]
    4ca8:	d2800001 	mov	x1, #0x0                   	// #0
    4cac:	d2800000 	mov	x0, #0x0                   	// #0
    4cb0:	97fffd3f 	bl	41ac <raw_calloc>
    4cb4:	f90013a0 	str	x0, [x29,#32]
/home/rex/devel/optee/optee_os/lib/libutils/isoc/bget_malloc.c:833
    4cb8:	b9402fa0 	ldr	w0, [x29,#44]
    4cbc:	97fff8ee 	bl	3074 <malloc_unlock>
/home/rex/devel/optee/optee_os/lib/libutils/isoc/bget_malloc.c:834
    4cc0:	f94013a0 	ldr	x0, [x29,#32]
/home/rex/devel/optee/optee_os/lib/libutils/isoc/bget_malloc.c:835
    4cc4:	a8c37bfd 	ldp	x29, x30, [sp],#48
    4cc8:	d65f03c0 	ret

0000000000004ccc <realloc_unlocked>:
realloc_unlocked():
/home/rex/devel/optee/optee_os/lib/libutils/isoc/bget_malloc.c:838
    4ccc:	a9be7bfd 	stp	x29, x30, [sp,#-32]!
    4cd0:	910003fd 	mov	x29, sp
    4cd4:	f9000fa0 	str	x0, [x29,#24]
    4cd8:	f9000ba1 	str	x1, [x29,#16]
/home/rex/devel/optee/optee_os/lib/libutils/isoc/bget_malloc.c:839
    4cdc:	f9400ba3 	ldr	x3, [x29,#16]
    4ce0:	d2800002 	mov	x2, #0x0                   	// #0
    4ce4:	d2800001 	mov	x1, #0x0                   	// #0
    4ce8:	f9400fa0 	ldr	x0, [x29,#24]
    4cec:	97fffd5a 	bl	4254 <raw_realloc>
/home/rex/devel/optee/optee_os/lib/libutils/isoc/bget_malloc.c:840
    4cf0:	a8c27bfd 	ldp	x29, x30, [sp],#32
    4cf4:	d65f03c0 	ret

0000000000004cf8 <realloc>:
realloc():
/home/rex/devel/optee/optee_os/lib/libutils/isoc/bget_malloc.c:843
    4cf8:	a9bd7bfd 	stp	x29, x30, [sp,#-48]!
    4cfc:	910003fd 	mov	x29, sp
    4d00:	f9000fa0 	str	x0, [x29,#24]
    4d04:	f9000ba1 	str	x1, [x29,#16]
/home/rex/devel/optee/optee_os/lib/libutils/isoc/bget_malloc.c:845
    4d08:	97fff8d9 	bl	306c <malloc_lock>
    4d0c:	b9002fa0 	str	w0, [x29,#44]
/home/rex/devel/optee/optee_os/lib/libutils/isoc/bget_malloc.c:847
    4d10:	f9400ba1 	ldr	x1, [x29,#16]
    4d14:	f9400fa0 	ldr	x0, [x29,#24]
    4d18:	97ffffed 	bl	4ccc <realloc_unlocked>
    4d1c:	f90013a0 	str	x0, [x29,#32]
/home/rex/devel/optee/optee_os/lib/libutils/isoc/bget_malloc.c:848
    4d20:	b9402fa0 	ldr	w0, [x29,#44]
    4d24:	97fff8d4 	bl	3074 <malloc_unlock>
/home/rex/devel/optee/optee_os/lib/libutils/isoc/bget_malloc.c:849
    4d28:	f94013a0 	ldr	x0, [x29,#32]
/home/rex/devel/optee/optee_os/lib/libutils/isoc/bget_malloc.c:850
    4d2c:	a8c37bfd 	ldp	x29, x30, [sp],#48
    4d30:	d65f03c0 	ret

0000000000004d34 <memalign>:
memalign():
/home/rex/devel/optee/optee_os/lib/libutils/isoc/bget_malloc.c:853
    4d34:	a9bd7bfd 	stp	x29, x30, [sp,#-48]!
    4d38:	910003fd 	mov	x29, sp
    4d3c:	f9000fa0 	str	x0, [x29,#24]
    4d40:	f9000ba1 	str	x1, [x29,#16]
/home/rex/devel/optee/optee_os/lib/libutils/isoc/bget_malloc.c:855
    4d44:	97fff8ca 	bl	306c <malloc_lock>
    4d48:	b9002fa0 	str	w0, [x29,#44]
/home/rex/devel/optee/optee_os/lib/libutils/isoc/bget_malloc.c:857
    4d4c:	f9400ba3 	ldr	x3, [x29,#16]
    4d50:	f9400fa2 	ldr	x2, [x29,#24]
    4d54:	d2800001 	mov	x1, #0x0                   	// #0
    4d58:	d2800000 	mov	x0, #0x0                   	// #0
    4d5c:	97ffff13 	bl	49a8 <raw_memalign>
    4d60:	f90013a0 	str	x0, [x29,#32]
/home/rex/devel/optee/optee_os/lib/libutils/isoc/bget_malloc.c:858
    4d64:	b9402fa0 	ldr	w0, [x29,#44]
    4d68:	97fff8c3 	bl	3074 <malloc_unlock>
/home/rex/devel/optee/optee_os/lib/libutils/isoc/bget_malloc.c:859
    4d6c:	f94013a0 	ldr	x0, [x29,#32]
/home/rex/devel/optee/optee_os/lib/libutils/isoc/bget_malloc.c:860
    4d70:	a8c37bfd 	ldp	x29, x30, [sp],#48
    4d74:	d65f03c0 	ret

0000000000004d78 <get_payload_start_size>:
get_payload_start_size():
/home/rex/devel/optee/optee_os/lib/libutils/isoc/bget_malloc.c:863
    4d78:	a9be7bfd 	stp	x29, x30, [sp,#-32]!
    4d7c:	910003fd 	mov	x29, sp
    4d80:	f9000fa0 	str	x0, [x29,#24]
    4d84:	f9000ba1 	str	x1, [x29,#16]
/home/rex/devel/optee/optee_os/lib/libutils/isoc/bget_malloc.c:864
    4d88:	f9400fa0 	ldr	x0, [x29,#24]
    4d8c:	97ffff87 	bl	4ba8 <bget_buf_size>
    4d90:	aa0003e1 	mov	x1, x0
    4d94:	f9400ba0 	ldr	x0, [x29,#16]
    4d98:	f9000001 	str	x1, [x0]
/home/rex/devel/optee/optee_os/lib/libutils/isoc/bget_malloc.c:865
    4d9c:	f9400fa0 	ldr	x0, [x29,#24]
/home/rex/devel/optee/optee_os/lib/libutils/isoc/bget_malloc.c:866
    4da0:	a8c27bfd 	ldp	x29, x30, [sp],#32
    4da4:	d65f03c0 	ret

0000000000004da8 <malloc_add_pool>:
malloc_add_pool():
/home/rex/devel/optee/optee_os/lib/libutils/isoc/bget_malloc.c:871
    4da8:	a9bb7bfd 	stp	x29, x30, [sp,#-80]!
    4dac:	910003fd 	mov	x29, sp
    4db0:	f9000fa0 	str	x0, [x29,#24]
    4db4:	f9000ba1 	str	x1, [x29,#16]
/home/rex/devel/optee/optee_os/lib/libutils/isoc/bget_malloc.c:875
    4db8:	f9400fa0 	ldr	x0, [x29,#24]
    4dbc:	f90027a0 	str	x0, [x29,#72]
/home/rex/devel/optee/optee_os/lib/libutils/isoc/bget_malloc.c:876
    4dc0:	f94027a1 	ldr	x1, [x29,#72]
    4dc4:	f9400ba0 	ldr	x0, [x29,#16]
    4dc8:	8b000020 	add	x0, x1, x0
    4dcc:	f90023a0 	str	x0, [x29,#64]
/home/rex/devel/optee/optee_os/lib/libutils/isoc/bget_malloc.c:877
    4dd0:	d2800600 	mov	x0, #0x30                  	// #48
    4dd4:	f9001fa0 	str	x0, [x29,#56]
/home/rex/devel/optee/optee_os/lib/libutils/isoc/bget_malloc.c:882
    4dd8:	f94027a0 	ldr	x0, [x29,#72]
    4ddc:	91003c00 	add	x0, x0, #0xf
    4de0:	927cec00 	and	x0, x0, #0xfffffffffffffff0
    4de4:	f90027a0 	str	x0, [x29,#72]
/home/rex/devel/optee/optee_os/lib/libutils/isoc/bget_malloc.c:883
    4de8:	f94023a0 	ldr	x0, [x29,#64]
    4dec:	927cec00 	and	x0, x0, #0xfffffffffffffff0
    4df0:	f90023a0 	str	x0, [x29,#64]
/home/rex/devel/optee/optee_os/lib/libutils/isoc/bget_malloc.c:884
    4df4:	f94027a1 	ldr	x1, [x29,#72]
    4df8:	f94023a0 	ldr	x0, [x29,#64]
    4dfc:	eb00003f 	cmp	x1, x0
    4e00:	54000163 	b.cc	4e2c <malloc_add_pool+0x84>
/home/rex/devel/optee/optee_os/lib/libutils/isoc/bget_malloc.c:884 (discriminator 1)
    4e04:	f0000040 	adrp	x0, f000 <__func__.4113+0x18>
    4e08:	91208002 	add	x2, x0, #0x820
    4e0c:	f0000040 	adrp	x0, f000 <__func__.4113+0x18>
    4e10:	91176001 	add	x1, x0, #0x5d8
    4e14:	f0000040 	adrp	x0, f000 <__func__.4113+0x18>
    4e18:	911da000 	add	x0, x0, #0x768
    4e1c:	aa0203e3 	mov	x3, x2
    4e20:	52806e82 	mov	w2, #0x374                 	// #884
    4e24:	97fff876 	bl	2ffc <_assert_log>
    4e28:	97fff88d 	bl	305c <_assert_break>
/home/rex/devel/optee/optee_os/lib/libutils/isoc/bget_malloc.c:886
    4e2c:	f94023a1 	ldr	x1, [x29,#64]
    4e30:	f94027a0 	ldr	x0, [x29,#72]
    4e34:	cb000021 	sub	x1, x1, x0
    4e38:	f9401fa0 	ldr	x0, [x29,#56]
    4e3c:	eb00003f 	cmp	x1, x0
    4e40:	54000ba3 	b.cc	4fb4 <malloc_add_pool+0x20c>
/home/rex/devel/optee/optee_os/lib/libutils/isoc/bget_malloc.c:891
    4e44:	97fff88a 	bl	306c <malloc_lock>
    4e48:	b90037a0 	str	w0, [x29,#52]
/home/rex/devel/optee/optee_os/lib/libutils/isoc/bget_malloc.c:892
    4e4c:	f94027a2 	ldr	x2, [x29,#72]
    4e50:	f94023a1 	ldr	x1, [x29,#64]
    4e54:	f94027a0 	ldr	x0, [x29,#72]
    4e58:	cb000020 	sub	x0, x1, x0
    4e5c:	aa0003e1 	mov	x1, x0
    4e60:	aa0203e0 	mov	x0, x2
    4e64:	97fff889 	bl	3088 <tag_asan_free>
/home/rex/devel/optee/optee_os/lib/libutils/isoc/bget_malloc.c:893
    4e68:	f94027a2 	ldr	x2, [x29,#72]
    4e6c:	f94023a1 	ldr	x1, [x29,#64]
    4e70:	f94027a0 	ldr	x0, [x29,#72]
    4e74:	cb000020 	sub	x0, x1, x0
    4e78:	aa0003e1 	mov	x1, x0
    4e7c:	aa0203e0 	mov	x0, x2
    4e80:	97fffb05 	bl	3a94 <bpool>
/home/rex/devel/optee/optee_os/lib/libutils/isoc/bget_malloc.c:894
    4e84:	d00000a0 	adrp	x0, 1a000 <mempool_u32+0xe80>
    4e88:	91340000 	add	x0, x0, #0xd00
    4e8c:	f9400000 	ldr	x0, [x0]
    4e90:	91000400 	add	x0, x0, #0x1
    4e94:	f90017a0 	str	x0, [x29,#40]
/home/rex/devel/optee/optee_os/lib/libutils/isoc/bget_malloc.c:895
    4e98:	d00000a0 	adrp	x0, 1a000 <mempool_u32+0xe80>
    4e9c:	9133e000 	add	x0, x0, #0xcf8
    4ea0:	f9400002 	ldr	x2, [x0]
    4ea4:	f94017a0 	ldr	x0, [x29,#40]
    4ea8:	d37cec00 	lsl	x0, x0, #4
    4eac:	aa0003e1 	mov	x1, x0
    4eb0:	aa0203e0 	mov	x0, x2
    4eb4:	97ffff86 	bl	4ccc <realloc_unlocked>
    4eb8:	f90013a0 	str	x0, [x29,#32]
/home/rex/devel/optee/optee_os/lib/libutils/isoc/bget_malloc.c:896
    4ebc:	f94013a0 	ldr	x0, [x29,#32]
    4ec0:	f100001f 	cmp	x0, #0x0
    4ec4:	54000161 	b.ne	4ef0 <malloc_add_pool+0x148>
/home/rex/devel/optee/optee_os/lib/libutils/isoc/bget_malloc.c:896 (discriminator 1)
    4ec8:	f0000040 	adrp	x0, f000 <__func__.4113+0x18>
    4ecc:	91208002 	add	x2, x0, #0x820
    4ed0:	f0000040 	adrp	x0, f000 <__func__.4113+0x18>
    4ed4:	91176001 	add	x1, x0, #0x5d8
    4ed8:	f0000040 	adrp	x0, f000 <__func__.4113+0x18>
    4edc:	911de000 	add	x0, x0, #0x778
    4ee0:	aa0203e3 	mov	x3, x2
    4ee4:	52807002 	mov	w2, #0x380                 	// #896
    4ee8:	97fff845 	bl	2ffc <_assert_log>
    4eec:	97fff85c 	bl	305c <_assert_break>
/home/rex/devel/optee/optee_os/lib/libutils/isoc/bget_malloc.c:897
    4ef0:	d00000a0 	adrp	x0, 1a000 <mempool_u32+0xe80>
    4ef4:	9133e000 	add	x0, x0, #0xcf8
    4ef8:	f94013a1 	ldr	x1, [x29,#32]
    4efc:	f9000001 	str	x1, [x0]
/home/rex/devel/optee/optee_os/lib/libutils/isoc/bget_malloc.c:898
    4f00:	d00000a0 	adrp	x0, 1a000 <mempool_u32+0xe80>
    4f04:	9133e000 	add	x0, x0, #0xcf8
    4f08:	f9400001 	ldr	x1, [x0]
    4f0c:	d00000a0 	adrp	x0, 1a000 <mempool_u32+0xe80>
    4f10:	91340000 	add	x0, x0, #0xd00
    4f14:	f9400000 	ldr	x0, [x0]
    4f18:	d37cec00 	lsl	x0, x0, #4
    4f1c:	8b000020 	add	x0, x1, x0
    4f20:	f94027a1 	ldr	x1, [x29,#72]
    4f24:	f9000001 	str	x1, [x0]
/home/rex/devel/optee/optee_os/lib/libutils/isoc/bget_malloc.c:899
    4f28:	d00000a0 	adrp	x0, 1a000 <mempool_u32+0xe80>
    4f2c:	9133e000 	add	x0, x0, #0xcf8
    4f30:	f9400001 	ldr	x1, [x0]
    4f34:	d00000a0 	adrp	x0, 1a000 <mempool_u32+0xe80>
    4f38:	91340000 	add	x0, x0, #0xd00
    4f3c:	f9400000 	ldr	x0, [x0]
    4f40:	d37cec00 	lsl	x0, x0, #4
    4f44:	8b000020 	add	x0, x1, x0
    4f48:	f94023a2 	ldr	x2, [x29,#64]
    4f4c:	f94027a1 	ldr	x1, [x29,#72]
    4f50:	cb010041 	sub	x1, x2, x1
    4f54:	f9000401 	str	x1, [x0,#8]
/home/rex/devel/optee/optee_os/lib/libutils/isoc/bget_malloc.c:901
    4f58:	d00000a0 	adrp	x0, 1a000 <mempool_u32+0xe80>
    4f5c:	91342000 	add	x0, x0, #0xd08
    4f60:	b9402800 	ldr	w0, [x0,#40]
    4f64:	d00000a1 	adrp	x1, 1a000 <mempool_u32+0xe80>
    4f68:	9133e021 	add	x1, x1, #0xcf8
    4f6c:	f9400022 	ldr	x2, [x1]
    4f70:	d00000a1 	adrp	x1, 1a000 <mempool_u32+0xe80>
    4f74:	91340021 	add	x1, x1, #0xd00
    4f78:	f9400021 	ldr	x1, [x1]
    4f7c:	d37cec21 	lsl	x1, x1, #4
    4f80:	8b010041 	add	x1, x2, x1
    4f84:	f9400421 	ldr	x1, [x1,#8]
    4f88:	0b010001 	add	w1, w0, w1
    4f8c:	d00000a0 	adrp	x0, 1a000 <mempool_u32+0xe80>
    4f90:	91342000 	add	x0, x0, #0xd08
    4f94:	b9002801 	str	w1, [x0,#40]
/home/rex/devel/optee/optee_os/lib/libutils/isoc/bget_malloc.c:903
    4f98:	d00000a0 	adrp	x0, 1a000 <mempool_u32+0xe80>
    4f9c:	91340000 	add	x0, x0, #0xd00
    4fa0:	f94017a1 	ldr	x1, [x29,#40]
    4fa4:	f9000001 	str	x1, [x0]
/home/rex/devel/optee/optee_os/lib/libutils/isoc/bget_malloc.c:904
    4fa8:	b94037a0 	ldr	w0, [x29,#52]
    4fac:	97fff832 	bl	3074 <malloc_unlock>
    4fb0:	14000002 	b	4fb8 <malloc_add_pool+0x210>
/home/rex/devel/optee/optee_os/lib/libutils/isoc/bget_malloc.c:888
    4fb4:	d503201f 	nop
/home/rex/devel/optee/optee_os/lib/libutils/isoc/bget_malloc.c:905
    4fb8:	a8c57bfd 	ldp	x29, x30, [sp],#80
    4fbc:	d65f03c0 	ret

0000000000004fc0 <malloc_buffer_is_within_alloced>:
malloc_buffer_is_within_alloced():
/home/rex/devel/optee/optee_os/lib/libutils/isoc/bget_malloc.c:908
    4fc0:	a9b97bfd 	stp	x29, x30, [sp,#-112]!
    4fc4:	910003fd 	mov	x29, sp
    4fc8:	f9000fa0 	str	x0, [x29,#24]
    4fcc:	f9000ba1 	str	x1, [x29,#16]
/home/rex/devel/optee/optee_os/lib/libutils/isoc/bget_malloc.c:911
    4fd0:	f9400fa0 	ldr	x0, [x29,#24]
    4fd4:	f90033a0 	str	x0, [x29,#96]
/home/rex/devel/optee/optee_os/lib/libutils/isoc/bget_malloc.c:912
    4fd8:	f94033a1 	ldr	x1, [x29,#96]
    4fdc:	f9400ba0 	ldr	x0, [x29,#16]
    4fe0:	8b000020 	add	x0, x1, x0
    4fe4:	f9002fa0 	str	x0, [x29,#88]
/home/rex/devel/optee/optee_os/lib/libutils/isoc/bget_malloc.c:913
    4fe8:	3901bfbf 	strb	wzr, [x29,#111]
/home/rex/devel/optee/optee_os/lib/libutils/isoc/bget_malloc.c:914
    4fec:	97fff820 	bl	306c <malloc_lock>
    4ff0:	b90057a0 	str	w0, [x29,#84]
/home/rex/devel/optee/optee_os/lib/libutils/isoc/bget_malloc.c:916
    4ff4:	97fffbb1 	bl	3eb8 <raw_malloc_validate_pools>
/home/rex/devel/optee/optee_os/lib/libutils/isoc/bget_malloc.c:919
    4ff8:	f94033a1 	ldr	x1, [x29,#96]
    4ffc:	f9402fa0 	ldr	x0, [x29,#88]
    5000:	eb00003f 	cmp	x1, x0
    5004:	540003c8 	b.hi	507c <malloc_buffer_is_within_alloced+0xbc>
/home/rex/devel/optee/optee_os/lib/libutils/isoc/bget_malloc.c:922
    5008:	9100c3a0 	add	x0, x29, #0x30
    500c:	97fffbad 	bl	3ec0 <bpool_foreach_iterator_init>
    5010:	14000014 	b	5060 <malloc_buffer_is_within_alloced+0xa0>
/home/rex/devel/optee/optee_os/lib/libutils/isoc/bget_malloc.c:927
    5014:	f94017a0 	ldr	x0, [x29,#40]
    5018:	910083a1 	add	x1, x29, #0x20
    501c:	97ffff57 	bl	4d78 <get_payload_start_size>
    5020:	f90027a0 	str	x0, [x29,#72]
/home/rex/devel/optee/optee_os/lib/libutils/isoc/bget_malloc.c:928
    5024:	f94013a0 	ldr	x0, [x29,#32]
    5028:	f94027a1 	ldr	x1, [x29,#72]
    502c:	8b000020 	add	x0, x1, x0
    5030:	f90023a0 	str	x0, [x29,#64]
/home/rex/devel/optee/optee_os/lib/libutils/isoc/bget_malloc.c:930
    5034:	f94033a1 	ldr	x1, [x29,#96]
    5038:	f94027a0 	ldr	x0, [x29,#72]
    503c:	eb00003f 	cmp	x1, x0
    5040:	54000103 	b.cc	5060 <malloc_buffer_is_within_alloced+0xa0>
/home/rex/devel/optee/optee_os/lib/libutils/isoc/bget_malloc.c:930 (discriminator 1)
    5044:	f9402fa1 	ldr	x1, [x29,#88]
    5048:	f94023a0 	ldr	x0, [x29,#64]
    504c:	eb00003f 	cmp	x1, x0
    5050:	54000088 	b.hi	5060 <malloc_buffer_is_within_alloced+0xa0>
/home/rex/devel/optee/optee_os/lib/libutils/isoc/bget_malloc.c:931
    5054:	52800020 	mov	w0, #0x1                   	// #1
    5058:	3901bfa0 	strb	w0, [x29,#111]
    505c:	14000009 	b	5080 <malloc_buffer_is_within_alloced+0xc0>
/home/rex/devel/optee/optee_os/lib/libutils/isoc/bget_malloc.c:922 (discriminator 1)
    5060:	9100a3a1 	add	x1, x29, #0x28
    5064:	9100c3a0 	add	x0, x29, #0x30
    5068:	97fffbf1 	bl	402c <bpool_foreach>
    506c:	12001c00 	and	w0, w0, #0xff
    5070:	7100001f 	cmp	w0, #0x0
    5074:	54fffd01 	b.ne	5014 <malloc_buffer_is_within_alloced+0x54>
    5078:	14000002 	b	5080 <malloc_buffer_is_within_alloced+0xc0>
/home/rex/devel/optee/optee_os/lib/libutils/isoc/bget_malloc.c:920
    507c:	d503201f 	nop
/home/rex/devel/optee/optee_os/lib/libutils/isoc/bget_malloc.c:937
    5080:	b94057a0 	ldr	w0, [x29,#84]
    5084:	97fff7fc 	bl	3074 <malloc_unlock>
/home/rex/devel/optee/optee_os/lib/libutils/isoc/bget_malloc.c:939
    5088:	3941bfa0 	ldrb	w0, [x29,#111]
/home/rex/devel/optee/optee_os/lib/libutils/isoc/bget_malloc.c:940
    508c:	a8c77bfd 	ldp	x29, x30, [sp],#112
    5090:	d65f03c0 	ret

0000000000005094 <malloc_buffer_overlaps_heap>:
malloc_buffer_overlaps_heap():
/home/rex/devel/optee/optee_os/lib/libutils/isoc/bget_malloc.c:943
    5094:	a9ba7bfd 	stp	x29, x30, [sp,#-96]!
    5098:	910003fd 	mov	x29, sp
    509c:	f9000fa0 	str	x0, [x29,#24]
    50a0:	f9000ba1 	str	x1, [x29,#16]
/home/rex/devel/optee/optee_os/lib/libutils/isoc/bget_malloc.c:944
    50a4:	f9400fa0 	ldr	x0, [x29,#24]
    50a8:	f90027a0 	str	x0, [x29,#72]
/home/rex/devel/optee/optee_os/lib/libutils/isoc/bget_malloc.c:945
    50ac:	f94027a1 	ldr	x1, [x29,#72]
    50b0:	f9400ba0 	ldr	x0, [x29,#16]
    50b4:	8b000020 	add	x0, x1, x0
    50b8:	f90023a0 	str	x0, [x29,#64]
/home/rex/devel/optee/optee_os/lib/libutils/isoc/bget_malloc.c:947
    50bc:	39015fbf 	strb	wzr, [x29,#87]
/home/rex/devel/optee/optee_os/lib/libutils/isoc/bget_malloc.c:948
    50c0:	97fff7eb 	bl	306c <malloc_lock>
    50c4:	b9003fa0 	str	w0, [x29,#60]
/home/rex/devel/optee/optee_os/lib/libutils/isoc/bget_malloc.c:950
    50c8:	97fffb7c 	bl	3eb8 <raw_malloc_validate_pools>
/home/rex/devel/optee/optee_os/lib/libutils/isoc/bget_malloc.c:952
    50cc:	f9002fbf 	str	xzr, [x29,#88]
    50d0:	1400002c 	b	5180 <malloc_buffer_overlaps_heap+0xec>
/home/rex/devel/optee/optee_os/lib/libutils/isoc/bget_malloc.c:953
    50d4:	b00000a0 	adrp	x0, 1a000 <mempool_u32+0xe80>
    50d8:	9133e000 	add	x0, x0, #0xcf8
    50dc:	f9400001 	ldr	x1, [x0]
    50e0:	f9402fa0 	ldr	x0, [x29,#88]
    50e4:	d37cec00 	lsl	x0, x0, #4
    50e8:	8b000020 	add	x0, x1, x0
    50ec:	f9400000 	ldr	x0, [x0]
    50f0:	f9001ba0 	str	x0, [x29,#48]
/home/rex/devel/optee/optee_os/lib/libutils/isoc/bget_malloc.c:954
    50f4:	b00000a0 	adrp	x0, 1a000 <mempool_u32+0xe80>
    50f8:	9133e000 	add	x0, x0, #0xcf8
    50fc:	f9400001 	ldr	x1, [x0]
    5100:	f9402fa0 	ldr	x0, [x29,#88]
    5104:	d37cec00 	lsl	x0, x0, #4
    5108:	8b000020 	add	x0, x1, x0
    510c:	f9400401 	ldr	x1, [x0,#8]
    5110:	f9401ba0 	ldr	x0, [x29,#48]
    5114:	8b000020 	add	x0, x1, x0
    5118:	f90017a0 	str	x0, [x29,#40]
/home/rex/devel/optee/optee_os/lib/libutils/isoc/bget_malloc.c:956
    511c:	f94027a1 	ldr	x1, [x29,#72]
    5120:	f94023a0 	ldr	x0, [x29,#64]
    5124:	eb00003f 	cmp	x1, x0
    5128:	540000a8 	b.hi	513c <malloc_buffer_overlaps_heap+0xa8>
/home/rex/devel/optee/optee_os/lib/libutils/isoc/bget_malloc.c:956 (discriminator 1)
    512c:	f9401ba1 	ldr	x1, [x29,#48]
    5130:	f94017a0 	ldr	x0, [x29,#40]
    5134:	eb00003f 	cmp	x1, x0
    5138:	54000089 	b.ls	5148 <malloc_buffer_overlaps_heap+0xb4>
/home/rex/devel/optee/optee_os/lib/libutils/isoc/bget_malloc.c:957
    513c:	52800020 	mov	w0, #0x1                   	// #1
    5140:	39015fa0 	strb	w0, [x29,#87]
/home/rex/devel/optee/optee_os/lib/libutils/isoc/bget_malloc.c:958
    5144:	14000015 	b	5198 <malloc_buffer_overlaps_heap+0x104>
/home/rex/devel/optee/optee_os/lib/libutils/isoc/bget_malloc.c:961
    5148:	f94023a1 	ldr	x1, [x29,#64]
    514c:	f9401ba0 	ldr	x0, [x29,#48]
    5150:	eb00003f 	cmp	x1, x0
    5154:	540000a8 	b.hi	5168 <malloc_buffer_overlaps_heap+0xd4>
/home/rex/devel/optee/optee_os/lib/libutils/isoc/bget_malloc.c:961 (discriminator 1)
    5158:	f94027a1 	ldr	x1, [x29,#72]
    515c:	f94017a0 	ldr	x0, [x29,#40]
    5160:	eb00003f 	cmp	x1, x0
    5164:	54000082 	b.cs	5174 <malloc_buffer_overlaps_heap+0xe0>
/home/rex/devel/optee/optee_os/lib/libutils/isoc/bget_malloc.c:962
    5168:	52800020 	mov	w0, #0x1                   	// #1
    516c:	39015fa0 	strb	w0, [x29,#87]
/home/rex/devel/optee/optee_os/lib/libutils/isoc/bget_malloc.c:963
    5170:	1400000a 	b	5198 <malloc_buffer_overlaps_heap+0x104>
/home/rex/devel/optee/optee_os/lib/libutils/isoc/bget_malloc.c:952 (discriminator 2)
    5174:	f9402fa0 	ldr	x0, [x29,#88]
    5178:	91000400 	add	x0, x0, #0x1
    517c:	f9002fa0 	str	x0, [x29,#88]
/home/rex/devel/optee/optee_os/lib/libutils/isoc/bget_malloc.c:952 (discriminator 1)
    5180:	b00000a0 	adrp	x0, 1a000 <mempool_u32+0xe80>
    5184:	91340000 	add	x0, x0, #0xd00
    5188:	f9400000 	ldr	x0, [x0]
    518c:	f9402fa1 	ldr	x1, [x29,#88]
    5190:	eb00003f 	cmp	x1, x0
    5194:	54fffa03 	b.cc	50d4 <malloc_buffer_overlaps_heap+0x40>
/home/rex/devel/optee/optee_os/lib/libutils/isoc/bget_malloc.c:968
    5198:	b9403fa0 	ldr	w0, [x29,#60]
    519c:	97fff7b6 	bl	3074 <malloc_unlock>
/home/rex/devel/optee/optee_os/lib/libutils/isoc/bget_malloc.c:969
    51a0:	39415fa0 	ldrb	w0, [x29,#87]
/home/rex/devel/optee/optee_os/lib/libutils/isoc/bget_malloc.c:970
    51a4:	a8c67bfd 	ldp	x29, x30, [sp],#96
    51a8:	d65f03c0 	ret

00000000000051ac <snprintf>:
snprintf():
/home/rex/devel/optee/optee_os/lib/libutils/isoc/snprintf.c:32
    51ac:	a9ad7bfd 	stp	x29, x30, [sp,#-304]!
    51b0:	910003fd 	mov	x29, sp
    51b4:	f90027a0 	str	x0, [x29,#72]
    51b8:	f90023a1 	str	x1, [x29,#64]
    51bc:	f9001fa2 	str	x2, [x29,#56]
    51c0:	f90087a3 	str	x3, [x29,#264]
    51c4:	f9008ba4 	str	x4, [x29,#272]
    51c8:	f9008fa5 	str	x5, [x29,#280]
    51cc:	f90093a6 	str	x6, [x29,#288]
    51d0:	f90097a7 	str	x7, [x29,#296]
    51d4:	3d8023a0 	str	q0, [x29,#128]
    51d8:	3d8027a1 	str	q1, [x29,#144]
    51dc:	3d802ba2 	str	q2, [x29,#160]
    51e0:	3d802fa3 	str	q3, [x29,#176]
    51e4:	3d8033a4 	str	q4, [x29,#192]
    51e8:	3d8037a5 	str	q5, [x29,#208]
    51ec:	3d803ba6 	str	q6, [x29,#224]
    51f0:	3d803fa7 	str	q7, [x29,#240]
/home/rex/devel/optee/optee_os/lib/libutils/isoc/snprintf.c:36
    51f4:	9104c3a0 	add	x0, x29, #0x130
    51f8:	f9002fa0 	str	x0, [x29,#88]
    51fc:	9104c3a0 	add	x0, x29, #0x130
    5200:	f90033a0 	str	x0, [x29,#96]
    5204:	910403a0 	add	x0, x29, #0x100
    5208:	f90037a0 	str	x0, [x29,#104]
    520c:	128004e0 	mov	w0, #0xffffffd8            	// #-40
    5210:	b90073a0 	str	w0, [x29,#112]
    5214:	12800fe0 	mov	w0, #0xffffff80            	// #-128
    5218:	b90077a0 	str	w0, [x29,#116]
/home/rex/devel/optee/optee_os/lib/libutils/isoc/snprintf.c:37
    521c:	f9402fa0 	ldr	x0, [x29,#88]
    5220:	f9000ba0 	str	x0, [x29,#16]
    5224:	f94033a0 	ldr	x0, [x29,#96]
    5228:	f9000fa0 	str	x0, [x29,#24]
    522c:	f94037a0 	ldr	x0, [x29,#104]
    5230:	f90013a0 	str	x0, [x29,#32]
    5234:	f9403ba0 	ldr	x0, [x29,#112]
    5238:	f90017a0 	str	x0, [x29,#40]
    523c:	910043a0 	add	x0, x29, #0x10
    5240:	52800004 	mov	w4, #0x0                   	// #0
    5244:	aa0003e3 	mov	x3, x0
    5248:	f9401fa2 	ldr	x2, [x29,#56]
    524c:	f94023a1 	ldr	x1, [x29,#64]
    5250:	f94027a0 	ldr	x0, [x29,#72]
    5254:	9400023a 	bl	5b3c <__vsnprintf>
    5258:	b9007fa0 	str	w0, [x29,#124]
/home/rex/devel/optee/optee_os/lib/libutils/isoc/snprintf.c:40
    525c:	b9407fa0 	ldr	w0, [x29,#124]
/home/rex/devel/optee/optee_os/lib/libutils/isoc/snprintf.c:41
    5260:	a8d37bfd 	ldp	x29, x30, [sp],#304
    5264:	d65f03c0 	ret

0000000000005268 <vsnprintf>:
vsnprintf():
/home/rex/devel/optee/optee_os/lib/libutils/isoc/snprintf.c:44
    5268:	a9ba7bfd 	stp	x29, x30, [sp,#-96]!
    526c:	910003fd 	mov	x29, sp
    5270:	f9000bf3 	str	x19, [sp,#16]
    5274:	f9002fa0 	str	x0, [x29,#88]
    5278:	f9002ba1 	str	x1, [x29,#80]
    527c:	f90027a2 	str	x2, [x29,#72]
    5280:	aa0303f3 	mov	x19, x3
/home/rex/devel/optee/optee_os/lib/libutils/isoc/snprintf.c:45
    5284:	f9400260 	ldr	x0, [x19]
    5288:	f90013a0 	str	x0, [x29,#32]
    528c:	f9400660 	ldr	x0, [x19,#8]
    5290:	f90017a0 	str	x0, [x29,#40]
    5294:	f9400a60 	ldr	x0, [x19,#16]
    5298:	f9001ba0 	str	x0, [x29,#48]
    529c:	f9400e60 	ldr	x0, [x19,#24]
    52a0:	f9001fa0 	str	x0, [x29,#56]
    52a4:	910083a0 	add	x0, x29, #0x20
    52a8:	52800004 	mov	w4, #0x0                   	// #0
    52ac:	aa0003e3 	mov	x3, x0
    52b0:	f94027a2 	ldr	x2, [x29,#72]
    52b4:	f9402ba1 	ldr	x1, [x29,#80]
    52b8:	f9402fa0 	ldr	x0, [x29,#88]
    52bc:	94000220 	bl	5b3c <__vsnprintf>
/home/rex/devel/optee/optee_os/lib/libutils/isoc/snprintf.c:46
    52c0:	f9400bf3 	ldr	x19, [sp,#16]
    52c4:	a8c67bfd 	ldp	x29, x30, [sp],#96
    52c8:	d65f03c0 	ret

00000000000052cc <memcmp>:
memcmp():
/home/rex/devel/optee/optee_os/lib/libutils/isoc/newlib/memcmp.c:84
    52cc:	d10103ff 	sub	sp, sp, #0x40
    52d0:	f9000fe0 	str	x0, [sp,#24]
    52d4:	f9000be1 	str	x1, [sp,#16]
    52d8:	f90007e2 	str	x2, [sp,#8]
/home/rex/devel/optee/optee_os/lib/libutils/isoc/newlib/memcmp.c:97
    52dc:	f9400fe0 	ldr	x0, [sp,#24]
    52e0:	f9001fe0 	str	x0, [sp,#56]
/home/rex/devel/optee/optee_os/lib/libutils/isoc/newlib/memcmp.c:98
    52e4:	f9400be0 	ldr	x0, [sp,#16]
    52e8:	f9001be0 	str	x0, [sp,#48]
/home/rex/devel/optee/optee_os/lib/libutils/isoc/newlib/memcmp.c:105
    52ec:	f94007e0 	ldr	x0, [sp,#8]
    52f0:	f1001c1f 	cmp	x0, #0x7
    52f4:	54000709 	b.ls	53d4 <memcmp+0x108>
/home/rex/devel/optee/optee_os/lib/libutils/isoc/newlib/memcmp.c:105 (discriminator 1)
    52f8:	f9401fe1 	ldr	x1, [sp,#56]
    52fc:	f9401be0 	ldr	x0, [sp,#48]
    5300:	aa000020 	orr	x0, x1, x0
    5304:	92400800 	and	x0, x0, #0x7
    5308:	f100001f 	cmp	x0, #0x0
    530c:	54000641 	b.ne	53d4 <memcmp+0x108>
/home/rex/devel/optee/optee_os/lib/libutils/isoc/newlib/memcmp.c:110
    5310:	f9401fe0 	ldr	x0, [sp,#56]
    5314:	f90017e0 	str	x0, [sp,#40]
/home/rex/devel/optee/optee_os/lib/libutils/isoc/newlib/memcmp.c:111
    5318:	f9401be0 	ldr	x0, [sp,#48]
    531c:	f90013e0 	str	x0, [sp,#32]
/home/rex/devel/optee/optee_os/lib/libutils/isoc/newlib/memcmp.c:112
    5320:	14000010 	b	5360 <memcmp+0x94>
/home/rex/devel/optee/optee_os/lib/libutils/isoc/newlib/memcmp.c:113
    5324:	f94017e0 	ldr	x0, [sp,#40]
    5328:	f9400001 	ldr	x1, [x0]
    532c:	f94013e0 	ldr	x0, [sp,#32]
    5330:	f9400000 	ldr	x0, [x0]
    5334:	eb00003f 	cmp	x1, x0
    5338:	540001c1 	b.ne	5370 <memcmp+0xa4>
/home/rex/devel/optee/optee_os/lib/libutils/isoc/newlib/memcmp.c:115
    533c:	f94017e0 	ldr	x0, [sp,#40]
    5340:	91002000 	add	x0, x0, #0x8
    5344:	f90017e0 	str	x0, [sp,#40]
/home/rex/devel/optee/optee_os/lib/libutils/isoc/newlib/memcmp.c:116
    5348:	f94013e0 	ldr	x0, [sp,#32]
    534c:	91002000 	add	x0, x0, #0x8
    5350:	f90013e0 	str	x0, [sp,#32]
/home/rex/devel/optee/optee_os/lib/libutils/isoc/newlib/memcmp.c:117
    5354:	f94007e0 	ldr	x0, [sp,#8]
    5358:	d1002000 	sub	x0, x0, #0x8
    535c:	f90007e0 	str	x0, [sp,#8]
/home/rex/devel/optee/optee_os/lib/libutils/isoc/newlib/memcmp.c:112
    5360:	f94007e0 	ldr	x0, [sp,#8]
    5364:	f1001c1f 	cmp	x0, #0x7
    5368:	54fffde8 	b.hi	5324 <memcmp+0x58>
    536c:	14000002 	b	5374 <memcmp+0xa8>
/home/rex/devel/optee/optee_os/lib/libutils/isoc/newlib/memcmp.c:114
    5370:	d503201f 	nop
/home/rex/devel/optee/optee_os/lib/libutils/isoc/newlib/memcmp.c:122
    5374:	f94017e0 	ldr	x0, [sp,#40]
    5378:	f9001fe0 	str	x0, [sp,#56]
/home/rex/devel/optee/optee_os/lib/libutils/isoc/newlib/memcmp.c:123
    537c:	f94013e0 	ldr	x0, [sp,#32]
    5380:	f9001be0 	str	x0, [sp,#48]
/home/rex/devel/optee/optee_os/lib/libutils/isoc/newlib/memcmp.c:126
    5384:	14000014 	b	53d4 <memcmp+0x108>
/home/rex/devel/optee/optee_os/lib/libutils/isoc/newlib/memcmp.c:127
    5388:	f9401fe0 	ldr	x0, [sp,#56]
    538c:	39400001 	ldrb	w1, [x0]
    5390:	f9401be0 	ldr	x0, [sp,#48]
    5394:	39400000 	ldrb	w0, [x0]
    5398:	6b00003f 	cmp	w1, w0
    539c:	54000100 	b.eq	53bc <memcmp+0xf0>
/home/rex/devel/optee/optee_os/lib/libutils/isoc/newlib/memcmp.c:128
    53a0:	f9401fe0 	ldr	x0, [sp,#56]
    53a4:	39400000 	ldrb	w0, [x0]
    53a8:	2a0003e1 	mov	w1, w0
    53ac:	f9401be0 	ldr	x0, [sp,#48]
    53b0:	39400000 	ldrb	w0, [x0]
    53b4:	4b000020 	sub	w0, w1, w0
    53b8:	1400000d 	b	53ec <memcmp+0x120>
/home/rex/devel/optee/optee_os/lib/libutils/isoc/newlib/memcmp.c:129
    53bc:	f9401fe0 	ldr	x0, [sp,#56]
    53c0:	91000400 	add	x0, x0, #0x1
    53c4:	f9001fe0 	str	x0, [sp,#56]
/home/rex/devel/optee/optee_os/lib/libutils/isoc/newlib/memcmp.c:130
    53c8:	f9401be0 	ldr	x0, [sp,#48]
    53cc:	91000400 	add	x0, x0, #0x1
    53d0:	f9001be0 	str	x0, [sp,#48]
/home/rex/devel/optee/optee_os/lib/libutils/isoc/newlib/memcmp.c:126
    53d4:	f94007e0 	ldr	x0, [sp,#8]
    53d8:	d1000401 	sub	x1, x0, #0x1
    53dc:	f90007e1 	str	x1, [sp,#8]
    53e0:	f100001f 	cmp	x0, #0x0
    53e4:	54fffd21 	b.ne	5388 <memcmp+0xbc>
/home/rex/devel/optee/optee_os/lib/libutils/isoc/newlib/memcmp.c:133
    53e8:	52800000 	mov	w0, #0x0                   	// #0
/home/rex/devel/optee/optee_os/lib/libutils/isoc/newlib/memcmp.c:135
    53ec:	910103ff 	add	sp, sp, #0x40
    53f0:	d65f03c0 	ret

00000000000053f4 <memcpy>:
memcpy():
/home/rex/devel/optee/optee_os/lib/libutils/isoc/newlib/memcpy.c:86
    53f4:	d10103ff 	sub	sp, sp, #0x40
    53f8:	f9000fe0 	str	x0, [sp,#24]
    53fc:	f9000be1 	str	x1, [sp,#16]
    5400:	f90007e2 	str	x2, [sp,#8]
/home/rex/devel/optee/optee_os/lib/libutils/isoc/newlib/memcpy.c:98
    5404:	f9400fe0 	ldr	x0, [sp,#24]
    5408:	f9001fe0 	str	x0, [sp,#56]
/home/rex/devel/optee/optee_os/lib/libutils/isoc/newlib/memcpy.c:99
    540c:	f9400be0 	ldr	x0, [sp,#16]
    5410:	f9001be0 	str	x0, [sp,#48]
/home/rex/devel/optee/optee_os/lib/libutils/isoc/newlib/memcpy.c:105
    5414:	f94007e0 	ldr	x0, [sp,#8]
    5418:	f1007c1f 	cmp	x0, #0x1f
    541c:	540009c9 	b.ls	5554 <memcpy+0x160>
/home/rex/devel/optee/optee_os/lib/libutils/isoc/newlib/memcpy.c:105 (discriminator 1)
    5420:	f9401be1 	ldr	x1, [sp,#48]
    5424:	f9401fe0 	ldr	x0, [sp,#56]
    5428:	aa000020 	orr	x0, x1, x0
    542c:	92400800 	and	x0, x0, #0x7
    5430:	f100001f 	cmp	x0, #0x0
    5434:	54000901 	b.ne	5554 <memcpy+0x160>
/home/rex/devel/optee/optee_os/lib/libutils/isoc/newlib/memcpy.c:106
    5438:	f9401fe0 	ldr	x0, [sp,#56]
    543c:	f90017e0 	str	x0, [sp,#40]
/home/rex/devel/optee/optee_os/lib/libutils/isoc/newlib/memcpy.c:107
    5440:	f9401be0 	ldr	x0, [sp,#48]
    5444:	f90013e0 	str	x0, [sp,#32]
/home/rex/devel/optee/optee_os/lib/libutils/isoc/newlib/memcpy.c:110
    5448:	14000024 	b	54d8 <memcpy+0xe4>
/home/rex/devel/optee/optee_os/lib/libutils/isoc/newlib/memcpy.c:111
    544c:	f94017e0 	ldr	x0, [sp,#40]
    5450:	91002001 	add	x1, x0, #0x8
    5454:	f90017e1 	str	x1, [sp,#40]
    5458:	f94013e1 	ldr	x1, [sp,#32]
    545c:	91002022 	add	x2, x1, #0x8
    5460:	f90013e2 	str	x2, [sp,#32]
    5464:	f9400021 	ldr	x1, [x1]
    5468:	f9000001 	str	x1, [x0]
/home/rex/devel/optee/optee_os/lib/libutils/isoc/newlib/memcpy.c:112
    546c:	f94017e0 	ldr	x0, [sp,#40]
    5470:	91002001 	add	x1, x0, #0x8
    5474:	f90017e1 	str	x1, [sp,#40]
    5478:	f94013e1 	ldr	x1, [sp,#32]
    547c:	91002022 	add	x2, x1, #0x8
    5480:	f90013e2 	str	x2, [sp,#32]
    5484:	f9400021 	ldr	x1, [x1]
    5488:	f9000001 	str	x1, [x0]
/home/rex/devel/optee/optee_os/lib/libutils/isoc/newlib/memcpy.c:113
    548c:	f94017e0 	ldr	x0, [sp,#40]
    5490:	91002001 	add	x1, x0, #0x8
    5494:	f90017e1 	str	x1, [sp,#40]
    5498:	f94013e1 	ldr	x1, [sp,#32]
    549c:	91002022 	add	x2, x1, #0x8
    54a0:	f90013e2 	str	x2, [sp,#32]
    54a4:	f9400021 	ldr	x1, [x1]
    54a8:	f9000001 	str	x1, [x0]
/home/rex/devel/optee/optee_os/lib/libutils/isoc/newlib/memcpy.c:114
    54ac:	f94017e0 	ldr	x0, [sp,#40]
    54b0:	91002001 	add	x1, x0, #0x8
    54b4:	f90017e1 	str	x1, [sp,#40]
    54b8:	f94013e1 	ldr	x1, [sp,#32]
    54bc:	91002022 	add	x2, x1, #0x8
    54c0:	f90013e2 	str	x2, [sp,#32]
    54c4:	f9400021 	ldr	x1, [x1]
    54c8:	f9000001 	str	x1, [x0]
/home/rex/devel/optee/optee_os/lib/libutils/isoc/newlib/memcpy.c:115
    54cc:	f94007e0 	ldr	x0, [sp,#8]
    54d0:	d1008000 	sub	x0, x0, #0x20
    54d4:	f90007e0 	str	x0, [sp,#8]
/home/rex/devel/optee/optee_os/lib/libutils/isoc/newlib/memcpy.c:110
    54d8:	f94007e0 	ldr	x0, [sp,#8]
    54dc:	f1007c1f 	cmp	x0, #0x1f
    54e0:	54fffb68 	b.hi	544c <memcpy+0x58>
/home/rex/devel/optee/optee_os/lib/libutils/isoc/newlib/memcpy.c:119
    54e4:	1400000c 	b	5514 <memcpy+0x120>
/home/rex/devel/optee/optee_os/lib/libutils/isoc/newlib/memcpy.c:120
    54e8:	f94017e0 	ldr	x0, [sp,#40]
    54ec:	91002001 	add	x1, x0, #0x8
    54f0:	f90017e1 	str	x1, [sp,#40]
    54f4:	f94013e1 	ldr	x1, [sp,#32]
    54f8:	91002022 	add	x2, x1, #0x8
    54fc:	f90013e2 	str	x2, [sp,#32]
    5500:	f9400021 	ldr	x1, [x1]
    5504:	f9000001 	str	x1, [x0]
/home/rex/devel/optee/optee_os/lib/libutils/isoc/newlib/memcpy.c:121
    5508:	f94007e0 	ldr	x0, [sp,#8]
    550c:	d1002000 	sub	x0, x0, #0x8
    5510:	f90007e0 	str	x0, [sp,#8]
/home/rex/devel/optee/optee_os/lib/libutils/isoc/newlib/memcpy.c:119
    5514:	f94007e0 	ldr	x0, [sp,#8]
    5518:	f1001c1f 	cmp	x0, #0x7
    551c:	54fffe68 	b.hi	54e8 <memcpy+0xf4>
/home/rex/devel/optee/optee_os/lib/libutils/isoc/newlib/memcpy.c:125
    5520:	f94017e0 	ldr	x0, [sp,#40]
    5524:	f9001fe0 	str	x0, [sp,#56]
/home/rex/devel/optee/optee_os/lib/libutils/isoc/newlib/memcpy.c:126
    5528:	f94013e0 	ldr	x0, [sp,#32]
    552c:	f9001be0 	str	x0, [sp,#48]
/home/rex/devel/optee/optee_os/lib/libutils/isoc/newlib/memcpy.c:129
    5530:	14000009 	b	5554 <memcpy+0x160>
/home/rex/devel/optee/optee_os/lib/libutils/isoc/newlib/memcpy.c:130
    5534:	f9401fe0 	ldr	x0, [sp,#56]
    5538:	91000401 	add	x1, x0, #0x1
    553c:	f9001fe1 	str	x1, [sp,#56]
    5540:	f9401be1 	ldr	x1, [sp,#48]
    5544:	91000422 	add	x2, x1, #0x1
    5548:	f9001be2 	str	x2, [sp,#48]
    554c:	39400021 	ldrb	w1, [x1]
    5550:	39000001 	strb	w1, [x0]
/home/rex/devel/optee/optee_os/lib/libutils/isoc/newlib/memcpy.c:129
    5554:	f94007e0 	ldr	x0, [sp,#8]
    5558:	d1000401 	sub	x1, x0, #0x1
    555c:	f90007e1 	str	x1, [sp,#8]
    5560:	f100001f 	cmp	x0, #0x0
    5564:	54fffe81 	b.ne	5534 <memcpy+0x140>
/home/rex/devel/optee/optee_os/lib/libutils/isoc/newlib/memcpy.c:132
    5568:	f9400fe0 	ldr	x0, [sp,#24]
/home/rex/devel/optee/optee_os/lib/libutils/isoc/newlib/memcpy.c:134
    556c:	910103ff 	add	sp, sp, #0x40
    5570:	d65f03c0 	ret

0000000000005574 <memmove>:
memmove():
/home/rex/devel/optee/optee_os/lib/libutils/isoc/newlib/memmove.c:90
    5574:	d10103ff 	sub	sp, sp, #0x40
    5578:	f9000fe0 	str	x0, [sp,#24]
    557c:	f9000be1 	str	x1, [sp,#16]
    5580:	f90007e2 	str	x2, [sp,#8]
/home/rex/devel/optee/optee_os/lib/libutils/isoc/newlib/memmove.c:108
    5584:	f9400fe0 	ldr	x0, [sp,#24]
    5588:	f9001fe0 	str	x0, [sp,#56]
/home/rex/devel/optee/optee_os/lib/libutils/isoc/newlib/memmove.c:109
    558c:	f9400be0 	ldr	x0, [sp,#16]
    5590:	f9001be0 	str	x0, [sp,#48]
/home/rex/devel/optee/optee_os/lib/libutils/isoc/newlib/memmove.c:113
    5594:	f9401be1 	ldr	x1, [sp,#48]
    5598:	f9401fe0 	ldr	x0, [sp,#56]
    559c:	eb00003f 	cmp	x1, x0
    55a0:	54000402 	b.cs	5620 <memmove+0xac>
/home/rex/devel/optee/optee_os/lib/libutils/isoc/newlib/memmove.c:113 (discriminator 1)
    55a4:	f9401be1 	ldr	x1, [sp,#48]
    55a8:	f94007e0 	ldr	x0, [sp,#8]
    55ac:	8b000021 	add	x1, x1, x0
    55b0:	f9401fe0 	ldr	x0, [sp,#56]
    55b4:	eb00003f 	cmp	x1, x0
    55b8:	54000349 	b.ls	5620 <memmove+0xac>
/home/rex/devel/optee/optee_os/lib/libutils/isoc/newlib/memmove.c:115
    55bc:	f9401be1 	ldr	x1, [sp,#48]
    55c0:	f94007e0 	ldr	x0, [sp,#8]
    55c4:	8b000020 	add	x0, x1, x0
    55c8:	f9001be0 	str	x0, [sp,#48]
/home/rex/devel/optee/optee_os/lib/libutils/isoc/newlib/memmove.c:116
    55cc:	f9401fe1 	ldr	x1, [sp,#56]
    55d0:	f94007e0 	ldr	x0, [sp,#8]
    55d4:	8b000020 	add	x0, x1, x0
    55d8:	f9001fe0 	str	x0, [sp,#56]
/home/rex/devel/optee/optee_os/lib/libutils/isoc/newlib/memmove.c:117
    55dc:	1400000b 	b	5608 <memmove+0x94>
/home/rex/devel/optee/optee_os/lib/libutils/isoc/newlib/memmove.c:118
    55e0:	f9401fe0 	ldr	x0, [sp,#56]
    55e4:	d1000400 	sub	x0, x0, #0x1
    55e8:	f9001fe0 	str	x0, [sp,#56]
    55ec:	f9401be0 	ldr	x0, [sp,#48]
    55f0:	d1000400 	sub	x0, x0, #0x1
    55f4:	f9001be0 	str	x0, [sp,#48]
    55f8:	f9401be0 	ldr	x0, [sp,#48]
    55fc:	39400001 	ldrb	w1, [x0]
    5600:	f9401fe0 	ldr	x0, [sp,#56]
    5604:	39000001 	strb	w1, [x0]
/home/rex/devel/optee/optee_os/lib/libutils/isoc/newlib/memmove.c:117
    5608:	f94007e0 	ldr	x0, [sp,#8]
    560c:	d1000401 	sub	x1, x0, #0x1
    5610:	f90007e1 	str	x1, [sp,#8]
    5614:	f100001f 	cmp	x0, #0x0
    5618:	54fffe41 	b.ne	55e0 <memmove+0x6c>
/home/rex/devel/optee/optee_os/lib/libutils/isoc/newlib/memmove.c:113
    561c:	14000056 	b	5774 <memmove+0x200>
/home/rex/devel/optee/optee_os/lib/libutils/isoc/newlib/memmove.c:126
    5620:	f94007e0 	ldr	x0, [sp,#8]
    5624:	f1007c1f 	cmp	x0, #0x1f
    5628:	540009c9 	b.ls	5760 <memmove+0x1ec>
/home/rex/devel/optee/optee_os/lib/libutils/isoc/newlib/memmove.c:126 (discriminator 1)
    562c:	f9401be1 	ldr	x1, [sp,#48]
    5630:	f9401fe0 	ldr	x0, [sp,#56]
    5634:	aa000020 	orr	x0, x1, x0
    5638:	92400800 	and	x0, x0, #0x7
    563c:	f100001f 	cmp	x0, #0x0
    5640:	54000901 	b.ne	5760 <memmove+0x1ec>
/home/rex/devel/optee/optee_os/lib/libutils/isoc/newlib/memmove.c:127
    5644:	f9401fe0 	ldr	x0, [sp,#56]
    5648:	f90017e0 	str	x0, [sp,#40]
/home/rex/devel/optee/optee_os/lib/libutils/isoc/newlib/memmove.c:128
    564c:	f9401be0 	ldr	x0, [sp,#48]
    5650:	f90013e0 	str	x0, [sp,#32]
/home/rex/devel/optee/optee_os/lib/libutils/isoc/newlib/memmove.c:131
    5654:	14000024 	b	56e4 <memmove+0x170>
/home/rex/devel/optee/optee_os/lib/libutils/isoc/newlib/memmove.c:132
    5658:	f94017e0 	ldr	x0, [sp,#40]
    565c:	91002001 	add	x1, x0, #0x8
    5660:	f90017e1 	str	x1, [sp,#40]
    5664:	f94013e1 	ldr	x1, [sp,#32]
    5668:	91002022 	add	x2, x1, #0x8
    566c:	f90013e2 	str	x2, [sp,#32]
    5670:	f9400021 	ldr	x1, [x1]
    5674:	f9000001 	str	x1, [x0]
/home/rex/devel/optee/optee_os/lib/libutils/isoc/newlib/memmove.c:133
    5678:	f94017e0 	ldr	x0, [sp,#40]
    567c:	91002001 	add	x1, x0, #0x8
    5680:	f90017e1 	str	x1, [sp,#40]
    5684:	f94013e1 	ldr	x1, [sp,#32]
    5688:	91002022 	add	x2, x1, #0x8
    568c:	f90013e2 	str	x2, [sp,#32]
    5690:	f9400021 	ldr	x1, [x1]
    5694:	f9000001 	str	x1, [x0]
/home/rex/devel/optee/optee_os/lib/libutils/isoc/newlib/memmove.c:134
    5698:	f94017e0 	ldr	x0, [sp,#40]
    569c:	91002001 	add	x1, x0, #0x8
    56a0:	f90017e1 	str	x1, [sp,#40]
    56a4:	f94013e1 	ldr	x1, [sp,#32]
    56a8:	91002022 	add	x2, x1, #0x8
    56ac:	f90013e2 	str	x2, [sp,#32]
    56b0:	f9400021 	ldr	x1, [x1]
    56b4:	f9000001 	str	x1, [x0]
/home/rex/devel/optee/optee_os/lib/libutils/isoc/newlib/memmove.c:135
    56b8:	f94017e0 	ldr	x0, [sp,#40]
    56bc:	91002001 	add	x1, x0, #0x8
    56c0:	f90017e1 	str	x1, [sp,#40]
    56c4:	f94013e1 	ldr	x1, [sp,#32]
    56c8:	91002022 	add	x2, x1, #0x8
    56cc:	f90013e2 	str	x2, [sp,#32]
    56d0:	f9400021 	ldr	x1, [x1]
    56d4:	f9000001 	str	x1, [x0]
/home/rex/devel/optee/optee_os/lib/libutils/isoc/newlib/memmove.c:136
    56d8:	f94007e0 	ldr	x0, [sp,#8]
    56dc:	d1008000 	sub	x0, x0, #0x20
    56e0:	f90007e0 	str	x0, [sp,#8]
/home/rex/devel/optee/optee_os/lib/libutils/isoc/newlib/memmove.c:131
    56e4:	f94007e0 	ldr	x0, [sp,#8]
    56e8:	f1007c1f 	cmp	x0, #0x1f
    56ec:	54fffb68 	b.hi	5658 <memmove+0xe4>
/home/rex/devel/optee/optee_os/lib/libutils/isoc/newlib/memmove.c:140
    56f0:	1400000c 	b	5720 <memmove+0x1ac>
/home/rex/devel/optee/optee_os/lib/libutils/isoc/newlib/memmove.c:141
    56f4:	f94017e0 	ldr	x0, [sp,#40]
    56f8:	91002001 	add	x1, x0, #0x8
    56fc:	f90017e1 	str	x1, [sp,#40]
    5700:	f94013e1 	ldr	x1, [sp,#32]
    5704:	91002022 	add	x2, x1, #0x8
    5708:	f90013e2 	str	x2, [sp,#32]
    570c:	f9400021 	ldr	x1, [x1]
    5710:	f9000001 	str	x1, [x0]
/home/rex/devel/optee/optee_os/lib/libutils/isoc/newlib/memmove.c:142
    5714:	f94007e0 	ldr	x0, [sp,#8]
    5718:	d1002000 	sub	x0, x0, #0x8
    571c:	f90007e0 	str	x0, [sp,#8]
/home/rex/devel/optee/optee_os/lib/libutils/isoc/newlib/memmove.c:140
    5720:	f94007e0 	ldr	x0, [sp,#8]
    5724:	f1001c1f 	cmp	x0, #0x7
    5728:	54fffe68 	b.hi	56f4 <memmove+0x180>
/home/rex/devel/optee/optee_os/lib/libutils/isoc/newlib/memmove.c:146
    572c:	f94017e0 	ldr	x0, [sp,#40]
    5730:	f9001fe0 	str	x0, [sp,#56]
/home/rex/devel/optee/optee_os/lib/libutils/isoc/newlib/memmove.c:147
    5734:	f94013e0 	ldr	x0, [sp,#32]
    5738:	f9001be0 	str	x0, [sp,#48]
/home/rex/devel/optee/optee_os/lib/libutils/isoc/newlib/memmove.c:150
    573c:	14000009 	b	5760 <memmove+0x1ec>
/home/rex/devel/optee/optee_os/lib/libutils/isoc/newlib/memmove.c:151
    5740:	f9401fe0 	ldr	x0, [sp,#56]
    5744:	91000401 	add	x1, x0, #0x1
    5748:	f9001fe1 	str	x1, [sp,#56]
    574c:	f9401be1 	ldr	x1, [sp,#48]
    5750:	91000422 	add	x2, x1, #0x1
    5754:	f9001be2 	str	x2, [sp,#48]
    5758:	39400021 	ldrb	w1, [x1]
    575c:	39000001 	strb	w1, [x0]
/home/rex/devel/optee/optee_os/lib/libutils/isoc/newlib/memmove.c:150
    5760:	f94007e0 	ldr	x0, [sp,#8]
    5764:	d1000401 	sub	x1, x0, #0x1
    5768:	f90007e1 	str	x1, [sp,#8]
    576c:	f100001f 	cmp	x0, #0x0
    5770:	54fffe81 	b.ne	5740 <memmove+0x1cc>
/home/rex/devel/optee/optee_os/lib/libutils/isoc/newlib/memmove.c:154
    5774:	f9400fe0 	ldr	x0, [sp,#24]
/home/rex/devel/optee/optee_os/lib/libutils/isoc/newlib/memmove.c:156
    5778:	910103ff 	add	sp, sp, #0x40
    577c:	d65f03c0 	ret

0000000000005780 <memset>:
memset():
/home/rex/devel/optee/optee_os/lib/libutils/isoc/newlib/memset.c:75
    5780:	d10143ff 	sub	sp, sp, #0x50
    5784:	f9000fe0 	str	x0, [sp,#24]
    5788:	b90017e1 	str	w1, [sp,#20]
    578c:	f90007e2 	str	x2, [sp,#8]
/home/rex/devel/optee/optee_os/lib/libutils/isoc/newlib/memset.c:76
    5790:	f9400fe0 	ldr	x0, [sp,#24]
    5794:	f90027e0 	str	x0, [sp,#72]
/home/rex/devel/optee/optee_os/lib/libutils/isoc/newlib/memset.c:82
    5798:	b94017e0 	ldr	w0, [sp,#20]
    579c:	12001c00 	and	w0, w0, #0xff
    57a0:	b9002fe0 	str	w0, [sp,#44]
/home/rex/devel/optee/optee_os/lib/libutils/isoc/newlib/memset.c:85
    57a4:	1400000f 	b	57e0 <memset+0x60>
/home/rex/devel/optee/optee_os/lib/libutils/isoc/newlib/memset.c:86
    57a8:	f94007e0 	ldr	x0, [sp,#8]
    57ac:	d1000401 	sub	x1, x0, #0x1
    57b0:	f90007e1 	str	x1, [sp,#8]
    57b4:	f100001f 	cmp	x0, #0x0
    57b8:	54000100 	b.eq	57d8 <memset+0x58>
/home/rex/devel/optee/optee_os/lib/libutils/isoc/newlib/memset.c:87
    57bc:	f94027e0 	ldr	x0, [sp,#72]
    57c0:	91000401 	add	x1, x0, #0x1
    57c4:	f90027e1 	str	x1, [sp,#72]
    57c8:	b94017e1 	ldr	w1, [sp,#20]
    57cc:	12001c21 	and	w1, w1, #0xff
    57d0:	39000001 	strb	w1, [x0]
    57d4:	14000003 	b	57e0 <memset+0x60>
/home/rex/devel/optee/optee_os/lib/libutils/isoc/newlib/memset.c:89
    57d8:	f9400fe0 	ldr	x0, [sp,#24]
    57dc:	1400005a 	b	5944 <memset+0x1c4>
/home/rex/devel/optee/optee_os/lib/libutils/isoc/newlib/memset.c:85
    57e0:	f94027e0 	ldr	x0, [sp,#72]
    57e4:	92400800 	and	x0, x0, #0x7
    57e8:	f100001f 	cmp	x0, #0x0
    57ec:	54fffde1 	b.ne	57a8 <memset+0x28>
/home/rex/devel/optee/optee_os/lib/libutils/isoc/newlib/memset.c:92
    57f0:	f94007e0 	ldr	x0, [sp,#8]
    57f4:	f1001c1f 	cmp	x0, #0x7
    57f8:	540009a9 	b.ls	592c <memset+0x1ac>
/home/rex/devel/optee/optee_os/lib/libutils/isoc/newlib/memset.c:97
    57fc:	f94027e0 	ldr	x0, [sp,#72]
    5800:	f9001be0 	str	x0, [sp,#48]
/home/rex/devel/optee/optee_os/lib/libutils/isoc/newlib/memset.c:101
    5804:	b9402fe0 	ldr	w0, [sp,#44]
    5808:	53185c01 	lsl	w1, w0, #8
    580c:	b9402fe0 	ldr	w0, [sp,#44]
    5810:	2a000020 	orr	w0, w1, w0
    5814:	2a0003e0 	mov	w0, w0
    5818:	f9001fe0 	str	x0, [sp,#56]
/home/rex/devel/optee/optee_os/lib/libutils/isoc/newlib/memset.c:102
    581c:	f9401fe0 	ldr	x0, [sp,#56]
    5820:	d370bc00 	lsl	x0, x0, #16
    5824:	f9401fe1 	ldr	x1, [sp,#56]
    5828:	aa000020 	orr	x0, x1, x0
    582c:	f9001fe0 	str	x0, [sp,#56]
/home/rex/devel/optee/optee_os/lib/libutils/isoc/newlib/memset.c:103
    5830:	52800400 	mov	w0, #0x20                  	// #32
    5834:	b90047e0 	str	w0, [sp,#68]
    5838:	1400000a 	b	5860 <memset+0xe0>
/home/rex/devel/optee/optee_os/lib/libutils/isoc/newlib/memset.c:104 (discriminator 3)
    583c:	b94047e0 	ldr	w0, [sp,#68]
    5840:	f9401fe1 	ldr	x1, [sp,#56]
    5844:	9ac02020 	lsl	x0, x1, x0
    5848:	f9401fe1 	ldr	x1, [sp,#56]
    584c:	aa000020 	orr	x0, x1, x0
    5850:	f9001fe0 	str	x0, [sp,#56]
/home/rex/devel/optee/optee_os/lib/libutils/isoc/newlib/memset.c:103 (discriminator 3)
    5854:	b94047e0 	ldr	w0, [sp,#68]
    5858:	531f7800 	lsl	w0, w0, #1
    585c:	b90047e0 	str	w0, [sp,#68]
/home/rex/devel/optee/optee_os/lib/libutils/isoc/newlib/memset.c:103 (discriminator 1)
    5860:	b94047e0 	ldr	w0, [sp,#68]
    5864:	7100fc1f 	cmp	w0, #0x3f
    5868:	54fffea9 	b.ls	583c <memset+0xbc>
/home/rex/devel/optee/optee_os/lib/libutils/isoc/newlib/memset.c:107
    586c:	14000018 	b	58cc <memset+0x14c>
/home/rex/devel/optee/optee_os/lib/libutils/isoc/newlib/memset.c:108
    5870:	f9401be0 	ldr	x0, [sp,#48]
    5874:	91002001 	add	x1, x0, #0x8
    5878:	f9001be1 	str	x1, [sp,#48]
    587c:	f9401fe1 	ldr	x1, [sp,#56]
    5880:	f9000001 	str	x1, [x0]
/home/rex/devel/optee/optee_os/lib/libutils/isoc/newlib/memset.c:109
    5884:	f9401be0 	ldr	x0, [sp,#48]
    5888:	91002001 	add	x1, x0, #0x8
    588c:	f9001be1 	str	x1, [sp,#48]
    5890:	f9401fe1 	ldr	x1, [sp,#56]
    5894:	f9000001 	str	x1, [x0]
/home/rex/devel/optee/optee_os/lib/libutils/isoc/newlib/memset.c:110
    5898:	f9401be0 	ldr	x0, [sp,#48]
    589c:	91002001 	add	x1, x0, #0x8
    58a0:	f9001be1 	str	x1, [sp,#48]
    58a4:	f9401fe1 	ldr	x1, [sp,#56]
    58a8:	f9000001 	str	x1, [x0]
/home/rex/devel/optee/optee_os/lib/libutils/isoc/newlib/memset.c:111
    58ac:	f9401be0 	ldr	x0, [sp,#48]
    58b0:	91002001 	add	x1, x0, #0x8
    58b4:	f9001be1 	str	x1, [sp,#48]
    58b8:	f9401fe1 	ldr	x1, [sp,#56]
    58bc:	f9000001 	str	x1, [x0]
/home/rex/devel/optee/optee_os/lib/libutils/isoc/newlib/memset.c:112
    58c0:	f94007e0 	ldr	x0, [sp,#8]
    58c4:	d1008000 	sub	x0, x0, #0x20
    58c8:	f90007e0 	str	x0, [sp,#8]
/home/rex/devel/optee/optee_os/lib/libutils/isoc/newlib/memset.c:107
    58cc:	f94007e0 	ldr	x0, [sp,#8]
    58d0:	f1007c1f 	cmp	x0, #0x1f
    58d4:	54fffce8 	b.hi	5870 <memset+0xf0>
/home/rex/devel/optee/optee_os/lib/libutils/isoc/newlib/memset.c:115
    58d8:	14000009 	b	58fc <memset+0x17c>
/home/rex/devel/optee/optee_os/lib/libutils/isoc/newlib/memset.c:116
    58dc:	f9401be0 	ldr	x0, [sp,#48]
    58e0:	91002001 	add	x1, x0, #0x8
    58e4:	f9001be1 	str	x1, [sp,#48]
    58e8:	f9401fe1 	ldr	x1, [sp,#56]
    58ec:	f9000001 	str	x1, [x0]
/home/rex/devel/optee/optee_os/lib/libutils/isoc/newlib/memset.c:117
    58f0:	f94007e0 	ldr	x0, [sp,#8]
    58f4:	d1002000 	sub	x0, x0, #0x8
    58f8:	f90007e0 	str	x0, [sp,#8]
/home/rex/devel/optee/optee_os/lib/libutils/isoc/newlib/memset.c:115
    58fc:	f94007e0 	ldr	x0, [sp,#8]
    5900:	f1001c1f 	cmp	x0, #0x7
    5904:	54fffec8 	b.hi	58dc <memset+0x15c>
/home/rex/devel/optee/optee_os/lib/libutils/isoc/newlib/memset.c:120
    5908:	f9401be0 	ldr	x0, [sp,#48]
    590c:	f90027e0 	str	x0, [sp,#72]
/home/rex/devel/optee/optee_os/lib/libutils/isoc/newlib/memset.c:124
    5910:	14000007 	b	592c <memset+0x1ac>
/home/rex/devel/optee/optee_os/lib/libutils/isoc/newlib/memset.c:125
    5914:	f94027e0 	ldr	x0, [sp,#72]
    5918:	91000401 	add	x1, x0, #0x1
    591c:	f90027e1 	str	x1, [sp,#72]
    5920:	b94017e1 	ldr	w1, [sp,#20]
    5924:	12001c21 	and	w1, w1, #0xff
    5928:	39000001 	strb	w1, [x0]
/home/rex/devel/optee/optee_os/lib/libutils/isoc/newlib/memset.c:124
    592c:	f94007e0 	ldr	x0, [sp,#8]
    5930:	d1000401 	sub	x1, x0, #0x1
    5934:	f90007e1 	str	x1, [sp,#8]
    5938:	f100001f 	cmp	x0, #0x0
    593c:	54fffec1 	b.ne	5914 <memset+0x194>
/home/rex/devel/optee/optee_os/lib/libutils/isoc/newlib/memset.c:127
    5940:	f9400fe0 	ldr	x0, [sp,#24]
/home/rex/devel/optee/optee_os/lib/libutils/isoc/newlib/memset.c:128
    5944:	910143ff 	add	sp, sp, #0x50
    5948:	d65f03c0 	ret

000000000000594c <strlen>:
strlen():
/home/rex/devel/optee/optee_os/lib/libutils/isoc/newlib/strlen.c:91
    594c:	d10083ff 	sub	sp, sp, #0x20
    5950:	f90007e0 	str	x0, [sp,#8]
/home/rex/devel/optee/optee_os/lib/libutils/isoc/newlib/strlen.c:92
    5954:	f94007e0 	ldr	x0, [sp,#8]
    5958:	f9000be0 	str	x0, [sp,#16]
/home/rex/devel/optee/optee_os/lib/libutils/isoc/newlib/strlen.c:98
    595c:	1400000c 	b	598c <strlen+0x40>
/home/rex/devel/optee/optee_os/lib/libutils/isoc/newlib/strlen.c:99
    5960:	f94007e0 	ldr	x0, [sp,#8]
    5964:	39400000 	ldrb	w0, [x0]
    5968:	7100001f 	cmp	w0, #0x0
    596c:	540000a1 	b.ne	5980 <strlen+0x34>
/home/rex/devel/optee/optee_os/lib/libutils/isoc/newlib/strlen.c:100
    5970:	f94007e1 	ldr	x1, [sp,#8]
    5974:	f9400be0 	ldr	x0, [sp,#16]
    5978:	cb000020 	sub	x0, x1, x0
    597c:	14000027 	b	5a18 <strlen+0xcc>
/home/rex/devel/optee/optee_os/lib/libutils/isoc/newlib/strlen.c:101
    5980:	f94007e0 	ldr	x0, [sp,#8]
    5984:	91000400 	add	x0, x0, #0x1
    5988:	f90007e0 	str	x0, [sp,#8]
/home/rex/devel/optee/optee_os/lib/libutils/isoc/newlib/strlen.c:98
    598c:	f94007e0 	ldr	x0, [sp,#8]
    5990:	92400800 	and	x0, x0, #0x7
    5994:	f100001f 	cmp	x0, #0x0
    5998:	54fffe41 	b.ne	5960 <strlen+0x14>
/home/rex/devel/optee/optee_os/lib/libutils/isoc/newlib/strlen.c:106
    599c:	f94007e0 	ldr	x0, [sp,#8]
    59a0:	f9000fe0 	str	x0, [sp,#24]
/home/rex/devel/optee/optee_os/lib/libutils/isoc/newlib/strlen.c:107
    59a4:	14000004 	b	59b4 <strlen+0x68>
/home/rex/devel/optee/optee_os/lib/libutils/isoc/newlib/strlen.c:108
    59a8:	f9400fe0 	ldr	x0, [sp,#24]
    59ac:	91002000 	add	x0, x0, #0x8
    59b0:	f9000fe0 	str	x0, [sp,#24]
/home/rex/devel/optee/optee_os/lib/libutils/isoc/newlib/strlen.c:107
    59b4:	f9400fe0 	ldr	x0, [sp,#24]
    59b8:	f9400001 	ldr	x1, [x0]
    59bc:	b207dbe0 	mov	x0, #0xfefefefefefefefe    	// #-72340172838076674
    59c0:	f29fdfe0 	movk	x0, #0xfeff
    59c4:	8b000021 	add	x1, x1, x0
    59c8:	f9400fe0 	ldr	x0, [sp,#24]
    59cc:	f9400000 	ldr	x0, [x0]
    59d0:	aa2003e0 	mvn	x0, x0
    59d4:	8a000020 	and	x0, x1, x0
    59d8:	9201c000 	and	x0, x0, #0x8080808080808080
    59dc:	f100001f 	cmp	x0, #0x0
    59e0:	54fffe40 	b.eq	59a8 <strlen+0x5c>
/home/rex/devel/optee/optee_os/lib/libutils/isoc/newlib/strlen.c:112
    59e4:	f9400fe0 	ldr	x0, [sp,#24]
    59e8:	f90007e0 	str	x0, [sp,#8]
/home/rex/devel/optee/optee_os/lib/libutils/isoc/newlib/strlen.c:116
    59ec:	14000004 	b	59fc <strlen+0xb0>
/home/rex/devel/optee/optee_os/lib/libutils/isoc/newlib/strlen.c:117
    59f0:	f94007e0 	ldr	x0, [sp,#8]
    59f4:	91000400 	add	x0, x0, #0x1
    59f8:	f90007e0 	str	x0, [sp,#8]
/home/rex/devel/optee/optee_os/lib/libutils/isoc/newlib/strlen.c:116
    59fc:	f94007e0 	ldr	x0, [sp,#8]
    5a00:	39400000 	ldrb	w0, [x0]
    5a04:	7100001f 	cmp	w0, #0x0
    5a08:	54ffff41 	b.ne	59f0 <strlen+0xa4>
/home/rex/devel/optee/optee_os/lib/libutils/isoc/newlib/strlen.c:118
    5a0c:	f94007e1 	ldr	x1, [sp,#8]
    5a10:	f9400be0 	ldr	x0, [sp,#16]
    5a14:	cb000020 	sub	x0, x1, x0
/home/rex/devel/optee/optee_os/lib/libutils/isoc/newlib/strlen.c:119
    5a18:	910083ff 	add	sp, sp, #0x20
    5a1c:	d65f03c0 	ret

0000000000005a20 <snprintk>:
snprintk():
/home/rex/devel/optee/optee_os/lib/libutils/ext/snprintk.c:111
    5a20:	a9ad7bfd 	stp	x29, x30, [sp,#-304]!
    5a24:	910003fd 	mov	x29, sp
    5a28:	f90027a0 	str	x0, [x29,#72]
    5a2c:	f90023a1 	str	x1, [x29,#64]
    5a30:	f9001fa2 	str	x2, [x29,#56]
    5a34:	f90087a3 	str	x3, [x29,#264]
    5a38:	f9008ba4 	str	x4, [x29,#272]
    5a3c:	f9008fa5 	str	x5, [x29,#280]
    5a40:	f90093a6 	str	x6, [x29,#288]
    5a44:	f90097a7 	str	x7, [x29,#296]
    5a48:	3d8023a0 	str	q0, [x29,#128]
    5a4c:	3d8027a1 	str	q1, [x29,#144]
    5a50:	3d802ba2 	str	q2, [x29,#160]
    5a54:	3d802fa3 	str	q3, [x29,#176]
    5a58:	3d8033a4 	str	q4, [x29,#192]
    5a5c:	3d8037a5 	str	q5, [x29,#208]
    5a60:	3d803ba6 	str	q6, [x29,#224]
    5a64:	3d803fa7 	str	q7, [x29,#240]
/home/rex/devel/optee/optee_os/lib/libutils/ext/snprintk.c:115
    5a68:	9104c3a0 	add	x0, x29, #0x130
    5a6c:	f9002fa0 	str	x0, [x29,#88]
    5a70:	9104c3a0 	add	x0, x29, #0x130
    5a74:	f90033a0 	str	x0, [x29,#96]
    5a78:	910403a0 	add	x0, x29, #0x100
    5a7c:	f90037a0 	str	x0, [x29,#104]
    5a80:	128004e0 	mov	w0, #0xffffffd8            	// #-40
    5a84:	b90073a0 	str	w0, [x29,#112]
    5a88:	12800fe0 	mov	w0, #0xffffff80            	// #-128
    5a8c:	b90077a0 	str	w0, [x29,#116]
/home/rex/devel/optee/optee_os/lib/libutils/ext/snprintk.c:116
    5a90:	f9402fa0 	ldr	x0, [x29,#88]
    5a94:	f9000ba0 	str	x0, [x29,#16]
    5a98:	f94033a0 	ldr	x0, [x29,#96]
    5a9c:	f9000fa0 	str	x0, [x29,#24]
    5aa0:	f94037a0 	ldr	x0, [x29,#104]
    5aa4:	f90013a0 	str	x0, [x29,#32]
    5aa8:	f9403ba0 	ldr	x0, [x29,#112]
    5aac:	f90017a0 	str	x0, [x29,#40]
    5ab0:	910043a0 	add	x0, x29, #0x10
    5ab4:	aa0003e3 	mov	x3, x0
    5ab8:	f9401fa2 	ldr	x2, [x29,#56]
    5abc:	f94023a1 	ldr	x1, [x29,#64]
    5ac0:	f94027a0 	ldr	x0, [x29,#72]
    5ac4:	94000005 	bl	5ad8 <vsnprintk>
    5ac8:	b9007fa0 	str	w0, [x29,#124]
/home/rex/devel/optee/optee_os/lib/libutils/ext/snprintk.c:119
    5acc:	b9407fa0 	ldr	w0, [x29,#124]
/home/rex/devel/optee/optee_os/lib/libutils/ext/snprintk.c:120
    5ad0:	a8d37bfd 	ldp	x29, x30, [sp],#304
    5ad4:	d65f03c0 	ret

0000000000005ad8 <vsnprintk>:
vsnprintk():
/home/rex/devel/optee/optee_os/lib/libutils/ext/snprintk.c:128
    5ad8:	a9ba7bfd 	stp	x29, x30, [sp,#-96]!
    5adc:	910003fd 	mov	x29, sp
    5ae0:	f9000bf3 	str	x19, [sp,#16]
    5ae4:	f9002fa0 	str	x0, [x29,#88]
    5ae8:	f9002ba1 	str	x1, [x29,#80]
    5aec:	f90027a2 	str	x2, [x29,#72]
    5af0:	aa0303f3 	mov	x19, x3
/home/rex/devel/optee/optee_os/lib/libutils/ext/snprintk.c:129
    5af4:	f9400260 	ldr	x0, [x19]
    5af8:	f90013a0 	str	x0, [x29,#32]
    5afc:	f9400660 	ldr	x0, [x19,#8]
    5b00:	f90017a0 	str	x0, [x29,#40]
    5b04:	f9400a60 	ldr	x0, [x19,#16]
    5b08:	f9001ba0 	str	x0, [x29,#48]
    5b0c:	f9400e60 	ldr	x0, [x19,#24]
    5b10:	f9001fa0 	str	x0, [x29,#56]
    5b14:	910083a0 	add	x0, x29, #0x20
    5b18:	52800024 	mov	w4, #0x1                   	// #1
    5b1c:	aa0003e3 	mov	x3, x0
    5b20:	f94027a2 	ldr	x2, [x29,#72]
    5b24:	f9402ba1 	ldr	x1, [x29,#80]
    5b28:	f9402fa0 	ldr	x0, [x29,#88]
    5b2c:	94000004 	bl	5b3c <__vsnprintf>
/home/rex/devel/optee/optee_os/lib/libutils/ext/snprintk.c:130
    5b30:	f9400bf3 	ldr	x19, [sp,#16]
    5b34:	a8c67bfd 	ldp	x29, x30, [sp],#96
    5b38:	d65f03c0 	ret

0000000000005b3c <__vsnprintf>:
__vsnprintf():
/home/rex/devel/optee/optee_os/lib/libutils/ext/snprintk.c:136
    5b3c:	a9b97bfd 	stp	x29, x30, [sp,#-112]!
    5b40:	910003fd 	mov	x29, sp
    5b44:	f9000bf3 	str	x19, [sp,#16]
    5b48:	f9002fa0 	str	x0, [x29,#88]
    5b4c:	f9002ba1 	str	x1, [x29,#80]
    5b50:	f90027a2 	str	x2, [x29,#72]
    5b54:	aa0303f3 	mov	x19, x3
    5b58:	39011fa4 	strb	w4, [x29,#71]
/home/rex/devel/optee/optee_os/lib/libutils/ext/snprintk.c:140
    5b5c:	f9402fa1 	ldr	x1, [x29,#88]
    5b60:	f9402ba0 	ldr	x0, [x29,#80]
    5b64:	8b000020 	add	x0, x1, x0
    5b68:	f90033a0 	str	x0, [x29,#96]
/home/rex/devel/optee/optee_os/lib/libutils/ext/snprintk.c:141
    5b6c:	f9400260 	ldr	x0, [x19]
    5b70:	f90013a0 	str	x0, [x29,#32]
    5b74:	f9400660 	ldr	x0, [x19,#8]
    5b78:	f90017a0 	str	x0, [x29,#40]
    5b7c:	f9400a60 	ldr	x0, [x19,#16]
    5b80:	f9001ba0 	str	x0, [x29,#48]
    5b84:	f9400e60 	ldr	x0, [x19,#24]
    5b88:	f9001fa0 	str	x0, [x29,#56]
    5b8c:	910083a1 	add	x1, x29, #0x20
    5b90:	910183a0 	add	x0, x29, #0x60
    5b94:	39411fa5 	ldrb	w5, [x29,#71]
    5b98:	aa0103e4 	mov	x4, x1
    5b9c:	f9402fa3 	ldr	x3, [x29,#88]
    5ba0:	aa0003e2 	mov	x2, x0
    5ba4:	52800101 	mov	w1, #0x8                   	// #8
    5ba8:	f94027a0 	ldr	x0, [x29,#72]
    5bac:	94000056 	bl	5d04 <kprintf>
    5bb0:	b9006fa0 	str	w0, [x29,#108]
/home/rex/devel/optee/optee_os/lib/libutils/ext/snprintk.c:142
    5bb4:	f9402fa0 	ldr	x0, [x29,#88]
    5bb8:	f100001f 	cmp	x0, #0x0
    5bbc:	54000240 	b.eq	5c04 <__vsnprintf+0xc8>
/home/rex/devel/optee/optee_os/lib/libutils/ext/snprintk.c:142 (discriminator 1)
    5bc0:	f9402ba0 	ldr	x0, [x29,#80]
    5bc4:	f100001f 	cmp	x0, #0x0
    5bc8:	540001e0 	b.eq	5c04 <__vsnprintf+0xc8>
/home/rex/devel/optee/optee_os/lib/libutils/ext/snprintk.c:144
    5bcc:	b9806fa1 	ldrsw	x1, [x29,#108]
    5bd0:	f9402ba0 	ldr	x0, [x29,#80]
    5bd4:	eb00003f 	cmp	x1, x0
    5bd8:	540000e3 	b.cc	5bf4 <__vsnprintf+0xb8>
/home/rex/devel/optee/optee_os/lib/libutils/ext/snprintk.c:145
    5bdc:	f9402ba0 	ldr	x0, [x29,#80]
    5be0:	d1000400 	sub	x0, x0, #0x1
    5be4:	f9402fa1 	ldr	x1, [x29,#88]
    5be8:	8b000020 	add	x0, x1, x0
    5bec:	3900001f 	strb	wzr, [x0]
    5bf0:	14000005 	b	5c04 <__vsnprintf+0xc8>
/home/rex/devel/optee/optee_os/lib/libutils/ext/snprintk.c:147
    5bf4:	b9806fa0 	ldrsw	x0, [x29,#108]
    5bf8:	f9402fa1 	ldr	x1, [x29,#88]
    5bfc:	8b000020 	add	x0, x1, x0
    5c00:	3900001f 	strb	wzr, [x0]
/home/rex/devel/optee/optee_os/lib/libutils/ext/snprintk.c:149
    5c04:	b9406fa0 	ldr	w0, [x29,#108]
/home/rex/devel/optee/optee_os/lib/libutils/ext/snprintk.c:150
    5c08:	f9400bf3 	ldr	x19, [sp,#16]
    5c0c:	a8c77bfd 	ldp	x29, x30, [sp],#112
    5c10:	d65f03c0 	ret

0000000000005c14 <uuid2str>:
uuid2str():
/home/rex/devel/optee/optee_os/lib/libutils/ext/snprintk.c:214
    5c14:	d101c3ff 	sub	sp, sp, #0x70
    5c18:	a9037bfd 	stp	x29, x30, [sp,#48]
    5c1c:	9100c3fd 	add	x29, sp, #0x30
    5c20:	f90017a0 	str	x0, [x29,#40]
    5c24:	f90013a1 	str	x1, [x29,#32]
    5c28:	f9000fa2 	str	x2, [x29,#24]
/home/rex/devel/optee/optee_os/lib/libutils/ext/snprintk.c:220
    5c2c:	f9400fa0 	ldr	x0, [x29,#24]
    5c30:	f9001fa0 	str	x0, [x29,#56]
/home/rex/devel/optee/optee_os/lib/libutils/ext/snprintk.c:222
    5c34:	f9401fa0 	ldr	x0, [x29,#56]
    5c38:	b9400001 	ldr	w1, [x0]
/home/rex/devel/optee/optee_os/lib/libutils/ext/snprintk.c:224
    5c3c:	f9401fa0 	ldr	x0, [x29,#56]
    5c40:	79400800 	ldrh	w0, [x0,#4]
/home/rex/devel/optee/optee_os/lib/libutils/ext/snprintk.c:222
    5c44:	2a0003e8 	mov	w8, w0
/home/rex/devel/optee/optee_os/lib/libutils/ext/snprintk.c:224
    5c48:	f9401fa0 	ldr	x0, [x29,#56]
    5c4c:	79400c00 	ldrh	w0, [x0,#6]
/home/rex/devel/optee/optee_os/lib/libutils/ext/snprintk.c:222
    5c50:	2a0003e9 	mov	w9, w0
/home/rex/devel/optee/optee_os/lib/libutils/ext/snprintk.c:225
    5c54:	f9401fa0 	ldr	x0, [x29,#56]
    5c58:	39402000 	ldrb	w0, [x0,#8]
/home/rex/devel/optee/optee_os/lib/libutils/ext/snprintk.c:222
    5c5c:	2a0003ea 	mov	w10, w0
/home/rex/devel/optee/optee_os/lib/libutils/ext/snprintk.c:225
    5c60:	f9401fa0 	ldr	x0, [x29,#56]
    5c64:	39402400 	ldrb	w0, [x0,#9]
/home/rex/devel/optee/optee_os/lib/libutils/ext/snprintk.c:222
    5c68:	2a0003eb 	mov	w11, w0
/home/rex/devel/optee/optee_os/lib/libutils/ext/snprintk.c:226
    5c6c:	f9401fa0 	ldr	x0, [x29,#56]
    5c70:	39402800 	ldrb	w0, [x0,#10]
/home/rex/devel/optee/optee_os/lib/libutils/ext/snprintk.c:222
    5c74:	2a0003e2 	mov	w2, w0
/home/rex/devel/optee/optee_os/lib/libutils/ext/snprintk.c:226
    5c78:	f9401fa0 	ldr	x0, [x29,#56]
    5c7c:	39402c00 	ldrb	w0, [x0,#11]
/home/rex/devel/optee/optee_os/lib/libutils/ext/snprintk.c:222
    5c80:	2a0003e3 	mov	w3, w0
/home/rex/devel/optee/optee_os/lib/libutils/ext/snprintk.c:227
    5c84:	f9401fa0 	ldr	x0, [x29,#56]
    5c88:	39403000 	ldrb	w0, [x0,#12]
/home/rex/devel/optee/optee_os/lib/libutils/ext/snprintk.c:222
    5c8c:	2a0003e4 	mov	w4, w0
/home/rex/devel/optee/optee_os/lib/libutils/ext/snprintk.c:227
    5c90:	f9401fa0 	ldr	x0, [x29,#56]
    5c94:	39403400 	ldrb	w0, [x0,#13]
/home/rex/devel/optee/optee_os/lib/libutils/ext/snprintk.c:222
    5c98:	2a0003e5 	mov	w5, w0
/home/rex/devel/optee/optee_os/lib/libutils/ext/snprintk.c:228
    5c9c:	f9401fa0 	ldr	x0, [x29,#56]
    5ca0:	39403800 	ldrb	w0, [x0,#14]
/home/rex/devel/optee/optee_os/lib/libutils/ext/snprintk.c:222
    5ca4:	2a0003e6 	mov	w6, w0
/home/rex/devel/optee/optee_os/lib/libutils/ext/snprintk.c:228
    5ca8:	f9401fa0 	ldr	x0, [x29,#56]
    5cac:	39403c00 	ldrb	w0, [x0,#15]
/home/rex/devel/optee/optee_os/lib/libutils/ext/snprintk.c:222
    5cb0:	2a0003e7 	mov	w7, w0
    5cb4:	d0000040 	adrp	x0, f000 <__func__.4113+0x18>
    5cb8:	91218000 	add	x0, x0, #0x860
    5cbc:	b9002be7 	str	w7, [sp,#40]
    5cc0:	b90023e6 	str	w6, [sp,#32]
    5cc4:	b9001be5 	str	w5, [sp,#24]
    5cc8:	b90013e4 	str	w4, [sp,#16]
    5ccc:	b9000be3 	str	w3, [sp,#8]
    5cd0:	b90003e2 	str	w2, [sp]
    5cd4:	2a0b03e7 	mov	w7, w11
    5cd8:	2a0a03e6 	mov	w6, w10
    5cdc:	2a0903e5 	mov	w5, w9
    5ce0:	2a0803e4 	mov	w4, w8
    5ce4:	2a0103e3 	mov	w3, w1
    5ce8:	aa0003e2 	mov	x2, x0
    5cec:	f94013a1 	ldr	x1, [x29,#32]
    5cf0:	f94017a0 	ldr	x0, [x29,#40]
    5cf4:	97ffff4b 	bl	5a20 <snprintk>
/home/rex/devel/optee/optee_os/lib/libutils/ext/snprintk.c:229
    5cf8:	a9437bfd 	ldp	x29, x30, [sp,#48]
    5cfc:	9101c3ff 	add	sp, sp, #0x70
    5d00:	d65f03c0 	ret

0000000000005d04 <kprintf>:
kprintf():
/home/rex/devel/optee/optee_os/lib/libutils/ext/snprintk.c:237
    5d04:	a9b37bfd 	stp	x29, x30, [sp,#-208]!
    5d08:	910003fd 	mov	x29, sp
    5d0c:	f9000bf3 	str	x19, [sp,#16]
    5d10:	f9001fa0 	str	x0, [x29,#56]
    5d14:	b90037a1 	str	w1, [x29,#52]
    5d18:	f90017a2 	str	x2, [x29,#40]
    5d1c:	f90013a3 	str	x3, [x29,#32]
    5d20:	aa0403f3 	mov	x19, x4
    5d24:	3900cfa5 	strb	w5, [x29,#51]
/home/rex/devel/optee/optee_os/lib/libutils/ext/snprintk.c:257
    5d28:	b94037a0 	ldr	w0, [x29,#52]
    5d2c:	7100201f 	cmp	w0, #0x8
    5d30:	54000101 	b.ne	5d50 <kprintf+0x4c>
/home/rex/devel/optee/optee_os/lib/libutils/ext/snprintk.c:257 (discriminator 1)
    5d34:	f94017a0 	ldr	x0, [x29,#40]
    5d38:	f100001f 	cmp	x0, #0x0
    5d3c:	540000a0 	b.eq	5d50 <kprintf+0x4c>
/home/rex/devel/optee/optee_os/lib/libutils/ext/snprintk.c:258
    5d40:	f94017a0 	ldr	x0, [x29,#40]
    5d44:	f9400000 	ldr	x0, [x0]
    5d48:	f9003fa0 	str	x0, [x29,#120]
    5d4c:	14000002 	b	5d54 <kprintf+0x50>
/home/rex/devel/optee/optee_os/lib/libutils/ext/snprintk.c:260
    5d50:	f9003fbf 	str	xzr, [x29,#120]
/home/rex/devel/optee/optee_os/lib/libutils/ext/snprintk.c:262
    5d54:	f9005fbf 	str	xzr, [x29,#184]
/home/rex/devel/optee/optee_os/lib/libutils/ext/snprintk.c:263
    5d58:	b9008bbf 	str	wzr, [x29,#136]
/home/rex/devel/optee/optee_os/lib/libutils/ext/snprintk.c:265
    5d5c:	f9401fa0 	ldr	x0, [x29,#56]
    5d60:	f90067a0 	str	x0, [x29,#200]
/home/rex/devel/optee/optee_os/lib/libutils/ext/snprintk.c:266
    5d64:	b900b3bf 	str	wzr, [x29,#176]
/home/rex/devel/optee/optee_os/lib/libutils/ext/snprintk.c:268
    5d68:	f90043bf 	str	xzr, [x29,#128]
/home/rex/devel/optee/optee_os/lib/libutils/ext/snprintk.c:274
    5d6c:	1400001a 	b	5dd4 <kprintf+0xd0>
/home/rex/devel/optee/optee_os/lib/libutils/ext/snprintk.c:275
    5d70:	b940b3a0 	ldr	w0, [x29,#176]
    5d74:	11000400 	add	w0, w0, #0x1
    5d78:	b900b3a0 	str	w0, [x29,#176]
/home/rex/devel/optee/optee_os/lib/libutils/ext/snprintk.c:276
    5d7c:	b94037a0 	ldr	w0, [x29,#52]
    5d80:	7100201f 	cmp	w0, #0x8
    5d84:	54000221 	b.ne	5dc8 <kprintf+0xc4>
/home/rex/devel/optee/optee_os/lib/libutils/ext/snprintk.c:276 (discriminator 1)
    5d88:	f94013a0 	ldr	x0, [x29,#32]
    5d8c:	f100001f 	cmp	x0, #0x0
    5d90:	540001c0 	b.eq	5dc8 <kprintf+0xc4>
/home/rex/devel/optee/optee_os/lib/libutils/ext/snprintk.c:276 (discriminator 2)
    5d94:	f94017a0 	ldr	x0, [x29,#40]
    5d98:	f100001f 	cmp	x0, #0x0
    5d9c:	540000a0 	b.eq	5db0 <kprintf+0xac>
/home/rex/devel/optee/optee_os/lib/libutils/ext/snprintk.c:276 (discriminator 4)
    5da0:	f94013a1 	ldr	x1, [x29,#32]
    5da4:	f9403fa0 	ldr	x0, [x29,#120]
    5da8:	eb00003f 	cmp	x1, x0
    5dac:	540000e2 	b.cs	5dc8 <kprintf+0xc4>
/home/rex/devel/optee/optee_os/lib/libutils/ext/snprintk.c:276 (discriminator 5)
    5db0:	f94013a0 	ldr	x0, [x29,#32]
    5db4:	91000401 	add	x1, x0, #0x1
    5db8:	f90013a1 	str	x1, [x29,#32]
    5dbc:	f94067a1 	ldr	x1, [x29,#200]
    5dc0:	39400021 	ldrb	w1, [x1]
    5dc4:	39000001 	strb	w1, [x0]
/home/rex/devel/optee/optee_os/lib/libutils/ext/snprintk.c:274
    5dc8:	f94067a0 	ldr	x0, [x29,#200]
    5dcc:	91000400 	add	x0, x0, #0x1
    5dd0:	f90067a0 	str	x0, [x29,#200]
/home/rex/devel/optee/optee_os/lib/libutils/ext/snprintk.c:274 (discriminator 1)
    5dd4:	f94067a0 	ldr	x0, [x29,#200]
    5dd8:	39400000 	ldrb	w0, [x0]
    5ddc:	7100941f 	cmp	w0, #0x25
    5de0:	540000a0 	b.eq	5df4 <kprintf+0xf0>
/home/rex/devel/optee/optee_os/lib/libutils/ext/snprintk.c:274 (discriminator 2)
    5de4:	f94067a0 	ldr	x0, [x29,#200]
    5de8:	39400000 	ldrb	w0, [x0]
    5dec:	7100001f 	cmp	w0, #0x0
    5df0:	54fffc01 	b.ne	5d70 <kprintf+0x6c>
/home/rex/devel/optee/optee_os/lib/libutils/ext/snprintk.c:278
    5df4:	f94067a0 	ldr	x0, [x29,#200]
    5df8:	39400000 	ldrb	w0, [x0]
    5dfc:	7100001f 	cmp	w0, #0x0
    5e00:	5400eaa0 	b.eq	7b54 <kprintf+0x1e50>
/home/rex/devel/optee/optee_os/lib/libutils/ext/snprintk.c:281
    5e04:	f94067a0 	ldr	x0, [x29,#200]
    5e08:	91000400 	add	x0, x0, #0x1
    5e0c:	f90067a0 	str	x0, [x29,#200]
/home/rex/devel/optee/optee_os/lib/libutils/ext/snprintk.c:283
    5e10:	b900b7bf 	str	wzr, [x29,#180]
/home/rex/devel/optee/optee_os/lib/libutils/ext/snprintk.c:284
    5e14:	b90093bf 	str	wzr, [x29,#144]
/home/rex/devel/optee/optee_os/lib/libutils/ext/snprintk.c:285
    5e18:	b900afbf 	str	wzr, [x29,#172]
/home/rex/devel/optee/optee_os/lib/libutils/ext/snprintk.c:286
    5e1c:	12800000 	mov	w0, #0xffffffff            	// #-1
    5e20:	b900aba0 	str	w0, [x29,#168]
/home/rex/devel/optee/optee_os/lib/libutils/ext/snprintk.c:287
    5e24:	39029fbf 	strb	wzr, [x29,#167]
/home/rex/devel/optee/optee_os/lib/libutils/ext/snprintk.c:289
    5e28:	f94067a0 	ldr	x0, [x29,#200]
    5e2c:	91000401 	add	x1, x0, #0x1
    5e30:	f90067a1 	str	x1, [x29,#200]
    5e34:	39400000 	ldrb	w0, [x0]
    5e38:	b900c7a0 	str	w0, [x29,#196]
/home/rex/devel/optee/optee_os/lib/libutils/ext/snprintk.c:290
    5e3c:	b940c7a0 	ldr	w0, [x29,#196]
    5e40:	51008000 	sub	w0, w0, #0x20
    5e44:	7101681f 	cmp	w0, #0x5a
    5e48:	5400c808 	b.hi	7748 <kprintf+0x1a44>
    5e4c:	d0000041 	adrp	x1, f000 <__func__.4113+0x18>
    5e50:	9122f021 	add	x1, x1, #0x8bc
    5e54:	b8605820 	ldr	w0, [x1,w0,uxtw #2]
    5e58:	10000061 	adr	x1, 5e64 <kprintf+0x160>
    5e5c:	8b20c820 	add	x0, x1, w0, sxtw #2
    5e60:	d61f0000 	br	x0
/home/rex/devel/optee/optee_os/lib/libutils/ext/snprintk.c:297
    5e64:	39429fa0 	ldrb	w0, [x29,#167]
    5e68:	7100001f 	cmp	w0, #0x0
    5e6c:	54fffde1 	b.ne	5e28 <kprintf+0x124>
/home/rex/devel/optee/optee_os/lib/libutils/ext/snprintk.c:298
    5e70:	52800400 	mov	w0, #0x20                  	// #32
    5e74:	39029fa0 	strb	w0, [x29,#167]
/home/rex/devel/optee/optee_os/lib/libutils/ext/snprintk.c:299
    5e78:	17ffffec 	b	5e28 <kprintf+0x124>
/home/rex/devel/optee/optee_os/lib/libutils/ext/snprintk.c:301
    5e7c:	b940b7a0 	ldr	w0, [x29,#180]
    5e80:	32000000 	orr	w0, w0, #0x1
    5e84:	b900b7a0 	str	w0, [x29,#180]
/home/rex/devel/optee/optee_os/lib/libutils/ext/snprintk.c:302
    5e88:	17ffffe8 	b	5e28 <kprintf+0x124>
/home/rex/devel/optee/optee_os/lib/libutils/ext/snprintk.c:310
    5e8c:	b9401a60 	ldr	w0, [x19,#24]
    5e90:	f9400261 	ldr	x1, [x19]
    5e94:	7100001f 	cmp	w0, #0x0
    5e98:	540000eb 	b.lt	5eb4 <kprintf+0x1b0>
    5e9c:	aa0103e0 	mov	x0, x1
    5ea0:	91002c00 	add	x0, x0, #0xb
    5ea4:	927df000 	and	x0, x0, #0xfffffffffffffff8
    5ea8:	f9000260 	str	x0, [x19]
    5eac:	aa0103e0 	mov	x0, x1
    5eb0:	1400000f 	b	5eec <kprintf+0x1e8>
    5eb4:	11002002 	add	w2, w0, #0x8
    5eb8:	b9001a62 	str	w2, [x19,#24]
    5ebc:	b9401a62 	ldr	w2, [x19,#24]
    5ec0:	7100005f 	cmp	w2, #0x0
    5ec4:	540000ed 	b.le	5ee0 <kprintf+0x1dc>
    5ec8:	aa0103e0 	mov	x0, x1
    5ecc:	91002c00 	add	x0, x0, #0xb
    5ed0:	927df000 	and	x0, x0, #0xfffffffffffffff8
    5ed4:	f9000260 	str	x0, [x19]
    5ed8:	aa0103e0 	mov	x0, x1
    5edc:	14000004 	b	5eec <kprintf+0x1e8>
    5ee0:	f9400661 	ldr	x1, [x19,#8]
    5ee4:	93407c00 	sxtw	x0, w0
    5ee8:	8b000020 	add	x0, x1, x0
    5eec:	b9400000 	ldr	w0, [x0]
    5ef0:	b900afa0 	str	w0, [x29,#172]
    5ef4:	b940afa0 	ldr	w0, [x29,#172]
    5ef8:	7100001f 	cmp	w0, #0x0
    5efc:	5400004b 	b.lt	5f04 <kprintf+0x200>
/home/rex/devel/optee/optee_os/lib/libutils/ext/snprintk.c:311
    5f00:	17ffffca 	b	5e28 <kprintf+0x124>
/home/rex/devel/optee/optee_os/lib/libutils/ext/snprintk.c:312
    5f04:	b940afa0 	ldr	w0, [x29,#172]
    5f08:	4b0003e0 	neg	w0, w0
    5f0c:	b900afa0 	str	w0, [x29,#172]
/home/rex/devel/optee/optee_os/lib/libutils/ext/snprintk.c:315
    5f10:	b940b7a0 	ldr	w0, [x29,#180]
    5f14:	321e0000 	orr	w0, w0, #0x4
    5f18:	b900b7a0 	str	w0, [x29,#180]
/home/rex/devel/optee/optee_os/lib/libutils/ext/snprintk.c:316
    5f1c:	17ffffc3 	b	5e28 <kprintf+0x124>
/home/rex/devel/optee/optee_os/lib/libutils/ext/snprintk.c:318
    5f20:	52800560 	mov	w0, #0x2b                  	// #43
    5f24:	39029fa0 	strb	w0, [x29,#167]
/home/rex/devel/optee/optee_os/lib/libutils/ext/snprintk.c:319
    5f28:	17ffffc0 	b	5e28 <kprintf+0x124>
/home/rex/devel/optee/optee_os/lib/libutils/ext/snprintk.c:321
    5f2c:	f94067a0 	ldr	x0, [x29,#200]
    5f30:	91000401 	add	x1, x0, #0x1
    5f34:	f90067a1 	str	x1, [x29,#200]
    5f38:	39400000 	ldrb	w0, [x0]
    5f3c:	b900c7a0 	str	w0, [x29,#196]
    5f40:	b940c7a0 	ldr	w0, [x29,#196]
    5f44:	7100a81f 	cmp	w0, #0x2a
    5f48:	54000441 	b.ne	5fd0 <kprintf+0x2cc>
/home/rex/devel/optee/optee_os/lib/libutils/ext/snprintk.c:322
    5f4c:	b9401a60 	ldr	w0, [x19,#24]
    5f50:	f9400261 	ldr	x1, [x19]
    5f54:	7100001f 	cmp	w0, #0x0
    5f58:	540000eb 	b.lt	5f74 <kprintf+0x270>
    5f5c:	aa0103e0 	mov	x0, x1
    5f60:	91002c00 	add	x0, x0, #0xb
    5f64:	927df000 	and	x0, x0, #0xfffffffffffffff8
    5f68:	f9000260 	str	x0, [x19]
    5f6c:	aa0103e0 	mov	x0, x1
    5f70:	1400000f 	b	5fac <kprintf+0x2a8>
    5f74:	11002002 	add	w2, w0, #0x8
    5f78:	b9001a62 	str	w2, [x19,#24]
    5f7c:	b9401a62 	ldr	w2, [x19,#24]
    5f80:	7100005f 	cmp	w2, #0x0
    5f84:	540000ed 	b.le	5fa0 <kprintf+0x29c>
    5f88:	aa0103e0 	mov	x0, x1
    5f8c:	91002c00 	add	x0, x0, #0xb
    5f90:	927df000 	and	x0, x0, #0xfffffffffffffff8
    5f94:	f9000260 	str	x0, [x19]
    5f98:	aa0103e0 	mov	x0, x1
    5f9c:	14000004 	b	5fac <kprintf+0x2a8>
    5fa0:	f9400661 	ldr	x1, [x19,#8]
    5fa4:	93407c00 	sxtw	x0, w0
    5fa8:	8b000020 	add	x0, x1, x0
    5fac:	b9400000 	ldr	w0, [x0]
    5fb0:	b900c3a0 	str	w0, [x29,#192]
/home/rex/devel/optee/optee_os/lib/libutils/ext/snprintk.c:323
    5fb4:	b940c3a2 	ldr	w2, [x29,#192]
    5fb8:	b940c3a1 	ldr	w1, [x29,#192]
    5fbc:	12800000 	mov	w0, #0xffffffff            	// #-1
    5fc0:	7100005f 	cmp	w2, #0x0
    5fc4:	1a80a020 	csel	w0, w1, w0, ge
    5fc8:	b900aba0 	str	w0, [x29,#168]
/home/rex/devel/optee/optee_os/lib/libutils/ext/snprintk.c:324
    5fcc:	17ffff97 	b	5e28 <kprintf+0x124>
/home/rex/devel/optee/optee_os/lib/libutils/ext/snprintk.c:326
    5fd0:	b900c3bf 	str	wzr, [x29,#192]
/home/rex/devel/optee/optee_os/lib/libutils/ext/snprintk.c:327
    5fd4:	14000010 	b	6014 <kprintf+0x310>
/home/rex/devel/optee/optee_os/lib/libutils/ext/snprintk.c:328
    5fd8:	b940c3a1 	ldr	w1, [x29,#192]
    5fdc:	2a0103e0 	mov	w0, w1
    5fe0:	531e7400 	lsl	w0, w0, #2
    5fe4:	0b010000 	add	w0, w0, w1
    5fe8:	531f7800 	lsl	w0, w0, #1
    5fec:	2a0003e1 	mov	w1, w0
    5ff0:	b940c7a0 	ldr	w0, [x29,#196]
    5ff4:	5100c000 	sub	w0, w0, #0x30
    5ff8:	0b000020 	add	w0, w1, w0
    5ffc:	b900c3a0 	str	w0, [x29,#192]
/home/rex/devel/optee/optee_os/lib/libutils/ext/snprintk.c:329
    6000:	f94067a0 	ldr	x0, [x29,#200]
    6004:	91000401 	add	x1, x0, #0x1
    6008:	f90067a1 	str	x1, [x29,#200]
    600c:	39400000 	ldrb	w0, [x0]
    6010:	b900c7a0 	str	w0, [x29,#196]
/home/rex/devel/optee/optee_os/lib/libutils/ext/snprintk.c:327
    6014:	b940c7a0 	ldr	w0, [x29,#196]
    6018:	5100c000 	sub	w0, w0, #0x30
    601c:	7100241f 	cmp	w0, #0x9
    6020:	54fffdc9 	b.ls	5fd8 <kprintf+0x2d4>
/home/rex/devel/optee/optee_os/lib/libutils/ext/snprintk.c:331
    6024:	b940c3a2 	ldr	w2, [x29,#192]
    6028:	b940c3a1 	ldr	w1, [x29,#192]
    602c:	12800000 	mov	w0, #0xffffffff            	// #-1
    6030:	7100005f 	cmp	w2, #0x0
    6034:	1a80a020 	csel	w0, w1, w0, ge
    6038:	b900aba0 	str	w0, [x29,#168]
/home/rex/devel/optee/optee_os/lib/libutils/ext/snprintk.c:332
    603c:	17ffff80 	b	5e3c <kprintf+0x138>
/home/rex/devel/optee/optee_os/lib/libutils/ext/snprintk.c:339
    6040:	b940b7a0 	ldr	w0, [x29,#180]
    6044:	32160000 	orr	w0, w0, #0x400
    6048:	b900b7a0 	str	w0, [x29,#180]
/home/rex/devel/optee/optee_os/lib/libutils/ext/snprintk.c:340
    604c:	17ffff77 	b	5e28 <kprintf+0x124>
/home/rex/devel/optee/optee_os/lib/libutils/ext/snprintk.c:343
    6050:	b900c3bf 	str	wzr, [x29,#192]
/home/rex/devel/optee/optee_os/lib/libutils/ext/snprintk.c:345 (discriminator 1)
    6054:	b940c3a1 	ldr	w1, [x29,#192]
    6058:	2a0103e0 	mov	w0, w1
    605c:	531e7400 	lsl	w0, w0, #2
    6060:	0b010000 	add	w0, w0, w1
    6064:	531f7800 	lsl	w0, w0, #1
    6068:	2a0003e1 	mov	w1, w0
    606c:	b940c7a0 	ldr	w0, [x29,#196]
    6070:	5100c000 	sub	w0, w0, #0x30
    6074:	0b000020 	add	w0, w1, w0
    6078:	b900c3a0 	str	w0, [x29,#192]
/home/rex/devel/optee/optee_os/lib/libutils/ext/snprintk.c:346 (discriminator 1)
    607c:	f94067a0 	ldr	x0, [x29,#200]
    6080:	91000401 	add	x1, x0, #0x1
    6084:	f90067a1 	str	x1, [x29,#200]
    6088:	39400000 	ldrb	w0, [x0]
    608c:	b900c7a0 	str	w0, [x29,#196]
/home/rex/devel/optee/optee_os/lib/libutils/ext/snprintk.c:347 (discriminator 1)
    6090:	b940c7a0 	ldr	w0, [x29,#196]
    6094:	5100c000 	sub	w0, w0, #0x30
    6098:	7100241f 	cmp	w0, #0x9
    609c:	54fffdc9 	b.ls	6054 <kprintf+0x350>
/home/rex/devel/optee/optee_os/lib/libutils/ext/snprintk.c:348
    60a0:	b940c3a0 	ldr	w0, [x29,#192]
    60a4:	b900afa0 	str	w0, [x29,#172]
/home/rex/devel/optee/optee_os/lib/libutils/ext/snprintk.c:349
    60a8:	17ffff65 	b	5e3c <kprintf+0x138>
/home/rex/devel/optee/optee_os/lib/libutils/ext/snprintk.c:351
    60ac:	b940b7a0 	ldr	w0, [x29,#180]
    60b0:	321a0000 	orr	w0, w0, #0x40
    60b4:	b900b7a0 	str	w0, [x29,#180]
/home/rex/devel/optee/optee_os/lib/libutils/ext/snprintk.c:352
    60b8:	17ffff5c 	b	5e28 <kprintf+0x124>
/home/rex/devel/optee/optee_os/lib/libutils/ext/snprintk.c:354
    60bc:	b940b7a0 	ldr	w0, [x29,#180]
    60c0:	32190000 	orr	w0, w0, #0x80
    60c4:	b900b7a0 	str	w0, [x29,#180]
/home/rex/devel/optee/optee_os/lib/libutils/ext/snprintk.c:355
    60c8:	17ffff58 	b	5e28 <kprintf+0x124>
/home/rex/devel/optee/optee_os/lib/libutils/ext/snprintk.c:357
    60cc:	f94067a0 	ldr	x0, [x29,#200]
    60d0:	39400000 	ldrb	w0, [x0]
    60d4:	7101b01f 	cmp	w0, #0x6c
    60d8:	54000101 	b.ne	60f8 <kprintf+0x3f4>
/home/rex/devel/optee/optee_os/lib/libutils/ext/snprintk.c:358
    60dc:	f94067a0 	ldr	x0, [x29,#200]
    60e0:	91000400 	add	x0, x0, #0x1
    60e4:	f90067a0 	str	x0, [x29,#200]
/home/rex/devel/optee/optee_os/lib/libutils/ext/snprintk.c:359
    60e8:	b940b7a0 	ldr	w0, [x29,#180]
    60ec:	321b0000 	orr	w0, w0, #0x20
    60f0:	b900b7a0 	str	w0, [x29,#180]
    60f4:	17ffff4d 	b	5e28 <kprintf+0x124>
/home/rex/devel/optee/optee_os/lib/libutils/ext/snprintk.c:361
    60f8:	b940b7a0 	ldr	w0, [x29,#180]
    60fc:	321c0000 	orr	w0, w0, #0x10
    6100:	b900b7a0 	str	w0, [x29,#180]
/home/rex/devel/optee/optee_os/lib/libutils/ext/snprintk.c:363
    6104:	17ffff49 	b	5e28 <kprintf+0x124>
/home/rex/devel/optee/optee_os/lib/libutils/ext/snprintk.c:365
    6108:	b940b7a0 	ldr	w0, [x29,#180]
    610c:	321b0000 	orr	w0, w0, #0x20
    6110:	b900b7a0 	str	w0, [x29,#180]
/home/rex/devel/optee/optee_os/lib/libutils/ext/snprintk.c:366
    6114:	17ffff45 	b	5e28 <kprintf+0x124>
/home/rex/devel/optee/optee_os/lib/libutils/ext/snprintk.c:368
    6118:	b940b7a0 	ldr	w0, [x29,#180]
    611c:	32180000 	orr	w0, w0, #0x100
    6120:	b900b7a0 	str	w0, [x29,#180]
/home/rex/devel/optee/optee_os/lib/libutils/ext/snprintk.c:369
    6124:	17ffff41 	b	5e28 <kprintf+0x124>
/home/rex/devel/optee/optee_os/lib/libutils/ext/snprintk.c:371
    6128:	b940b7a0 	ldr	w0, [x29,#180]
    612c:	32170000 	orr	w0, w0, #0x200
    6130:	b900b7a0 	str	w0, [x29,#180]
/home/rex/devel/optee/optee_os/lib/libutils/ext/snprintk.c:372
    6134:	17ffff3d 	b	5e28 <kprintf+0x124>
/home/rex/devel/optee/optee_os/lib/libutils/ext/snprintk.c:374
    6138:	910123a0 	add	x0, x29, #0x48
    613c:	f9005fa0 	str	x0, [x29,#184]
    6140:	b9401a60 	ldr	w0, [x19,#24]
    6144:	f9400261 	ldr	x1, [x19]
    6148:	7100001f 	cmp	w0, #0x0
    614c:	540000eb 	b.lt	6168 <kprintf+0x464>
    6150:	aa0103e0 	mov	x0, x1
    6154:	91002c00 	add	x0, x0, #0xb
    6158:	927df000 	and	x0, x0, #0xfffffffffffffff8
    615c:	f9000260 	str	x0, [x19]
    6160:	aa0103e0 	mov	x0, x1
    6164:	1400000f 	b	61a0 <kprintf+0x49c>
    6168:	11002002 	add	w2, w0, #0x8
    616c:	b9001a62 	str	w2, [x19,#24]
    6170:	b9401a62 	ldr	w2, [x19,#24]
    6174:	7100005f 	cmp	w2, #0x0
    6178:	540000ed 	b.le	6194 <kprintf+0x490>
    617c:	aa0103e0 	mov	x0, x1
    6180:	91002c00 	add	x0, x0, #0xb
    6184:	927df000 	and	x0, x0, #0xfffffffffffffff8
    6188:	f9000260 	str	x0, [x19]
    618c:	aa0103e0 	mov	x0, x1
    6190:	14000004 	b	61a0 <kprintf+0x49c>
    6194:	f9400661 	ldr	x1, [x19,#8]
    6198:	93407c00 	sxtw	x0, w0
    619c:	8b000020 	add	x0, x1, x0
    61a0:	b9400000 	ldr	w0, [x0]
    61a4:	12001c01 	and	w1, w0, #0xff
    61a8:	f9405fa0 	ldr	x0, [x29,#184]
    61ac:	39000001 	strb	w1, [x0]
/home/rex/devel/optee/optee_os/lib/libutils/ext/snprintk.c:375
    61b0:	52800020 	mov	w0, #0x1                   	// #1
    61b4:	b9008ba0 	str	w0, [x29,#136]
/home/rex/devel/optee/optee_os/lib/libutils/ext/snprintk.c:376
    61b8:	39029fbf 	strb	wzr, [x29,#167]
/home/rex/devel/optee/optee_os/lib/libutils/ext/snprintk.c:377
    61bc:	14000570 	b	777c <kprintf+0x1a78>
/home/rex/devel/optee/optee_os/lib/libutils/ext/snprintk.c:379
    61c0:	b940b7a0 	ldr	w0, [x29,#180]
    61c4:	321c0000 	orr	w0, w0, #0x10
    61c8:	b900b7a0 	str	w0, [x29,#180]
/home/rex/devel/optee/optee_os/lib/libutils/ext/snprintk.c:383
    61cc:	b940b7a0 	ldr	w0, [x29,#180]
    61d0:	12190000 	and	w0, w0, #0x80
    61d4:	7100001f 	cmp	w0, #0x0
    61d8:	54000360 	b.eq	6244 <kprintf+0x540>
/home/rex/devel/optee/optee_os/lib/libutils/ext/snprintk.c:383 (discriminator 1)
    61dc:	b9401a60 	ldr	w0, [x19,#24]
    61e0:	f9400261 	ldr	x1, [x19]
    61e4:	7100001f 	cmp	w0, #0x0
    61e8:	540000eb 	b.lt	6204 <kprintf+0x500>
/home/rex/devel/optee/optee_os/lib/libutils/ext/snprintk.c:383
    61ec:	aa0103e0 	mov	x0, x1
    61f0:	91003c00 	add	x0, x0, #0xf
    61f4:	927df000 	and	x0, x0, #0xfffffffffffffff8
    61f8:	f9000260 	str	x0, [x19]
    61fc:	aa0103e0 	mov	x0, x1
    6200:	1400000f 	b	623c <kprintf+0x538>
    6204:	11002002 	add	w2, w0, #0x8
    6208:	b9001a62 	str	w2, [x19,#24]
    620c:	b9401a62 	ldr	w2, [x19,#24]
    6210:	7100005f 	cmp	w2, #0x0
    6214:	540000ed 	b.le	6230 <kprintf+0x52c>
    6218:	aa0103e0 	mov	x0, x1
    621c:	91003c00 	add	x0, x0, #0xf
    6220:	927df000 	and	x0, x0, #0xfffffffffffffff8
    6224:	f9000260 	str	x0, [x19]
    6228:	aa0103e0 	mov	x0, x1
    622c:	14000004 	b	623c <kprintf+0x538>
    6230:	f9400661 	ldr	x1, [x19,#8]
    6234:	93407c00 	sxtw	x0, w0
    6238:	8b000020 	add	x0, x1, x0
    623c:	f9400000 	ldr	x0, [x0]
    6240:	140000b3 	b	650c <kprintf+0x808>
/home/rex/devel/optee/optee_os/lib/libutils/ext/snprintk.c:383 (discriminator 2)
    6244:	b940b7a0 	ldr	w0, [x29,#180]
    6248:	12180000 	and	w0, w0, #0x100
    624c:	7100001f 	cmp	w0, #0x0
    6250:	54000360 	b.eq	62bc <kprintf+0x5b8>
/home/rex/devel/optee/optee_os/lib/libutils/ext/snprintk.c:383 (discriminator 4)
    6254:	b9401a60 	ldr	w0, [x19,#24]
    6258:	f9400261 	ldr	x1, [x19]
    625c:	7100001f 	cmp	w0, #0x0
    6260:	540000eb 	b.lt	627c <kprintf+0x578>
/home/rex/devel/optee/optee_os/lib/libutils/ext/snprintk.c:383
    6264:	aa0103e0 	mov	x0, x1
    6268:	91003c00 	add	x0, x0, #0xf
    626c:	927df000 	and	x0, x0, #0xfffffffffffffff8
    6270:	f9000260 	str	x0, [x19]
    6274:	aa0103e0 	mov	x0, x1
    6278:	1400000f 	b	62b4 <kprintf+0x5b0>
    627c:	11002002 	add	w2, w0, #0x8
    6280:	b9001a62 	str	w2, [x19,#24]
    6284:	b9401a62 	ldr	w2, [x19,#24]
    6288:	7100005f 	cmp	w2, #0x0
    628c:	540000ed 	b.le	62a8 <kprintf+0x5a4>
    6290:	aa0103e0 	mov	x0, x1
    6294:	91003c00 	add	x0, x0, #0xf
    6298:	927df000 	and	x0, x0, #0xfffffffffffffff8
    629c:	f9000260 	str	x0, [x19]
    62a0:	aa0103e0 	mov	x0, x1
    62a4:	14000004 	b	62b4 <kprintf+0x5b0>
    62a8:	f9400661 	ldr	x1, [x19,#8]
    62ac:	93407c00 	sxtw	x0, w0
    62b0:	8b000020 	add	x0, x1, x0
    62b4:	f9400000 	ldr	x0, [x0]
    62b8:	14000095 	b	650c <kprintf+0x808>
/home/rex/devel/optee/optee_os/lib/libutils/ext/snprintk.c:383 (discriminator 5)
    62bc:	b940b7a0 	ldr	w0, [x29,#180]
    62c0:	12170000 	and	w0, w0, #0x200
    62c4:	7100001f 	cmp	w0, #0x0
    62c8:	54000360 	b.eq	6334 <kprintf+0x630>
/home/rex/devel/optee/optee_os/lib/libutils/ext/snprintk.c:383 (discriminator 7)
    62cc:	b9401a60 	ldr	w0, [x19,#24]
    62d0:	f9400261 	ldr	x1, [x19]
    62d4:	7100001f 	cmp	w0, #0x0
    62d8:	540000eb 	b.lt	62f4 <kprintf+0x5f0>
/home/rex/devel/optee/optee_os/lib/libutils/ext/snprintk.c:383
    62dc:	aa0103e0 	mov	x0, x1
    62e0:	91003c00 	add	x0, x0, #0xf
    62e4:	927df000 	and	x0, x0, #0xfffffffffffffff8
    62e8:	f9000260 	str	x0, [x19]
    62ec:	aa0103e0 	mov	x0, x1
    62f0:	1400000f 	b	632c <kprintf+0x628>
    62f4:	11002002 	add	w2, w0, #0x8
    62f8:	b9001a62 	str	w2, [x19,#24]
    62fc:	b9401a62 	ldr	w2, [x19,#24]
    6300:	7100005f 	cmp	w2, #0x0
    6304:	540000ed 	b.le	6320 <kprintf+0x61c>
    6308:	aa0103e0 	mov	x0, x1
    630c:	91003c00 	add	x0, x0, #0xf
    6310:	927df000 	and	x0, x0, #0xfffffffffffffff8
    6314:	f9000260 	str	x0, [x19]
    6318:	aa0103e0 	mov	x0, x1
    631c:	14000004 	b	632c <kprintf+0x628>
    6320:	f9400661 	ldr	x1, [x19,#8]
    6324:	93407c00 	sxtw	x0, w0
    6328:	8b000020 	add	x0, x1, x0
    632c:	f9400000 	ldr	x0, [x0]
    6330:	14000077 	b	650c <kprintf+0x808>
/home/rex/devel/optee/optee_os/lib/libutils/ext/snprintk.c:383 (discriminator 8)
    6334:	b940b7a0 	ldr	w0, [x29,#180]
    6338:	121b0000 	and	w0, w0, #0x20
    633c:	7100001f 	cmp	w0, #0x0
    6340:	54000360 	b.eq	63ac <kprintf+0x6a8>
/home/rex/devel/optee/optee_os/lib/libutils/ext/snprintk.c:383 (discriminator 10)
    6344:	b9401a60 	ldr	w0, [x19,#24]
    6348:	f9400261 	ldr	x1, [x19]
    634c:	7100001f 	cmp	w0, #0x0
    6350:	540000eb 	b.lt	636c <kprintf+0x668>
/home/rex/devel/optee/optee_os/lib/libutils/ext/snprintk.c:383
    6354:	aa0103e0 	mov	x0, x1
    6358:	91003c00 	add	x0, x0, #0xf
    635c:	927df000 	and	x0, x0, #0xfffffffffffffff8
    6360:	f9000260 	str	x0, [x19]
    6364:	aa0103e0 	mov	x0, x1
    6368:	1400000f 	b	63a4 <kprintf+0x6a0>
    636c:	11002002 	add	w2, w0, #0x8
    6370:	b9001a62 	str	w2, [x19,#24]
    6374:	b9401a62 	ldr	w2, [x19,#24]
    6378:	7100005f 	cmp	w2, #0x0
    637c:	540000ed 	b.le	6398 <kprintf+0x694>
    6380:	aa0103e0 	mov	x0, x1
    6384:	91003c00 	add	x0, x0, #0xf
    6388:	927df000 	and	x0, x0, #0xfffffffffffffff8
    638c:	f9000260 	str	x0, [x19]
    6390:	aa0103e0 	mov	x0, x1
    6394:	14000004 	b	63a4 <kprintf+0x6a0>
    6398:	f9400661 	ldr	x1, [x19,#8]
    639c:	93407c00 	sxtw	x0, w0
    63a0:	8b000020 	add	x0, x1, x0
    63a4:	f9400000 	ldr	x0, [x0]
    63a8:	14000059 	b	650c <kprintf+0x808>
/home/rex/devel/optee/optee_os/lib/libutils/ext/snprintk.c:383 (discriminator 11)
    63ac:	b940b7a0 	ldr	w0, [x29,#180]
    63b0:	121c0000 	and	w0, w0, #0x10
    63b4:	7100001f 	cmp	w0, #0x0
    63b8:	54000360 	b.eq	6424 <kprintf+0x720>
/home/rex/devel/optee/optee_os/lib/libutils/ext/snprintk.c:383 (discriminator 13)
    63bc:	b9401a60 	ldr	w0, [x19,#24]
    63c0:	f9400261 	ldr	x1, [x19]
    63c4:	7100001f 	cmp	w0, #0x0
    63c8:	540000eb 	b.lt	63e4 <kprintf+0x6e0>
/home/rex/devel/optee/optee_os/lib/libutils/ext/snprintk.c:383
    63cc:	aa0103e0 	mov	x0, x1
    63d0:	91003c00 	add	x0, x0, #0xf
    63d4:	927df000 	and	x0, x0, #0xfffffffffffffff8
    63d8:	f9000260 	str	x0, [x19]
    63dc:	aa0103e0 	mov	x0, x1
    63e0:	1400000f 	b	641c <kprintf+0x718>
    63e4:	11002002 	add	w2, w0, #0x8
    63e8:	b9001a62 	str	w2, [x19,#24]
    63ec:	b9401a62 	ldr	w2, [x19,#24]
    63f0:	7100005f 	cmp	w2, #0x0
    63f4:	540000ed 	b.le	6410 <kprintf+0x70c>
    63f8:	aa0103e0 	mov	x0, x1
    63fc:	91003c00 	add	x0, x0, #0xf
    6400:	927df000 	and	x0, x0, #0xfffffffffffffff8
    6404:	f9000260 	str	x0, [x19]
    6408:	aa0103e0 	mov	x0, x1
    640c:	14000004 	b	641c <kprintf+0x718>
    6410:	f9400661 	ldr	x1, [x19,#8]
    6414:	93407c00 	sxtw	x0, w0
    6418:	8b000020 	add	x0, x1, x0
    641c:	f9400000 	ldr	x0, [x0]
    6420:	1400003b 	b	650c <kprintf+0x808>
/home/rex/devel/optee/optee_os/lib/libutils/ext/snprintk.c:383 (discriminator 14)
    6424:	b940b7a0 	ldr	w0, [x29,#180]
    6428:	121a0000 	and	w0, w0, #0x40
    642c:	7100001f 	cmp	w0, #0x0
    6430:	540003a0 	b.eq	64a4 <kprintf+0x7a0>
/home/rex/devel/optee/optee_os/lib/libutils/ext/snprintk.c:383 (discriminator 16)
    6434:	b9401a60 	ldr	w0, [x19,#24]
    6438:	f9400261 	ldr	x1, [x19]
    643c:	7100001f 	cmp	w0, #0x0
    6440:	540000eb 	b.lt	645c <kprintf+0x758>
/home/rex/devel/optee/optee_os/lib/libutils/ext/snprintk.c:383
    6444:	aa0103e0 	mov	x0, x1
    6448:	91002c00 	add	x0, x0, #0xb
    644c:	927df000 	and	x0, x0, #0xfffffffffffffff8
    6450:	f9000260 	str	x0, [x19]
    6454:	aa0103e0 	mov	x0, x1
    6458:	1400000f 	b	6494 <kprintf+0x790>
    645c:	11002002 	add	w2, w0, #0x8
    6460:	b9001a62 	str	w2, [x19,#24]
    6464:	b9401a62 	ldr	w2, [x19,#24]
    6468:	7100005f 	cmp	w2, #0x0
    646c:	540000ed 	b.le	6488 <kprintf+0x784>
    6470:	aa0103e0 	mov	x0, x1
    6474:	91002c00 	add	x0, x0, #0xb
    6478:	927df000 	and	x0, x0, #0xfffffffffffffff8
    647c:	f9000260 	str	x0, [x19]
    6480:	aa0103e0 	mov	x0, x1
    6484:	14000004 	b	6494 <kprintf+0x790>
    6488:	f9400661 	ldr	x1, [x19,#8]
    648c:	93407c00 	sxtw	x0, w0
    6490:	8b000020 	add	x0, x1, x0
    6494:	b9400000 	ldr	w0, [x0]
    6498:	13003c00 	sxth	w0, w0
    649c:	93403c00 	sxth	x0, w0
    64a0:	1400001b 	b	650c <kprintf+0x808>
/home/rex/devel/optee/optee_os/lib/libutils/ext/snprintk.c:383 (discriminator 17)
    64a4:	b9401a60 	ldr	w0, [x19,#24]
    64a8:	f9400261 	ldr	x1, [x19]
    64ac:	7100001f 	cmp	w0, #0x0
    64b0:	540000eb 	b.lt	64cc <kprintf+0x7c8>
/home/rex/devel/optee/optee_os/lib/libutils/ext/snprintk.c:383
    64b4:	aa0103e0 	mov	x0, x1
    64b8:	91002c00 	add	x0, x0, #0xb
    64bc:	927df000 	and	x0, x0, #0xfffffffffffffff8
    64c0:	f9000260 	str	x0, [x19]
    64c4:	aa0103e0 	mov	x0, x1
    64c8:	1400000f 	b	6504 <kprintf+0x800>
    64cc:	11002002 	add	w2, w0, #0x8
    64d0:	b9001a62 	str	w2, [x19,#24]
    64d4:	b9401a62 	ldr	w2, [x19,#24]
    64d8:	7100005f 	cmp	w2, #0x0
    64dc:	540000ed 	b.le	64f8 <kprintf+0x7f4>
    64e0:	aa0103e0 	mov	x0, x1
    64e4:	91002c00 	add	x0, x0, #0xb
    64e8:	927df000 	and	x0, x0, #0xfffffffffffffff8
    64ec:	f9000260 	str	x0, [x19]
    64f0:	aa0103e0 	mov	x0, x1
    64f4:	14000004 	b	6504 <kprintf+0x800>
    64f8:	f9400661 	ldr	x1, [x19,#8]
    64fc:	93407c00 	sxtw	x0, w0
    6500:	8b000020 	add	x0, x1, x0
    6504:	b9400000 	ldr	w0, [x0]
    6508:	93407c00 	sxtw	x0, w0
/home/rex/devel/optee/optee_os/lib/libutils/ext/snprintk.c:383 (discriminator 24)
    650c:	f9004fa0 	str	x0, [x29,#152]
/home/rex/devel/optee/optee_os/lib/libutils/ext/snprintk.c:384 (discriminator 24)
    6510:	f9404fa0 	ldr	x0, [x29,#152]
    6514:	f100001f 	cmp	x0, #0x0
    6518:	540000ca 	b.ge	6530 <kprintf+0x82c>
/home/rex/devel/optee/optee_os/lib/libutils/ext/snprintk.c:385
    651c:	f9404fa0 	ldr	x0, [x29,#152]
    6520:	cb0003e0 	neg	x0, x0
    6524:	f9004fa0 	str	x0, [x29,#152]
/home/rex/devel/optee/optee_os/lib/libutils/ext/snprintk.c:386
    6528:	528005a0 	mov	w0, #0x2d                  	// #45
    652c:	39029fa0 	strb	w0, [x29,#167]
/home/rex/devel/optee/optee_os/lib/libutils/ext/snprintk.c:388
    6530:	52800020 	mov	w0, #0x1                   	// #1
    6534:	b90097a0 	str	w0, [x29,#148]
/home/rex/devel/optee/optee_os/lib/libutils/ext/snprintk.c:389
    6538:	14000405 	b	754c <kprintf+0x1848>
/home/rex/devel/optee/optee_os/lib/libutils/ext/snprintk.c:391
    653c:	b940b7a0 	ldr	w0, [x29,#180]
    6540:	12190000 	and	w0, w0, #0x80
    6544:	7100001f 	cmp	w0, #0x0
    6548:	540003a0 	b.eq	65bc <kprintf+0x8b8>
/home/rex/devel/optee/optee_os/lib/libutils/ext/snprintk.c:392
    654c:	b9401a60 	ldr	w0, [x19,#24]
    6550:	f9400261 	ldr	x1, [x19]
    6554:	7100001f 	cmp	w0, #0x0
    6558:	540000eb 	b.lt	6574 <kprintf+0x870>
    655c:	aa0103e0 	mov	x0, x1
    6560:	91003c00 	add	x0, x0, #0xf
    6564:	927df000 	and	x0, x0, #0xfffffffffffffff8
    6568:	f9000260 	str	x0, [x19]
    656c:	aa0103e0 	mov	x0, x1
    6570:	1400000f 	b	65ac <kprintf+0x8a8>
    6574:	11002002 	add	w2, w0, #0x8
    6578:	b9001a62 	str	w2, [x19,#24]
    657c:	b9401a62 	ldr	w2, [x19,#24]
    6580:	7100005f 	cmp	w2, #0x0
    6584:	540000ed 	b.le	65a0 <kprintf+0x89c>
    6588:	aa0103e0 	mov	x0, x1
    658c:	91003c00 	add	x0, x0, #0xf
    6590:	927df000 	and	x0, x0, #0xfffffffffffffff8
    6594:	f9000260 	str	x0, [x19]
    6598:	aa0103e0 	mov	x0, x1
    659c:	14000004 	b	65ac <kprintf+0x8a8>
    65a0:	f9400661 	ldr	x1, [x19,#8]
    65a4:	93407c00 	sxtw	x0, w0
    65a8:	8b000020 	add	x0, x1, x0
    65ac:	f9400000 	ldr	x0, [x0]
    65b0:	b980b3a1 	ldrsw	x1, [x29,#176]
    65b4:	f9000001 	str	x1, [x0]
/home/rex/devel/optee/optee_os/lib/libutils/ext/snprintk.c:405
    65b8:	14000566 	b	7b50 <kprintf+0x1e4c>
/home/rex/devel/optee/optee_os/lib/libutils/ext/snprintk.c:393
    65bc:	b940b7a0 	ldr	w0, [x29,#180]
    65c0:	12180000 	and	w0, w0, #0x100
    65c4:	7100001f 	cmp	w0, #0x0
    65c8:	540003a0 	b.eq	663c <kprintf+0x938>
/home/rex/devel/optee/optee_os/lib/libutils/ext/snprintk.c:394
    65cc:	b9401a60 	ldr	w0, [x19,#24]
    65d0:	f9400261 	ldr	x1, [x19]
    65d4:	7100001f 	cmp	w0, #0x0
    65d8:	540000eb 	b.lt	65f4 <kprintf+0x8f0>
    65dc:	aa0103e0 	mov	x0, x1
    65e0:	91003c00 	add	x0, x0, #0xf
    65e4:	927df000 	and	x0, x0, #0xfffffffffffffff8
    65e8:	f9000260 	str	x0, [x19]
    65ec:	aa0103e0 	mov	x0, x1
    65f0:	1400000f 	b	662c <kprintf+0x928>
    65f4:	11002002 	add	w2, w0, #0x8
    65f8:	b9001a62 	str	w2, [x19,#24]
    65fc:	b9401a62 	ldr	w2, [x19,#24]
    6600:	7100005f 	cmp	w2, #0x0
    6604:	540000ed 	b.le	6620 <kprintf+0x91c>
    6608:	aa0103e0 	mov	x0, x1
    660c:	91003c00 	add	x0, x0, #0xf
    6610:	927df000 	and	x0, x0, #0xfffffffffffffff8
    6614:	f9000260 	str	x0, [x19]
    6618:	aa0103e0 	mov	x0, x1
    661c:	14000004 	b	662c <kprintf+0x928>
    6620:	f9400661 	ldr	x1, [x19,#8]
    6624:	93407c00 	sxtw	x0, w0
    6628:	8b000020 	add	x0, x1, x0
    662c:	f9400000 	ldr	x0, [x0]
    6630:	b980b3a1 	ldrsw	x1, [x29,#176]
    6634:	f9000001 	str	x1, [x0]
/home/rex/devel/optee/optee_os/lib/libutils/ext/snprintk.c:405
    6638:	14000546 	b	7b50 <kprintf+0x1e4c>
/home/rex/devel/optee/optee_os/lib/libutils/ext/snprintk.c:395
    663c:	b940b7a0 	ldr	w0, [x29,#180]
    6640:	12170000 	and	w0, w0, #0x200
    6644:	7100001f 	cmp	w0, #0x0
    6648:	540003a0 	b.eq	66bc <kprintf+0x9b8>
/home/rex/devel/optee/optee_os/lib/libutils/ext/snprintk.c:396
    664c:	b9401a60 	ldr	w0, [x19,#24]
    6650:	f9400261 	ldr	x1, [x19]
    6654:	7100001f 	cmp	w0, #0x0
    6658:	540000eb 	b.lt	6674 <kprintf+0x970>
    665c:	aa0103e0 	mov	x0, x1
    6660:	91003c00 	add	x0, x0, #0xf
    6664:	927df000 	and	x0, x0, #0xfffffffffffffff8
    6668:	f9000260 	str	x0, [x19]
    666c:	aa0103e0 	mov	x0, x1
    6670:	1400000f 	b	66ac <kprintf+0x9a8>
    6674:	11002002 	add	w2, w0, #0x8
    6678:	b9001a62 	str	w2, [x19,#24]
    667c:	b9401a62 	ldr	w2, [x19,#24]
    6680:	7100005f 	cmp	w2, #0x0
    6684:	540000ed 	b.le	66a0 <kprintf+0x99c>
    6688:	aa0103e0 	mov	x0, x1
    668c:	91003c00 	add	x0, x0, #0xf
    6690:	927df000 	and	x0, x0, #0xfffffffffffffff8
    6694:	f9000260 	str	x0, [x19]
    6698:	aa0103e0 	mov	x0, x1
    669c:	14000004 	b	66ac <kprintf+0x9a8>
    66a0:	f9400661 	ldr	x1, [x19,#8]
    66a4:	93407c00 	sxtw	x0, w0
    66a8:	8b000020 	add	x0, x1, x0
    66ac:	f9400000 	ldr	x0, [x0]
    66b0:	b980b3a1 	ldrsw	x1, [x29,#176]
    66b4:	f9000001 	str	x1, [x0]
/home/rex/devel/optee/optee_os/lib/libutils/ext/snprintk.c:405
    66b8:	14000526 	b	7b50 <kprintf+0x1e4c>
/home/rex/devel/optee/optee_os/lib/libutils/ext/snprintk.c:397
    66bc:	b940b7a0 	ldr	w0, [x29,#180]
    66c0:	121b0000 	and	w0, w0, #0x20
    66c4:	7100001f 	cmp	w0, #0x0
    66c8:	540003a0 	b.eq	673c <kprintf+0xa38>
/home/rex/devel/optee/optee_os/lib/libutils/ext/snprintk.c:398
    66cc:	b9401a60 	ldr	w0, [x19,#24]
    66d0:	f9400261 	ldr	x1, [x19]
    66d4:	7100001f 	cmp	w0, #0x0
    66d8:	540000eb 	b.lt	66f4 <kprintf+0x9f0>
    66dc:	aa0103e0 	mov	x0, x1
    66e0:	91003c00 	add	x0, x0, #0xf
    66e4:	927df000 	and	x0, x0, #0xfffffffffffffff8
    66e8:	f9000260 	str	x0, [x19]
    66ec:	aa0103e0 	mov	x0, x1
    66f0:	1400000f 	b	672c <kprintf+0xa28>
    66f4:	11002002 	add	w2, w0, #0x8
    66f8:	b9001a62 	str	w2, [x19,#24]
    66fc:	b9401a62 	ldr	w2, [x19,#24]
    6700:	7100005f 	cmp	w2, #0x0
    6704:	540000ed 	b.le	6720 <kprintf+0xa1c>
    6708:	aa0103e0 	mov	x0, x1
    670c:	91003c00 	add	x0, x0, #0xf
    6710:	927df000 	and	x0, x0, #0xfffffffffffffff8
    6714:	f9000260 	str	x0, [x19]
    6718:	aa0103e0 	mov	x0, x1
    671c:	14000004 	b	672c <kprintf+0xa28>
    6720:	f9400661 	ldr	x1, [x19,#8]
    6724:	93407c00 	sxtw	x0, w0
    6728:	8b000020 	add	x0, x1, x0
    672c:	f9400000 	ldr	x0, [x0]
    6730:	b980b3a1 	ldrsw	x1, [x29,#176]
    6734:	f9000001 	str	x1, [x0]
/home/rex/devel/optee/optee_os/lib/libutils/ext/snprintk.c:405
    6738:	14000506 	b	7b50 <kprintf+0x1e4c>
/home/rex/devel/optee/optee_os/lib/libutils/ext/snprintk.c:399
    673c:	b940b7a0 	ldr	w0, [x29,#180]
    6740:	121c0000 	and	w0, w0, #0x10
    6744:	7100001f 	cmp	w0, #0x0
    6748:	540003a0 	b.eq	67bc <kprintf+0xab8>
/home/rex/devel/optee/optee_os/lib/libutils/ext/snprintk.c:400
    674c:	b9401a60 	ldr	w0, [x19,#24]
    6750:	f9400261 	ldr	x1, [x19]
    6754:	7100001f 	cmp	w0, #0x0
    6758:	540000eb 	b.lt	6774 <kprintf+0xa70>
    675c:	aa0103e0 	mov	x0, x1
    6760:	91003c00 	add	x0, x0, #0xf
    6764:	927df000 	and	x0, x0, #0xfffffffffffffff8
    6768:	f9000260 	str	x0, [x19]
    676c:	aa0103e0 	mov	x0, x1
    6770:	1400000f 	b	67ac <kprintf+0xaa8>
    6774:	11002002 	add	w2, w0, #0x8
    6778:	b9001a62 	str	w2, [x19,#24]
    677c:	b9401a62 	ldr	w2, [x19,#24]
    6780:	7100005f 	cmp	w2, #0x0
    6784:	540000ed 	b.le	67a0 <kprintf+0xa9c>
    6788:	aa0103e0 	mov	x0, x1
    678c:	91003c00 	add	x0, x0, #0xf
    6790:	927df000 	and	x0, x0, #0xfffffffffffffff8
    6794:	f9000260 	str	x0, [x19]
    6798:	aa0103e0 	mov	x0, x1
    679c:	14000004 	b	67ac <kprintf+0xaa8>
    67a0:	f9400661 	ldr	x1, [x19,#8]
    67a4:	93407c00 	sxtw	x0, w0
    67a8:	8b000020 	add	x0, x1, x0
    67ac:	f9400000 	ldr	x0, [x0]
    67b0:	b980b3a1 	ldrsw	x1, [x29,#176]
    67b4:	f9000001 	str	x1, [x0]
/home/rex/devel/optee/optee_os/lib/libutils/ext/snprintk.c:405
    67b8:	140004e6 	b	7b50 <kprintf+0x1e4c>
/home/rex/devel/optee/optee_os/lib/libutils/ext/snprintk.c:401
    67bc:	b940b7a0 	ldr	w0, [x29,#180]
    67c0:	121a0000 	and	w0, w0, #0x40
    67c4:	7100001f 	cmp	w0, #0x0
    67c8:	540003c0 	b.eq	6840 <kprintf+0xb3c>
/home/rex/devel/optee/optee_os/lib/libutils/ext/snprintk.c:402
    67cc:	b9401a60 	ldr	w0, [x19,#24]
    67d0:	f9400261 	ldr	x1, [x19]
    67d4:	7100001f 	cmp	w0, #0x0
    67d8:	540000eb 	b.lt	67f4 <kprintf+0xaf0>
    67dc:	aa0103e0 	mov	x0, x1
    67e0:	91003c00 	add	x0, x0, #0xf
    67e4:	927df000 	and	x0, x0, #0xfffffffffffffff8
    67e8:	f9000260 	str	x0, [x19]
    67ec:	aa0103e0 	mov	x0, x1
    67f0:	1400000f 	b	682c <kprintf+0xb28>
    67f4:	11002002 	add	w2, w0, #0x8
    67f8:	b9001a62 	str	w2, [x19,#24]
    67fc:	b9401a62 	ldr	w2, [x19,#24]
    6800:	7100005f 	cmp	w2, #0x0
    6804:	540000ed 	b.le	6820 <kprintf+0xb1c>
    6808:	aa0103e0 	mov	x0, x1
    680c:	91003c00 	add	x0, x0, #0xf
    6810:	927df000 	and	x0, x0, #0xfffffffffffffff8
    6814:	f9000260 	str	x0, [x19]
    6818:	aa0103e0 	mov	x0, x1
    681c:	14000004 	b	682c <kprintf+0xb28>
    6820:	f9400661 	ldr	x1, [x19,#8]
    6824:	93407c00 	sxtw	x0, w0
    6828:	8b000020 	add	x0, x1, x0
    682c:	f9400000 	ldr	x0, [x0]
    6830:	b940b3a1 	ldr	w1, [x29,#176]
    6834:	13003c21 	sxth	w1, w1
    6838:	79000001 	strh	w1, [x0]
/home/rex/devel/optee/optee_os/lib/libutils/ext/snprintk.c:405
    683c:	140004c5 	b	7b50 <kprintf+0x1e4c>
/home/rex/devel/optee/optee_os/lib/libutils/ext/snprintk.c:404
    6840:	b9401a60 	ldr	w0, [x19,#24]
    6844:	f9400261 	ldr	x1, [x19]
    6848:	7100001f 	cmp	w0, #0x0
    684c:	540000eb 	b.lt	6868 <kprintf+0xb64>
    6850:	aa0103e0 	mov	x0, x1
    6854:	91003c00 	add	x0, x0, #0xf
    6858:	927df000 	and	x0, x0, #0xfffffffffffffff8
    685c:	f9000260 	str	x0, [x19]
    6860:	aa0103e0 	mov	x0, x1
    6864:	1400000f 	b	68a0 <kprintf+0xb9c>
    6868:	11002002 	add	w2, w0, #0x8
    686c:	b9001a62 	str	w2, [x19,#24]
    6870:	b9401a62 	ldr	w2, [x19,#24]
    6874:	7100005f 	cmp	w2, #0x0
    6878:	540000ed 	b.le	6894 <kprintf+0xb90>
    687c:	aa0103e0 	mov	x0, x1
    6880:	91003c00 	add	x0, x0, #0xf
    6884:	927df000 	and	x0, x0, #0xfffffffffffffff8
    6888:	f9000260 	str	x0, [x19]
    688c:	aa0103e0 	mov	x0, x1
    6890:	14000004 	b	68a0 <kprintf+0xb9c>
    6894:	f9400661 	ldr	x1, [x19,#8]
    6898:	93407c00 	sxtw	x0, w0
    689c:	8b000020 	add	x0, x1, x0
    68a0:	f9400000 	ldr	x0, [x0]
    68a4:	b940b3a1 	ldr	w1, [x29,#176]
    68a8:	b9000001 	str	w1, [x0]
/home/rex/devel/optee/optee_os/lib/libutils/ext/snprintk.c:405
    68ac:	140004a9 	b	7b50 <kprintf+0x1e4c>
/home/rex/devel/optee/optee_os/lib/libutils/ext/snprintk.c:407
    68b0:	b940b7a0 	ldr	w0, [x29,#180]
    68b4:	321c0000 	orr	w0, w0, #0x10
    68b8:	b900b7a0 	str	w0, [x29,#180]
/home/rex/devel/optee/optee_os/lib/libutils/ext/snprintk.c:410
    68bc:	b940b7a0 	ldr	w0, [x29,#180]
    68c0:	12190000 	and	w0, w0, #0x80
    68c4:	7100001f 	cmp	w0, #0x0
    68c8:	54000360 	b.eq	6934 <kprintf+0xc30>
/home/rex/devel/optee/optee_os/lib/libutils/ext/snprintk.c:410 (discriminator 1)
    68cc:	b9401a60 	ldr	w0, [x19,#24]
    68d0:	f9400261 	ldr	x1, [x19]
    68d4:	7100001f 	cmp	w0, #0x0
    68d8:	540000eb 	b.lt	68f4 <kprintf+0xbf0>
/home/rex/devel/optee/optee_os/lib/libutils/ext/snprintk.c:410
    68dc:	aa0103e0 	mov	x0, x1
    68e0:	91003c00 	add	x0, x0, #0xf
    68e4:	927df000 	and	x0, x0, #0xfffffffffffffff8
    68e8:	f9000260 	str	x0, [x19]
    68ec:	aa0103e0 	mov	x0, x1
    68f0:	1400000f 	b	692c <kprintf+0xc28>
    68f4:	11002002 	add	w2, w0, #0x8
    68f8:	b9001a62 	str	w2, [x19,#24]
    68fc:	b9401a62 	ldr	w2, [x19,#24]
    6900:	7100005f 	cmp	w2, #0x0
    6904:	540000ed 	b.le	6920 <kprintf+0xc1c>
    6908:	aa0103e0 	mov	x0, x1
    690c:	91003c00 	add	x0, x0, #0xf
    6910:	927df000 	and	x0, x0, #0xfffffffffffffff8
    6914:	f9000260 	str	x0, [x19]
    6918:	aa0103e0 	mov	x0, x1
    691c:	14000004 	b	692c <kprintf+0xc28>
    6920:	f9400661 	ldr	x1, [x19,#8]
    6924:	93407c00 	sxtw	x0, w0
    6928:	8b000020 	add	x0, x1, x0
    692c:	f9400000 	ldr	x0, [x0]
    6930:	140000b3 	b	6bfc <kprintf+0xef8>
/home/rex/devel/optee/optee_os/lib/libutils/ext/snprintk.c:410 (discriminator 2)
    6934:	b940b7a0 	ldr	w0, [x29,#180]
    6938:	12180000 	and	w0, w0, #0x100
    693c:	7100001f 	cmp	w0, #0x0
    6940:	54000360 	b.eq	69ac <kprintf+0xca8>
/home/rex/devel/optee/optee_os/lib/libutils/ext/snprintk.c:410 (discriminator 4)
    6944:	b9401a60 	ldr	w0, [x19,#24]
    6948:	f9400261 	ldr	x1, [x19]
    694c:	7100001f 	cmp	w0, #0x0
    6950:	540000eb 	b.lt	696c <kprintf+0xc68>
/home/rex/devel/optee/optee_os/lib/libutils/ext/snprintk.c:410
    6954:	aa0103e0 	mov	x0, x1
    6958:	91003c00 	add	x0, x0, #0xf
    695c:	927df000 	and	x0, x0, #0xfffffffffffffff8
    6960:	f9000260 	str	x0, [x19]
    6964:	aa0103e0 	mov	x0, x1
    6968:	1400000f 	b	69a4 <kprintf+0xca0>
    696c:	11002002 	add	w2, w0, #0x8
    6970:	b9001a62 	str	w2, [x19,#24]
    6974:	b9401a62 	ldr	w2, [x19,#24]
    6978:	7100005f 	cmp	w2, #0x0
    697c:	540000ed 	b.le	6998 <kprintf+0xc94>
    6980:	aa0103e0 	mov	x0, x1
    6984:	91003c00 	add	x0, x0, #0xf
    6988:	927df000 	and	x0, x0, #0xfffffffffffffff8
    698c:	f9000260 	str	x0, [x19]
    6990:	aa0103e0 	mov	x0, x1
    6994:	14000004 	b	69a4 <kprintf+0xca0>
    6998:	f9400661 	ldr	x1, [x19,#8]
    699c:	93407c00 	sxtw	x0, w0
    69a0:	8b000020 	add	x0, x1, x0
    69a4:	f9400000 	ldr	x0, [x0]
    69a8:	14000095 	b	6bfc <kprintf+0xef8>
/home/rex/devel/optee/optee_os/lib/libutils/ext/snprintk.c:410 (discriminator 5)
    69ac:	b940b7a0 	ldr	w0, [x29,#180]
    69b0:	12170000 	and	w0, w0, #0x200
    69b4:	7100001f 	cmp	w0, #0x0
    69b8:	54000360 	b.eq	6a24 <kprintf+0xd20>
/home/rex/devel/optee/optee_os/lib/libutils/ext/snprintk.c:410 (discriminator 7)
    69bc:	b9401a60 	ldr	w0, [x19,#24]
    69c0:	f9400261 	ldr	x1, [x19]
    69c4:	7100001f 	cmp	w0, #0x0
    69c8:	540000eb 	b.lt	69e4 <kprintf+0xce0>
/home/rex/devel/optee/optee_os/lib/libutils/ext/snprintk.c:410
    69cc:	aa0103e0 	mov	x0, x1
    69d0:	91003c00 	add	x0, x0, #0xf
    69d4:	927df000 	and	x0, x0, #0xfffffffffffffff8
    69d8:	f9000260 	str	x0, [x19]
    69dc:	aa0103e0 	mov	x0, x1
    69e0:	1400000f 	b	6a1c <kprintf+0xd18>
    69e4:	11002002 	add	w2, w0, #0x8
    69e8:	b9001a62 	str	w2, [x19,#24]
    69ec:	b9401a62 	ldr	w2, [x19,#24]
    69f0:	7100005f 	cmp	w2, #0x0
    69f4:	540000ed 	b.le	6a10 <kprintf+0xd0c>
    69f8:	aa0103e0 	mov	x0, x1
    69fc:	91003c00 	add	x0, x0, #0xf
    6a00:	927df000 	and	x0, x0, #0xfffffffffffffff8
    6a04:	f9000260 	str	x0, [x19]
    6a08:	aa0103e0 	mov	x0, x1
    6a0c:	14000004 	b	6a1c <kprintf+0xd18>
    6a10:	f9400661 	ldr	x1, [x19,#8]
    6a14:	93407c00 	sxtw	x0, w0
    6a18:	8b000020 	add	x0, x1, x0
    6a1c:	f9400000 	ldr	x0, [x0]
    6a20:	14000077 	b	6bfc <kprintf+0xef8>
/home/rex/devel/optee/optee_os/lib/libutils/ext/snprintk.c:410 (discriminator 8)
    6a24:	b940b7a0 	ldr	w0, [x29,#180]
    6a28:	121b0000 	and	w0, w0, #0x20
    6a2c:	7100001f 	cmp	w0, #0x0
    6a30:	54000360 	b.eq	6a9c <kprintf+0xd98>
/home/rex/devel/optee/optee_os/lib/libutils/ext/snprintk.c:410 (discriminator 10)
    6a34:	b9401a60 	ldr	w0, [x19,#24]
    6a38:	f9400261 	ldr	x1, [x19]
    6a3c:	7100001f 	cmp	w0, #0x0
    6a40:	540000eb 	b.lt	6a5c <kprintf+0xd58>
/home/rex/devel/optee/optee_os/lib/libutils/ext/snprintk.c:410
    6a44:	aa0103e0 	mov	x0, x1
    6a48:	91003c00 	add	x0, x0, #0xf
    6a4c:	927df000 	and	x0, x0, #0xfffffffffffffff8
    6a50:	f9000260 	str	x0, [x19]
    6a54:	aa0103e0 	mov	x0, x1
    6a58:	1400000f 	b	6a94 <kprintf+0xd90>
    6a5c:	11002002 	add	w2, w0, #0x8
    6a60:	b9001a62 	str	w2, [x19,#24]
    6a64:	b9401a62 	ldr	w2, [x19,#24]
    6a68:	7100005f 	cmp	w2, #0x0
    6a6c:	540000ed 	b.le	6a88 <kprintf+0xd84>
    6a70:	aa0103e0 	mov	x0, x1
    6a74:	91003c00 	add	x0, x0, #0xf
    6a78:	927df000 	and	x0, x0, #0xfffffffffffffff8
    6a7c:	f9000260 	str	x0, [x19]
    6a80:	aa0103e0 	mov	x0, x1
    6a84:	14000004 	b	6a94 <kprintf+0xd90>
    6a88:	f9400661 	ldr	x1, [x19,#8]
    6a8c:	93407c00 	sxtw	x0, w0
    6a90:	8b000020 	add	x0, x1, x0
    6a94:	f9400000 	ldr	x0, [x0]
    6a98:	14000059 	b	6bfc <kprintf+0xef8>
/home/rex/devel/optee/optee_os/lib/libutils/ext/snprintk.c:410 (discriminator 11)
    6a9c:	b940b7a0 	ldr	w0, [x29,#180]
    6aa0:	121c0000 	and	w0, w0, #0x10
    6aa4:	7100001f 	cmp	w0, #0x0
    6aa8:	54000360 	b.eq	6b14 <kprintf+0xe10>
/home/rex/devel/optee/optee_os/lib/libutils/ext/snprintk.c:410 (discriminator 13)
    6aac:	b9401a60 	ldr	w0, [x19,#24]
    6ab0:	f9400261 	ldr	x1, [x19]
    6ab4:	7100001f 	cmp	w0, #0x0
    6ab8:	540000eb 	b.lt	6ad4 <kprintf+0xdd0>
/home/rex/devel/optee/optee_os/lib/libutils/ext/snprintk.c:410
    6abc:	aa0103e0 	mov	x0, x1
    6ac0:	91003c00 	add	x0, x0, #0xf
    6ac4:	927df000 	and	x0, x0, #0xfffffffffffffff8
    6ac8:	f9000260 	str	x0, [x19]
    6acc:	aa0103e0 	mov	x0, x1
    6ad0:	1400000f 	b	6b0c <kprintf+0xe08>
    6ad4:	11002002 	add	w2, w0, #0x8
    6ad8:	b9001a62 	str	w2, [x19,#24]
    6adc:	b9401a62 	ldr	w2, [x19,#24]
    6ae0:	7100005f 	cmp	w2, #0x0
    6ae4:	540000ed 	b.le	6b00 <kprintf+0xdfc>
    6ae8:	aa0103e0 	mov	x0, x1
    6aec:	91003c00 	add	x0, x0, #0xf
    6af0:	927df000 	and	x0, x0, #0xfffffffffffffff8
    6af4:	f9000260 	str	x0, [x19]
    6af8:	aa0103e0 	mov	x0, x1
    6afc:	14000004 	b	6b0c <kprintf+0xe08>
    6b00:	f9400661 	ldr	x1, [x19,#8]
    6b04:	93407c00 	sxtw	x0, w0
    6b08:	8b000020 	add	x0, x1, x0
    6b0c:	f9400000 	ldr	x0, [x0]
    6b10:	1400003b 	b	6bfc <kprintf+0xef8>
/home/rex/devel/optee/optee_os/lib/libutils/ext/snprintk.c:410 (discriminator 14)
    6b14:	b940b7a0 	ldr	w0, [x29,#180]
    6b18:	121a0000 	and	w0, w0, #0x40
    6b1c:	7100001f 	cmp	w0, #0x0
    6b20:	540003a0 	b.eq	6b94 <kprintf+0xe90>
/home/rex/devel/optee/optee_os/lib/libutils/ext/snprintk.c:410 (discriminator 16)
    6b24:	b9401a60 	ldr	w0, [x19,#24]
    6b28:	f9400261 	ldr	x1, [x19]
    6b2c:	7100001f 	cmp	w0, #0x0
    6b30:	540000eb 	b.lt	6b4c <kprintf+0xe48>
/home/rex/devel/optee/optee_os/lib/libutils/ext/snprintk.c:410
    6b34:	aa0103e0 	mov	x0, x1
    6b38:	91002c00 	add	x0, x0, #0xb
    6b3c:	927df000 	and	x0, x0, #0xfffffffffffffff8
    6b40:	f9000260 	str	x0, [x19]
    6b44:	aa0103e0 	mov	x0, x1
    6b48:	1400000f 	b	6b84 <kprintf+0xe80>
    6b4c:	11002002 	add	w2, w0, #0x8
    6b50:	b9001a62 	str	w2, [x19,#24]
    6b54:	b9401a62 	ldr	w2, [x19,#24]
    6b58:	7100005f 	cmp	w2, #0x0
    6b5c:	540000ed 	b.le	6b78 <kprintf+0xe74>
    6b60:	aa0103e0 	mov	x0, x1
    6b64:	91002c00 	add	x0, x0, #0xb
    6b68:	927df000 	and	x0, x0, #0xfffffffffffffff8
    6b6c:	f9000260 	str	x0, [x19]
    6b70:	aa0103e0 	mov	x0, x1
    6b74:	14000004 	b	6b84 <kprintf+0xe80>
    6b78:	f9400661 	ldr	x1, [x19,#8]
    6b7c:	93407c00 	sxtw	x0, w0
    6b80:	8b000020 	add	x0, x1, x0
    6b84:	b9400000 	ldr	w0, [x0]
    6b88:	12003c00 	and	w0, w0, #0xffff
    6b8c:	92403c00 	and	x0, x0, #0xffff
    6b90:	1400001b 	b	6bfc <kprintf+0xef8>
/home/rex/devel/optee/optee_os/lib/libutils/ext/snprintk.c:410 (discriminator 17)
    6b94:	b9401a60 	ldr	w0, [x19,#24]
    6b98:	f9400261 	ldr	x1, [x19]
    6b9c:	7100001f 	cmp	w0, #0x0
    6ba0:	540000eb 	b.lt	6bbc <kprintf+0xeb8>
/home/rex/devel/optee/optee_os/lib/libutils/ext/snprintk.c:410
    6ba4:	aa0103e0 	mov	x0, x1
    6ba8:	91002c00 	add	x0, x0, #0xb
    6bac:	927df000 	and	x0, x0, #0xfffffffffffffff8
    6bb0:	f9000260 	str	x0, [x19]
    6bb4:	aa0103e0 	mov	x0, x1
    6bb8:	1400000f 	b	6bf4 <kprintf+0xef0>
    6bbc:	11002002 	add	w2, w0, #0x8
    6bc0:	b9001a62 	str	w2, [x19,#24]
    6bc4:	b9401a62 	ldr	w2, [x19,#24]
    6bc8:	7100005f 	cmp	w2, #0x0
    6bcc:	540000ed 	b.le	6be8 <kprintf+0xee4>
    6bd0:	aa0103e0 	mov	x0, x1
    6bd4:	91002c00 	add	x0, x0, #0xb
    6bd8:	927df000 	and	x0, x0, #0xfffffffffffffff8
    6bdc:	f9000260 	str	x0, [x19]
    6be0:	aa0103e0 	mov	x0, x1
    6be4:	14000004 	b	6bf4 <kprintf+0xef0>
    6be8:	f9400661 	ldr	x1, [x19,#8]
    6bec:	93407c00 	sxtw	x0, w0
    6bf0:	8b000020 	add	x0, x1, x0
    6bf4:	b9400000 	ldr	w0, [x0]
    6bf8:	2a0003e0 	mov	w0, w0
/home/rex/devel/optee/optee_os/lib/libutils/ext/snprintk.c:410 (discriminator 24)
    6bfc:	f9004fa0 	str	x0, [x29,#152]
/home/rex/devel/optee/optee_os/lib/libutils/ext/snprintk.c:411 (discriminator 24)
    6c00:	b90097bf 	str	wzr, [x29,#148]
/home/rex/devel/optee/optee_os/lib/libutils/ext/snprintk.c:412 (discriminator 24)
    6c04:	14000251 	b	7548 <kprintf+0x1844>
/home/rex/devel/optee/optee_os/lib/libutils/ext/snprintk.c:414
    6c08:	3940cfa0 	ldrb	w0, [x29,#51]
    6c0c:	7100001f 	cmp	w0, #0x0
    6c10:	540005e0 	b.eq	6ccc <kprintf+0xfc8>
/home/rex/devel/optee/optee_os/lib/libutils/ext/snprintk.c:414 (discriminator 1)
    6c14:	f94067a0 	ldr	x0, [x29,#200]
    6c18:	39400000 	ldrb	w0, [x0]
    6c1c:	7101541f 	cmp	w0, #0x55
    6c20:	54000561 	b.ne	6ccc <kprintf+0xfc8>
/home/rex/devel/optee/optee_os/lib/libutils/ext/snprintk.c:414 (discriminator 2)
    6c24:	f94067a0 	ldr	x0, [x29,#200]
    6c28:	91000400 	add	x0, x0, #0x1
    6c2c:	39400000 	ldrb	w0, [x0]
    6c30:	7101b01f 	cmp	w0, #0x6c
    6c34:	540004c1 	b.ne	6ccc <kprintf+0xfc8>
/home/rex/devel/optee/optee_os/lib/libutils/ext/snprintk.c:419
    6c38:	f94067a0 	ldr	x0, [x29,#200]
    6c3c:	91000800 	add	x0, x0, #0x2
    6c40:	f90067a0 	str	x0, [x29,#200]
/home/rex/devel/optee/optee_os/lib/libutils/ext/snprintk.c:420
    6c44:	b9401a60 	ldr	w0, [x19,#24]
    6c48:	f9400261 	ldr	x1, [x19]
    6c4c:	7100001f 	cmp	w0, #0x0
    6c50:	540000eb 	b.lt	6c6c <kprintf+0xf68>
    6c54:	aa0103e0 	mov	x0, x1
    6c58:	91003c00 	add	x0, x0, #0xf
    6c5c:	927df000 	and	x0, x0, #0xfffffffffffffff8
    6c60:	f9000260 	str	x0, [x19]
    6c64:	aa0103e0 	mov	x0, x1
    6c68:	1400000f 	b	6ca4 <kprintf+0xfa0>
    6c6c:	11002002 	add	w2, w0, #0x8
    6c70:	b9001a62 	str	w2, [x19,#24]
    6c74:	b9401a62 	ldr	w2, [x19,#24]
    6c78:	7100005f 	cmp	w2, #0x0
    6c7c:	540000ed 	b.le	6c98 <kprintf+0xf94>
    6c80:	aa0103e0 	mov	x0, x1
    6c84:	91003c00 	add	x0, x0, #0xf
    6c88:	927df000 	and	x0, x0, #0xfffffffffffffff8
    6c8c:	f9000260 	str	x0, [x19]
    6c90:	aa0103e0 	mov	x0, x1
    6c94:	14000004 	b	6ca4 <kprintf+0xfa0>
    6c98:	f9400661 	ldr	x1, [x19,#8]
    6c9c:	93407c00 	sxtw	x0, w0
    6ca0:	8b000020 	add	x0, x1, x0
    6ca4:	f9400001 	ldr	x1, [x0]
    6ca8:	910123a0 	add	x0, x29, #0x48
    6cac:	aa0103e2 	mov	x2, x1
    6cb0:	d28004a1 	mov	x1, #0x25                  	// #37
    6cb4:	97fffbd8 	bl	5c14 <uuid2str>
    6cb8:	b9008ba0 	str	w0, [x29,#136]
/home/rex/devel/optee/optee_os/lib/libutils/ext/snprintk.c:422
    6cbc:	910123a0 	add	x0, x29, #0x48
    6cc0:	f9005fa0 	str	x0, [x29,#184]
/home/rex/devel/optee/optee_os/lib/libutils/ext/snprintk.c:423
    6cc4:	39029fbf 	strb	wzr, [x29,#167]
/home/rex/devel/optee/optee_os/lib/libutils/ext/snprintk.c:424
    6cc8:	140002ad 	b	777c <kprintf+0x1a78>
/home/rex/devel/optee/optee_os/lib/libutils/ext/snprintk.c:434
    6ccc:	b9401a60 	ldr	w0, [x19,#24]
    6cd0:	f9400261 	ldr	x1, [x19]
    6cd4:	7100001f 	cmp	w0, #0x0
    6cd8:	540000eb 	b.lt	6cf4 <kprintf+0xff0>
    6cdc:	aa0103e0 	mov	x0, x1
    6ce0:	91003c00 	add	x0, x0, #0xf
    6ce4:	927df000 	and	x0, x0, #0xfffffffffffffff8
    6ce8:	f9000260 	str	x0, [x19]
    6cec:	aa0103e0 	mov	x0, x1
    6cf0:	1400000f 	b	6d2c <kprintf+0x1028>
    6cf4:	11002002 	add	w2, w0, #0x8
    6cf8:	b9001a62 	str	w2, [x19,#24]
    6cfc:	b9401a62 	ldr	w2, [x19,#24]
    6d00:	7100005f 	cmp	w2, #0x0
    6d04:	540000ed 	b.le	6d20 <kprintf+0x101c>
    6d08:	aa0103e0 	mov	x0, x1
    6d0c:	91003c00 	add	x0, x0, #0xf
    6d10:	927df000 	and	x0, x0, #0xfffffffffffffff8
    6d14:	f9000260 	str	x0, [x19]
    6d18:	aa0103e0 	mov	x0, x1
    6d1c:	14000004 	b	6d2c <kprintf+0x1028>
    6d20:	f9400661 	ldr	x1, [x19,#8]
    6d24:	93407c00 	sxtw	x0, w0
    6d28:	8b000020 	add	x0, x1, x0
    6d2c:	f9400000 	ldr	x0, [x0]
    6d30:	f9004fa0 	str	x0, [x29,#152]
/home/rex/devel/optee/optee_os/lib/libutils/ext/snprintk.c:435
    6d34:	52800040 	mov	w0, #0x2                   	// #2
    6d38:	b90097a0 	str	w0, [x29,#148]
/home/rex/devel/optee/optee_os/lib/libutils/ext/snprintk.c:436
    6d3c:	b0000040 	adrp	x0, f000 <__func__.4113+0x18>
    6d40:	9120c000 	add	x0, x0, #0x830
    6d44:	f90043a0 	str	x0, [x29,#128]
/home/rex/devel/optee/optee_os/lib/libutils/ext/snprintk.c:437
    6d48:	b940b7a0 	ldr	w0, [x29,#180]
    6d4c:	321f0000 	orr	w0, w0, #0x2
    6d50:	b900b7a0 	str	w0, [x29,#180]
/home/rex/devel/optee/optee_os/lib/libutils/ext/snprintk.c:438
    6d54:	52800f00 	mov	w0, #0x78                  	// #120
    6d58:	b900c7a0 	str	w0, [x29,#196]
/home/rex/devel/optee/optee_os/lib/libutils/ext/snprintk.c:439
    6d5c:	140001fb 	b	7548 <kprintf+0x1844>
/home/rex/devel/optee/optee_os/lib/libutils/ext/snprintk.c:441
    6d60:	b9401a60 	ldr	w0, [x19,#24]
    6d64:	f9400261 	ldr	x1, [x19]
    6d68:	7100001f 	cmp	w0, #0x0
    6d6c:	540000eb 	b.lt	6d88 <kprintf+0x1084>
    6d70:	aa0103e0 	mov	x0, x1
    6d74:	91003c00 	add	x0, x0, #0xf
    6d78:	927df000 	and	x0, x0, #0xfffffffffffffff8
    6d7c:	f9000260 	str	x0, [x19]
    6d80:	aa0103e0 	mov	x0, x1
    6d84:	1400000f 	b	6dc0 <kprintf+0x10bc>
    6d88:	11002002 	add	w2, w0, #0x8
    6d8c:	b9001a62 	str	w2, [x19,#24]
    6d90:	b9401a62 	ldr	w2, [x19,#24]
    6d94:	7100005f 	cmp	w2, #0x0
    6d98:	540000ed 	b.le	6db4 <kprintf+0x10b0>
    6d9c:	aa0103e0 	mov	x0, x1
    6da0:	91003c00 	add	x0, x0, #0xf
    6da4:	927df000 	and	x0, x0, #0xfffffffffffffff8
    6da8:	f9000260 	str	x0, [x19]
    6dac:	aa0103e0 	mov	x0, x1
    6db0:	14000004 	b	6dc0 <kprintf+0x10bc>
    6db4:	f9400661 	ldr	x1, [x19,#8]
    6db8:	93407c00 	sxtw	x0, w0
    6dbc:	8b000020 	add	x0, x1, x0
    6dc0:	f9400000 	ldr	x0, [x0]
    6dc4:	f9005fa0 	str	x0, [x29,#184]
    6dc8:	f9405fa0 	ldr	x0, [x29,#184]
    6dcc:	f100001f 	cmp	x0, #0x0
    6dd0:	54000081 	b.ne	6de0 <kprintf+0x10dc>
/home/rex/devel/optee/optee_os/lib/libutils/ext/snprintk.c:443
    6dd4:	b0000040 	adrp	x0, f000 <__func__.4113+0x18>
    6dd8:	91226000 	add	x0, x0, #0x898
    6ddc:	f9005fa0 	str	x0, [x29,#184]
/home/rex/devel/optee/optee_os/lib/libutils/ext/snprintk.c:444
    6de0:	b940aba0 	ldr	w0, [x29,#168]
    6de4:	7100001f 	cmp	w0, #0x0
    6de8:	5400030b 	b.lt	6e48 <kprintf+0x1144>
/home/rex/devel/optee/optee_os/lib/libutils/ext/snprintk.c:450
    6dec:	b980aba0 	ldrsw	x0, [x29,#168]
    6df0:	aa0003e2 	mov	x2, x0
    6df4:	52800001 	mov	w1, #0x0                   	// #0
    6df8:	f9405fa0 	ldr	x0, [x29,#184]
    6dfc:	940004cd 	bl	8130 <memchr>
    6e00:	f9003ba0 	str	x0, [x29,#112]
/home/rex/devel/optee/optee_os/lib/libutils/ext/snprintk.c:452
    6e04:	f9403ba0 	ldr	x0, [x29,#112]
    6e08:	f100001f 	cmp	x0, #0x0
    6e0c:	54000180 	b.eq	6e3c <kprintf+0x1138>
/home/rex/devel/optee/optee_os/lib/libutils/ext/snprintk.c:453
    6e10:	f9403ba1 	ldr	x1, [x29,#112]
    6e14:	f9405fa0 	ldr	x0, [x29,#184]
    6e18:	cb000020 	sub	x0, x1, x0
    6e1c:	b9008ba0 	str	w0, [x29,#136]
/home/rex/devel/optee/optee_os/lib/libutils/ext/snprintk.c:454
    6e20:	b9408ba1 	ldr	w1, [x29,#136]
    6e24:	b940aba0 	ldr	w0, [x29,#168]
    6e28:	6b00003f 	cmp	w1, w0
    6e2c:	5400014d 	b.le	6e54 <kprintf+0x1150>
/home/rex/devel/optee/optee_os/lib/libutils/ext/snprintk.c:455
    6e30:	b940aba0 	ldr	w0, [x29,#168]
    6e34:	b9008ba0 	str	w0, [x29,#136]
    6e38:	14000007 	b	6e54 <kprintf+0x1150>
/home/rex/devel/optee/optee_os/lib/libutils/ext/snprintk.c:457
    6e3c:	b940aba0 	ldr	w0, [x29,#168]
    6e40:	b9008ba0 	str	w0, [x29,#136]
    6e44:	14000004 	b	6e54 <kprintf+0x1150>
/home/rex/devel/optee/optee_os/lib/libutils/ext/snprintk.c:459
    6e48:	f9405fa0 	ldr	x0, [x29,#184]
    6e4c:	97fffac0 	bl	594c <strlen>
    6e50:	b9008ba0 	str	w0, [x29,#136]
/home/rex/devel/optee/optee_os/lib/libutils/ext/snprintk.c:460
    6e54:	39029fbf 	strb	wzr, [x29,#167]
/home/rex/devel/optee/optee_os/lib/libutils/ext/snprintk.c:461
    6e58:	14000249 	b	777c <kprintf+0x1a78>
/home/rex/devel/optee/optee_os/lib/libutils/ext/snprintk.c:463
    6e5c:	b940b7a0 	ldr	w0, [x29,#180]
    6e60:	321c0000 	orr	w0, w0, #0x10
    6e64:	b900b7a0 	str	w0, [x29,#180]
/home/rex/devel/optee/optee_os/lib/libutils/ext/snprintk.c:466
    6e68:	b940b7a0 	ldr	w0, [x29,#180]
    6e6c:	12190000 	and	w0, w0, #0x80
    6e70:	7100001f 	cmp	w0, #0x0
    6e74:	54000360 	b.eq	6ee0 <kprintf+0x11dc>
/home/rex/devel/optee/optee_os/lib/libutils/ext/snprintk.c:466 (discriminator 1)
    6e78:	b9401a60 	ldr	w0, [x19,#24]
    6e7c:	f9400261 	ldr	x1, [x19]
    6e80:	7100001f 	cmp	w0, #0x0
    6e84:	540000eb 	b.lt	6ea0 <kprintf+0x119c>
/home/rex/devel/optee/optee_os/lib/libutils/ext/snprintk.c:466
    6e88:	aa0103e0 	mov	x0, x1
    6e8c:	91003c00 	add	x0, x0, #0xf
    6e90:	927df000 	and	x0, x0, #0xfffffffffffffff8
    6e94:	f9000260 	str	x0, [x19]
    6e98:	aa0103e0 	mov	x0, x1
    6e9c:	1400000f 	b	6ed8 <kprintf+0x11d4>
    6ea0:	11002002 	add	w2, w0, #0x8
    6ea4:	b9001a62 	str	w2, [x19,#24]
    6ea8:	b9401a62 	ldr	w2, [x19,#24]
    6eac:	7100005f 	cmp	w2, #0x0
    6eb0:	540000ed 	b.le	6ecc <kprintf+0x11c8>
    6eb4:	aa0103e0 	mov	x0, x1
    6eb8:	91003c00 	add	x0, x0, #0xf
    6ebc:	927df000 	and	x0, x0, #0xfffffffffffffff8
    6ec0:	f9000260 	str	x0, [x19]
    6ec4:	aa0103e0 	mov	x0, x1
    6ec8:	14000004 	b	6ed8 <kprintf+0x11d4>
    6ecc:	f9400661 	ldr	x1, [x19,#8]
    6ed0:	93407c00 	sxtw	x0, w0
    6ed4:	8b000020 	add	x0, x1, x0
    6ed8:	f9400000 	ldr	x0, [x0]
    6edc:	140000b3 	b	71a8 <kprintf+0x14a4>
/home/rex/devel/optee/optee_os/lib/libutils/ext/snprintk.c:466 (discriminator 2)
    6ee0:	b940b7a0 	ldr	w0, [x29,#180]
    6ee4:	12180000 	and	w0, w0, #0x100
    6ee8:	7100001f 	cmp	w0, #0x0
    6eec:	54000360 	b.eq	6f58 <kprintf+0x1254>
/home/rex/devel/optee/optee_os/lib/libutils/ext/snprintk.c:466 (discriminator 4)
    6ef0:	b9401a60 	ldr	w0, [x19,#24]
    6ef4:	f9400261 	ldr	x1, [x19]
    6ef8:	7100001f 	cmp	w0, #0x0
    6efc:	540000eb 	b.lt	6f18 <kprintf+0x1214>
/home/rex/devel/optee/optee_os/lib/libutils/ext/snprintk.c:466
    6f00:	aa0103e0 	mov	x0, x1
    6f04:	91003c00 	add	x0, x0, #0xf
    6f08:	927df000 	and	x0, x0, #0xfffffffffffffff8
    6f0c:	f9000260 	str	x0, [x19]
    6f10:	aa0103e0 	mov	x0, x1
    6f14:	1400000f 	b	6f50 <kprintf+0x124c>
    6f18:	11002002 	add	w2, w0, #0x8
    6f1c:	b9001a62 	str	w2, [x19,#24]
    6f20:	b9401a62 	ldr	w2, [x19,#24]
    6f24:	7100005f 	cmp	w2, #0x0
    6f28:	540000ed 	b.le	6f44 <kprintf+0x1240>
    6f2c:	aa0103e0 	mov	x0, x1
    6f30:	91003c00 	add	x0, x0, #0xf
    6f34:	927df000 	and	x0, x0, #0xfffffffffffffff8
    6f38:	f9000260 	str	x0, [x19]
    6f3c:	aa0103e0 	mov	x0, x1
    6f40:	14000004 	b	6f50 <kprintf+0x124c>
    6f44:	f9400661 	ldr	x1, [x19,#8]
    6f48:	93407c00 	sxtw	x0, w0
    6f4c:	8b000020 	add	x0, x1, x0
    6f50:	f9400000 	ldr	x0, [x0]
    6f54:	14000095 	b	71a8 <kprintf+0x14a4>
/home/rex/devel/optee/optee_os/lib/libutils/ext/snprintk.c:466 (discriminator 5)
    6f58:	b940b7a0 	ldr	w0, [x29,#180]
    6f5c:	12170000 	and	w0, w0, #0x200
    6f60:	7100001f 	cmp	w0, #0x0
    6f64:	54000360 	b.eq	6fd0 <kprintf+0x12cc>
/home/rex/devel/optee/optee_os/lib/libutils/ext/snprintk.c:466 (discriminator 7)
    6f68:	b9401a60 	ldr	w0, [x19,#24]
    6f6c:	f9400261 	ldr	x1, [x19]
    6f70:	7100001f 	cmp	w0, #0x0
    6f74:	540000eb 	b.lt	6f90 <kprintf+0x128c>
/home/rex/devel/optee/optee_os/lib/libutils/ext/snprintk.c:466
    6f78:	aa0103e0 	mov	x0, x1
    6f7c:	91003c00 	add	x0, x0, #0xf
    6f80:	927df000 	and	x0, x0, #0xfffffffffffffff8
    6f84:	f9000260 	str	x0, [x19]
    6f88:	aa0103e0 	mov	x0, x1
    6f8c:	1400000f 	b	6fc8 <kprintf+0x12c4>
    6f90:	11002002 	add	w2, w0, #0x8
    6f94:	b9001a62 	str	w2, [x19,#24]
    6f98:	b9401a62 	ldr	w2, [x19,#24]
    6f9c:	7100005f 	cmp	w2, #0x0
    6fa0:	540000ed 	b.le	6fbc <kprintf+0x12b8>
    6fa4:	aa0103e0 	mov	x0, x1
    6fa8:	91003c00 	add	x0, x0, #0xf
    6fac:	927df000 	and	x0, x0, #0xfffffffffffffff8
    6fb0:	f9000260 	str	x0, [x19]
    6fb4:	aa0103e0 	mov	x0, x1
    6fb8:	14000004 	b	6fc8 <kprintf+0x12c4>
    6fbc:	f9400661 	ldr	x1, [x19,#8]
    6fc0:	93407c00 	sxtw	x0, w0
    6fc4:	8b000020 	add	x0, x1, x0
    6fc8:	f9400000 	ldr	x0, [x0]
    6fcc:	14000077 	b	71a8 <kprintf+0x14a4>
/home/rex/devel/optee/optee_os/lib/libutils/ext/snprintk.c:466 (discriminator 8)
    6fd0:	b940b7a0 	ldr	w0, [x29,#180]
    6fd4:	121b0000 	and	w0, w0, #0x20
    6fd8:	7100001f 	cmp	w0, #0x0
    6fdc:	54000360 	b.eq	7048 <kprintf+0x1344>
/home/rex/devel/optee/optee_os/lib/libutils/ext/snprintk.c:466 (discriminator 10)
    6fe0:	b9401a60 	ldr	w0, [x19,#24]
    6fe4:	f9400261 	ldr	x1, [x19]
    6fe8:	7100001f 	cmp	w0, #0x0
    6fec:	540000eb 	b.lt	7008 <kprintf+0x1304>
/home/rex/devel/optee/optee_os/lib/libutils/ext/snprintk.c:466
    6ff0:	aa0103e0 	mov	x0, x1
    6ff4:	91003c00 	add	x0, x0, #0xf
    6ff8:	927df000 	and	x0, x0, #0xfffffffffffffff8
    6ffc:	f9000260 	str	x0, [x19]
    7000:	aa0103e0 	mov	x0, x1
    7004:	1400000f 	b	7040 <kprintf+0x133c>
    7008:	11002002 	add	w2, w0, #0x8
    700c:	b9001a62 	str	w2, [x19,#24]
    7010:	b9401a62 	ldr	w2, [x19,#24]
    7014:	7100005f 	cmp	w2, #0x0
    7018:	540000ed 	b.le	7034 <kprintf+0x1330>
    701c:	aa0103e0 	mov	x0, x1
    7020:	91003c00 	add	x0, x0, #0xf
    7024:	927df000 	and	x0, x0, #0xfffffffffffffff8
    7028:	f9000260 	str	x0, [x19]
    702c:	aa0103e0 	mov	x0, x1
    7030:	14000004 	b	7040 <kprintf+0x133c>
    7034:	f9400661 	ldr	x1, [x19,#8]
    7038:	93407c00 	sxtw	x0, w0
    703c:	8b000020 	add	x0, x1, x0
    7040:	f9400000 	ldr	x0, [x0]
    7044:	14000059 	b	71a8 <kprintf+0x14a4>
/home/rex/devel/optee/optee_os/lib/libutils/ext/snprintk.c:466 (discriminator 11)
    7048:	b940b7a0 	ldr	w0, [x29,#180]
    704c:	121c0000 	and	w0, w0, #0x10
    7050:	7100001f 	cmp	w0, #0x0
    7054:	54000360 	b.eq	70c0 <kprintf+0x13bc>
/home/rex/devel/optee/optee_os/lib/libutils/ext/snprintk.c:466 (discriminator 13)
    7058:	b9401a60 	ldr	w0, [x19,#24]
    705c:	f9400261 	ldr	x1, [x19]
    7060:	7100001f 	cmp	w0, #0x0
    7064:	540000eb 	b.lt	7080 <kprintf+0x137c>
/home/rex/devel/optee/optee_os/lib/libutils/ext/snprintk.c:466
    7068:	aa0103e0 	mov	x0, x1
    706c:	91003c00 	add	x0, x0, #0xf
    7070:	927df000 	and	x0, x0, #0xfffffffffffffff8
    7074:	f9000260 	str	x0, [x19]
    7078:	aa0103e0 	mov	x0, x1
    707c:	1400000f 	b	70b8 <kprintf+0x13b4>
    7080:	11002002 	add	w2, w0, #0x8
    7084:	b9001a62 	str	w2, [x19,#24]
    7088:	b9401a62 	ldr	w2, [x19,#24]
    708c:	7100005f 	cmp	w2, #0x0
    7090:	540000ed 	b.le	70ac <kprintf+0x13a8>
    7094:	aa0103e0 	mov	x0, x1
    7098:	91003c00 	add	x0, x0, #0xf
    709c:	927df000 	and	x0, x0, #0xfffffffffffffff8
    70a0:	f9000260 	str	x0, [x19]
    70a4:	aa0103e0 	mov	x0, x1
    70a8:	14000004 	b	70b8 <kprintf+0x13b4>
    70ac:	f9400661 	ldr	x1, [x19,#8]
    70b0:	93407c00 	sxtw	x0, w0
    70b4:	8b000020 	add	x0, x1, x0
    70b8:	f9400000 	ldr	x0, [x0]
    70bc:	1400003b 	b	71a8 <kprintf+0x14a4>
/home/rex/devel/optee/optee_os/lib/libutils/ext/snprintk.c:466 (discriminator 14)
    70c0:	b940b7a0 	ldr	w0, [x29,#180]
    70c4:	121a0000 	and	w0, w0, #0x40
    70c8:	7100001f 	cmp	w0, #0x0
    70cc:	540003a0 	b.eq	7140 <kprintf+0x143c>
/home/rex/devel/optee/optee_os/lib/libutils/ext/snprintk.c:466 (discriminator 16)
    70d0:	b9401a60 	ldr	w0, [x19,#24]
    70d4:	f9400261 	ldr	x1, [x19]
    70d8:	7100001f 	cmp	w0, #0x0
    70dc:	540000eb 	b.lt	70f8 <kprintf+0x13f4>
/home/rex/devel/optee/optee_os/lib/libutils/ext/snprintk.c:466
    70e0:	aa0103e0 	mov	x0, x1
    70e4:	91002c00 	add	x0, x0, #0xb
    70e8:	927df000 	and	x0, x0, #0xfffffffffffffff8
    70ec:	f9000260 	str	x0, [x19]
    70f0:	aa0103e0 	mov	x0, x1
    70f4:	1400000f 	b	7130 <kprintf+0x142c>
    70f8:	11002002 	add	w2, w0, #0x8
    70fc:	b9001a62 	str	w2, [x19,#24]
    7100:	b9401a62 	ldr	w2, [x19,#24]
    7104:	7100005f 	cmp	w2, #0x0
    7108:	540000ed 	b.le	7124 <kprintf+0x1420>
    710c:	aa0103e0 	mov	x0, x1
    7110:	91002c00 	add	x0, x0, #0xb
    7114:	927df000 	and	x0, x0, #0xfffffffffffffff8
    7118:	f9000260 	str	x0, [x19]
    711c:	aa0103e0 	mov	x0, x1
    7120:	14000004 	b	7130 <kprintf+0x142c>
    7124:	f9400661 	ldr	x1, [x19,#8]
    7128:	93407c00 	sxtw	x0, w0
    712c:	8b000020 	add	x0, x1, x0
    7130:	b9400000 	ldr	w0, [x0]
    7134:	12003c00 	and	w0, w0, #0xffff
    7138:	92403c00 	and	x0, x0, #0xffff
    713c:	1400001b 	b	71a8 <kprintf+0x14a4>
/home/rex/devel/optee/optee_os/lib/libutils/ext/snprintk.c:466 (discriminator 17)
    7140:	b9401a60 	ldr	w0, [x19,#24]
    7144:	f9400261 	ldr	x1, [x19]
    7148:	7100001f 	cmp	w0, #0x0
    714c:	540000eb 	b.lt	7168 <kprintf+0x1464>
/home/rex/devel/optee/optee_os/lib/libutils/ext/snprintk.c:466
    7150:	aa0103e0 	mov	x0, x1
    7154:	91002c00 	add	x0, x0, #0xb
    7158:	927df000 	and	x0, x0, #0xfffffffffffffff8
    715c:	f9000260 	str	x0, [x19]
    7160:	aa0103e0 	mov	x0, x1
    7164:	1400000f 	b	71a0 <kprintf+0x149c>
    7168:	11002002 	add	w2, w0, #0x8
    716c:	b9001a62 	str	w2, [x19,#24]
    7170:	b9401a62 	ldr	w2, [x19,#24]
    7174:	7100005f 	cmp	w2, #0x0
    7178:	540000ed 	b.le	7194 <kprintf+0x1490>
    717c:	aa0103e0 	mov	x0, x1
    7180:	91002c00 	add	x0, x0, #0xb
    7184:	927df000 	and	x0, x0, #0xfffffffffffffff8
    7188:	f9000260 	str	x0, [x19]
    718c:	aa0103e0 	mov	x0, x1
    7190:	14000004 	b	71a0 <kprintf+0x149c>
    7194:	f9400661 	ldr	x1, [x19,#8]
    7198:	93407c00 	sxtw	x0, w0
    719c:	8b000020 	add	x0, x1, x0
    71a0:	b9400000 	ldr	w0, [x0]
    71a4:	2a0003e0 	mov	w0, w0
/home/rex/devel/optee/optee_os/lib/libutils/ext/snprintk.c:466 (discriminator 24)
    71a8:	f9004fa0 	str	x0, [x29,#152]
/home/rex/devel/optee/optee_os/lib/libutils/ext/snprintk.c:467 (discriminator 24)
    71ac:	52800020 	mov	w0, #0x1                   	// #1
    71b0:	b90097a0 	str	w0, [x29,#148]
/home/rex/devel/optee/optee_os/lib/libutils/ext/snprintk.c:468 (discriminator 24)
    71b4:	140000e5 	b	7548 <kprintf+0x1844>
/home/rex/devel/optee/optee_os/lib/libutils/ext/snprintk.c:470
    71b8:	90000040 	adrp	x0, f000 <__func__.4113+0x18>
    71bc:	91212000 	add	x0, x0, #0x848
    71c0:	f90043a0 	str	x0, [x29,#128]
/home/rex/devel/optee/optee_os/lib/libutils/ext/snprintk.c:471
    71c4:	14000004 	b	71d4 <kprintf+0x14d0>
/home/rex/devel/optee/optee_os/lib/libutils/ext/snprintk.c:473
    71c8:	90000040 	adrp	x0, f000 <__func__.4113+0x18>
    71cc:	9120c000 	add	x0, x0, #0x830
    71d0:	f90043a0 	str	x0, [x29,#128]
/home/rex/devel/optee/optee_os/lib/libutils/ext/snprintk.c:474
    71d4:	b940b7a0 	ldr	w0, [x29,#180]
    71d8:	12190000 	and	w0, w0, #0x80
    71dc:	7100001f 	cmp	w0, #0x0
    71e0:	54000360 	b.eq	724c <kprintf+0x1548>
/home/rex/devel/optee/optee_os/lib/libutils/ext/snprintk.c:474 (discriminator 1)
    71e4:	b9401a60 	ldr	w0, [x19,#24]
    71e8:	f9400261 	ldr	x1, [x19]
    71ec:	7100001f 	cmp	w0, #0x0
    71f0:	540000eb 	b.lt	720c <kprintf+0x1508>
/home/rex/devel/optee/optee_os/lib/libutils/ext/snprintk.c:474
    71f4:	aa0103e0 	mov	x0, x1
    71f8:	91003c00 	add	x0, x0, #0xf
    71fc:	927df000 	and	x0, x0, #0xfffffffffffffff8
    7200:	f9000260 	str	x0, [x19]
    7204:	aa0103e0 	mov	x0, x1
    7208:	1400000f 	b	7244 <kprintf+0x1540>
    720c:	11002002 	add	w2, w0, #0x8
    7210:	b9001a62 	str	w2, [x19,#24]
    7214:	b9401a62 	ldr	w2, [x19,#24]
    7218:	7100005f 	cmp	w2, #0x0
    721c:	540000ed 	b.le	7238 <kprintf+0x1534>
    7220:	aa0103e0 	mov	x0, x1
    7224:	91003c00 	add	x0, x0, #0xf
    7228:	927df000 	and	x0, x0, #0xfffffffffffffff8
    722c:	f9000260 	str	x0, [x19]
    7230:	aa0103e0 	mov	x0, x1
    7234:	14000004 	b	7244 <kprintf+0x1540>
    7238:	f9400661 	ldr	x1, [x19,#8]
    723c:	93407c00 	sxtw	x0, w0
    7240:	8b000020 	add	x0, x1, x0
    7244:	f9400000 	ldr	x0, [x0]
    7248:	140000b3 	b	7514 <kprintf+0x1810>
/home/rex/devel/optee/optee_os/lib/libutils/ext/snprintk.c:474 (discriminator 2)
    724c:	b940b7a0 	ldr	w0, [x29,#180]
    7250:	12180000 	and	w0, w0, #0x100
    7254:	7100001f 	cmp	w0, #0x0
    7258:	54000360 	b.eq	72c4 <kprintf+0x15c0>
/home/rex/devel/optee/optee_os/lib/libutils/ext/snprintk.c:474 (discriminator 4)
    725c:	b9401a60 	ldr	w0, [x19,#24]
    7260:	f9400261 	ldr	x1, [x19]
    7264:	7100001f 	cmp	w0, #0x0
    7268:	540000eb 	b.lt	7284 <kprintf+0x1580>
/home/rex/devel/optee/optee_os/lib/libutils/ext/snprintk.c:474
    726c:	aa0103e0 	mov	x0, x1
    7270:	91003c00 	add	x0, x0, #0xf
    7274:	927df000 	and	x0, x0, #0xfffffffffffffff8
    7278:	f9000260 	str	x0, [x19]
    727c:	aa0103e0 	mov	x0, x1
    7280:	1400000f 	b	72bc <kprintf+0x15b8>
    7284:	11002002 	add	w2, w0, #0x8
    7288:	b9001a62 	str	w2, [x19,#24]
    728c:	b9401a62 	ldr	w2, [x19,#24]
    7290:	7100005f 	cmp	w2, #0x0
    7294:	540000ed 	b.le	72b0 <kprintf+0x15ac>
    7298:	aa0103e0 	mov	x0, x1
    729c:	91003c00 	add	x0, x0, #0xf
    72a0:	927df000 	and	x0, x0, #0xfffffffffffffff8
    72a4:	f9000260 	str	x0, [x19]
    72a8:	aa0103e0 	mov	x0, x1
    72ac:	14000004 	b	72bc <kprintf+0x15b8>
    72b0:	f9400661 	ldr	x1, [x19,#8]
    72b4:	93407c00 	sxtw	x0, w0
    72b8:	8b000020 	add	x0, x1, x0
    72bc:	f9400000 	ldr	x0, [x0]
    72c0:	14000095 	b	7514 <kprintf+0x1810>
/home/rex/devel/optee/optee_os/lib/libutils/ext/snprintk.c:474 (discriminator 5)
    72c4:	b940b7a0 	ldr	w0, [x29,#180]
    72c8:	12170000 	and	w0, w0, #0x200
    72cc:	7100001f 	cmp	w0, #0x0
    72d0:	54000360 	b.eq	733c <kprintf+0x1638>
/home/rex/devel/optee/optee_os/lib/libutils/ext/snprintk.c:474 (discriminator 7)
    72d4:	b9401a60 	ldr	w0, [x19,#24]
    72d8:	f9400261 	ldr	x1, [x19]
    72dc:	7100001f 	cmp	w0, #0x0
    72e0:	540000eb 	b.lt	72fc <kprintf+0x15f8>
/home/rex/devel/optee/optee_os/lib/libutils/ext/snprintk.c:474
    72e4:	aa0103e0 	mov	x0, x1
    72e8:	91003c00 	add	x0, x0, #0xf
    72ec:	927df000 	and	x0, x0, #0xfffffffffffffff8
    72f0:	f9000260 	str	x0, [x19]
    72f4:	aa0103e0 	mov	x0, x1
    72f8:	1400000f 	b	7334 <kprintf+0x1630>
    72fc:	11002002 	add	w2, w0, #0x8
    7300:	b9001a62 	str	w2, [x19,#24]
    7304:	b9401a62 	ldr	w2, [x19,#24]
    7308:	7100005f 	cmp	w2, #0x0
    730c:	540000ed 	b.le	7328 <kprintf+0x1624>
    7310:	aa0103e0 	mov	x0, x1
    7314:	91003c00 	add	x0, x0, #0xf
    7318:	927df000 	and	x0, x0, #0xfffffffffffffff8
    731c:	f9000260 	str	x0, [x19]
    7320:	aa0103e0 	mov	x0, x1
    7324:	14000004 	b	7334 <kprintf+0x1630>
    7328:	f9400661 	ldr	x1, [x19,#8]
    732c:	93407c00 	sxtw	x0, w0
    7330:	8b000020 	add	x0, x1, x0
    7334:	f9400000 	ldr	x0, [x0]
    7338:	14000077 	b	7514 <kprintf+0x1810>
/home/rex/devel/optee/optee_os/lib/libutils/ext/snprintk.c:474 (discriminator 8)
    733c:	b940b7a0 	ldr	w0, [x29,#180]
    7340:	121b0000 	and	w0, w0, #0x20
    7344:	7100001f 	cmp	w0, #0x0
    7348:	54000360 	b.eq	73b4 <kprintf+0x16b0>
/home/rex/devel/optee/optee_os/lib/libutils/ext/snprintk.c:474 (discriminator 10)
    734c:	b9401a60 	ldr	w0, [x19,#24]
    7350:	f9400261 	ldr	x1, [x19]
    7354:	7100001f 	cmp	w0, #0x0
    7358:	540000eb 	b.lt	7374 <kprintf+0x1670>
/home/rex/devel/optee/optee_os/lib/libutils/ext/snprintk.c:474
    735c:	aa0103e0 	mov	x0, x1
    7360:	91003c00 	add	x0, x0, #0xf
    7364:	927df000 	and	x0, x0, #0xfffffffffffffff8
    7368:	f9000260 	str	x0, [x19]
    736c:	aa0103e0 	mov	x0, x1
    7370:	1400000f 	b	73ac <kprintf+0x16a8>
    7374:	11002002 	add	w2, w0, #0x8
    7378:	b9001a62 	str	w2, [x19,#24]
    737c:	b9401a62 	ldr	w2, [x19,#24]
    7380:	7100005f 	cmp	w2, #0x0
    7384:	540000ed 	b.le	73a0 <kprintf+0x169c>
    7388:	aa0103e0 	mov	x0, x1
    738c:	91003c00 	add	x0, x0, #0xf
    7390:	927df000 	and	x0, x0, #0xfffffffffffffff8
    7394:	f9000260 	str	x0, [x19]
    7398:	aa0103e0 	mov	x0, x1
    739c:	14000004 	b	73ac <kprintf+0x16a8>
    73a0:	f9400661 	ldr	x1, [x19,#8]
    73a4:	93407c00 	sxtw	x0, w0
    73a8:	8b000020 	add	x0, x1, x0
    73ac:	f9400000 	ldr	x0, [x0]
    73b0:	14000059 	b	7514 <kprintf+0x1810>
/home/rex/devel/optee/optee_os/lib/libutils/ext/snprintk.c:474 (discriminator 11)
    73b4:	b940b7a0 	ldr	w0, [x29,#180]
    73b8:	121c0000 	and	w0, w0, #0x10
    73bc:	7100001f 	cmp	w0, #0x0
    73c0:	54000360 	b.eq	742c <kprintf+0x1728>
/home/rex/devel/optee/optee_os/lib/libutils/ext/snprintk.c:474 (discriminator 13)
    73c4:	b9401a60 	ldr	w0, [x19,#24]
    73c8:	f9400261 	ldr	x1, [x19]
    73cc:	7100001f 	cmp	w0, #0x0
    73d0:	540000eb 	b.lt	73ec <kprintf+0x16e8>
/home/rex/devel/optee/optee_os/lib/libutils/ext/snprintk.c:474
    73d4:	aa0103e0 	mov	x0, x1
    73d8:	91003c00 	add	x0, x0, #0xf
    73dc:	927df000 	and	x0, x0, #0xfffffffffffffff8
    73e0:	f9000260 	str	x0, [x19]
    73e4:	aa0103e0 	mov	x0, x1
    73e8:	1400000f 	b	7424 <kprintf+0x1720>
    73ec:	11002002 	add	w2, w0, #0x8
    73f0:	b9001a62 	str	w2, [x19,#24]
    73f4:	b9401a62 	ldr	w2, [x19,#24]
    73f8:	7100005f 	cmp	w2, #0x0
    73fc:	540000ed 	b.le	7418 <kprintf+0x1714>
    7400:	aa0103e0 	mov	x0, x1
    7404:	91003c00 	add	x0, x0, #0xf
    7408:	927df000 	and	x0, x0, #0xfffffffffffffff8
    740c:	f9000260 	str	x0, [x19]
    7410:	aa0103e0 	mov	x0, x1
    7414:	14000004 	b	7424 <kprintf+0x1720>
    7418:	f9400661 	ldr	x1, [x19,#8]
    741c:	93407c00 	sxtw	x0, w0
    7420:	8b000020 	add	x0, x1, x0
    7424:	f9400000 	ldr	x0, [x0]
    7428:	1400003b 	b	7514 <kprintf+0x1810>
/home/rex/devel/optee/optee_os/lib/libutils/ext/snprintk.c:474 (discriminator 14)
    742c:	b940b7a0 	ldr	w0, [x29,#180]
    7430:	121a0000 	and	w0, w0, #0x40
    7434:	7100001f 	cmp	w0, #0x0
    7438:	540003a0 	b.eq	74ac <kprintf+0x17a8>
/home/rex/devel/optee/optee_os/lib/libutils/ext/snprintk.c:474 (discriminator 16)
    743c:	b9401a60 	ldr	w0, [x19,#24]
    7440:	f9400261 	ldr	x1, [x19]
    7444:	7100001f 	cmp	w0, #0x0
    7448:	540000eb 	b.lt	7464 <kprintf+0x1760>
/home/rex/devel/optee/optee_os/lib/libutils/ext/snprintk.c:474
    744c:	aa0103e0 	mov	x0, x1
    7450:	91002c00 	add	x0, x0, #0xb
    7454:	927df000 	and	x0, x0, #0xfffffffffffffff8
    7458:	f9000260 	str	x0, [x19]
    745c:	aa0103e0 	mov	x0, x1
    7460:	1400000f 	b	749c <kprintf+0x1798>
    7464:	11002002 	add	w2, w0, #0x8
    7468:	b9001a62 	str	w2, [x19,#24]
    746c:	b9401a62 	ldr	w2, [x19,#24]
    7470:	7100005f 	cmp	w2, #0x0
    7474:	540000ed 	b.le	7490 <kprintf+0x178c>
    7478:	aa0103e0 	mov	x0, x1
    747c:	91002c00 	add	x0, x0, #0xb
    7480:	927df000 	and	x0, x0, #0xfffffffffffffff8
    7484:	f9000260 	str	x0, [x19]
    7488:	aa0103e0 	mov	x0, x1
    748c:	14000004 	b	749c <kprintf+0x1798>
    7490:	f9400661 	ldr	x1, [x19,#8]
    7494:	93407c00 	sxtw	x0, w0
    7498:	8b000020 	add	x0, x1, x0
    749c:	b9400000 	ldr	w0, [x0]
    74a0:	12003c00 	and	w0, w0, #0xffff
    74a4:	92403c00 	and	x0, x0, #0xffff
    74a8:	1400001b 	b	7514 <kprintf+0x1810>
/home/rex/devel/optee/optee_os/lib/libutils/ext/snprintk.c:474 (discriminator 17)
    74ac:	b9401a60 	ldr	w0, [x19,#24]
    74b0:	f9400261 	ldr	x1, [x19]
    74b4:	7100001f 	cmp	w0, #0x0
    74b8:	540000eb 	b.lt	74d4 <kprintf+0x17d0>
/home/rex/devel/optee/optee_os/lib/libutils/ext/snprintk.c:474
    74bc:	aa0103e0 	mov	x0, x1
    74c0:	91002c00 	add	x0, x0, #0xb
    74c4:	927df000 	and	x0, x0, #0xfffffffffffffff8
    74c8:	f9000260 	str	x0, [x19]
    74cc:	aa0103e0 	mov	x0, x1
    74d0:	1400000f 	b	750c <kprintf+0x1808>
    74d4:	11002002 	add	w2, w0, #0x8
    74d8:	b9001a62 	str	w2, [x19,#24]
    74dc:	b9401a62 	ldr	w2, [x19,#24]
    74e0:	7100005f 	cmp	w2, #0x0
    74e4:	540000ed 	b.le	7500 <kprintf+0x17fc>
    74e8:	aa0103e0 	mov	x0, x1
    74ec:	91002c00 	add	x0, x0, #0xb
    74f0:	927df000 	and	x0, x0, #0xfffffffffffffff8
    74f4:	f9000260 	str	x0, [x19]
    74f8:	aa0103e0 	mov	x0, x1
    74fc:	14000004 	b	750c <kprintf+0x1808>
    7500:	f9400661 	ldr	x1, [x19,#8]
    7504:	93407c00 	sxtw	x0, w0
    7508:	8b000020 	add	x0, x1, x0
    750c:	b9400000 	ldr	w0, [x0]
    7510:	2a0003e0 	mov	w0, w0
/home/rex/devel/optee/optee_os/lib/libutils/ext/snprintk.c:474 (discriminator 24)
    7514:	f9004fa0 	str	x0, [x29,#152]
/home/rex/devel/optee/optee_os/lib/libutils/ext/snprintk.c:475 (discriminator 24)
    7518:	52800040 	mov	w0, #0x2                   	// #2
    751c:	b90097a0 	str	w0, [x29,#148]
/home/rex/devel/optee/optee_os/lib/libutils/ext/snprintk.c:477 (discriminator 24)
    7520:	b940b7a0 	ldr	w0, [x29,#180]
    7524:	12000000 	and	w0, w0, #0x1
    7528:	7100001f 	cmp	w0, #0x0
    752c:	540000e0 	b.eq	7548 <kprintf+0x1844>
/home/rex/devel/optee/optee_os/lib/libutils/ext/snprintk.c:477 (discriminator 1)
    7530:	f9404fa0 	ldr	x0, [x29,#152]
    7534:	f100001f 	cmp	x0, #0x0
    7538:	54000080 	b.eq	7548 <kprintf+0x1844>
/home/rex/devel/optee/optee_os/lib/libutils/ext/snprintk.c:478
    753c:	b940b7a0 	ldr	w0, [x29,#180]
    7540:	321f0000 	orr	w0, w0, #0x2
    7544:	b900b7a0 	str	w0, [x29,#180]
/home/rex/devel/optee/optee_os/lib/libutils/ext/snprintk.c:481
    7548:	39029fbf 	strb	wzr, [x29,#167]
/home/rex/devel/optee/optee_os/lib/libutils/ext/snprintk.c:487
    754c:	b940aba0 	ldr	w0, [x29,#168]
    7550:	b90093a0 	str	w0, [x29,#144]
    7554:	b94093a0 	ldr	w0, [x29,#144]
    7558:	7100001f 	cmp	w0, #0x0
    755c:	5400008b 	b.lt	756c <kprintf+0x1868>
/home/rex/devel/optee/optee_os/lib/libutils/ext/snprintk.c:488
    7560:	b940b7a0 	ldr	w0, [x29,#180]
    7564:	12157800 	and	w0, w0, #0xfffffbff
    7568:	b900b7a0 	str	w0, [x29,#180]
/home/rex/devel/optee/optee_os/lib/libutils/ext/snprintk.c:495
    756c:	910123a0 	add	x0, x29, #0x48
    7570:	91009400 	add	x0, x0, #0x25
    7574:	f9005fa0 	str	x0, [x29,#184]
/home/rex/devel/optee/optee_os/lib/libutils/ext/snprintk.c:496
    7578:	f9404fa0 	ldr	x0, [x29,#152]
    757c:	f100001f 	cmp	x0, #0x0
    7580:	54000081 	b.ne	7590 <kprintf+0x188c>
/home/rex/devel/optee/optee_os/lib/libutils/ext/snprintk.c:496 (discriminator 1)
    7584:	b940aba0 	ldr	w0, [x29,#168]
    7588:	7100001f 	cmp	w0, #0x0
    758c:	54000d00 	b.eq	772c <kprintf+0x1a28>
/home/rex/devel/optee/optee_os/lib/libutils/ext/snprintk.c:502
    7590:	b94097a0 	ldr	w0, [x29,#148]
    7594:	7100041f 	cmp	w0, #0x1
    7598:	540007c0 	b.eq	7690 <kprintf+0x198c>
    759c:	7100041f 	cmp	w0, #0x1
    75a0:	54000083 	b.cc	75b0 <kprintf+0x18ac>
    75a4:	7100081f 	cmp	w0, #0x2
    75a8:	540008e0 	b.eq	76c4 <kprintf+0x19c0>
    75ac:	14000057 	b	7708 <kprintf+0x1a04>
/home/rex/devel/optee/optee_os/lib/libutils/ext/snprintk.c:505 (discriminator 1)
    75b0:	f9405fa0 	ldr	x0, [x29,#184]
    75b4:	d1000400 	sub	x0, x0, #0x1
    75b8:	f9005fa0 	str	x0, [x29,#184]
    75bc:	f9404fa0 	ldr	x0, [x29,#152]
    75c0:	12001c00 	and	w0, w0, #0xff
    75c4:	12000800 	and	w0, w0, #0x7
    75c8:	12001c00 	and	w0, w0, #0xff
    75cc:	1100c000 	add	w0, w0, #0x30
    75d0:	12001c01 	and	w1, w0, #0xff
    75d4:	f9405fa0 	ldr	x0, [x29,#184]
    75d8:	39000001 	strb	w1, [x0]
/home/rex/devel/optee/optee_os/lib/libutils/ext/snprintk.c:506 (discriminator 1)
    75dc:	f9404fa0 	ldr	x0, [x29,#152]
    75e0:	d343fc01 	lsr	x1, x0, #3
    75e4:	f9004fa1 	str	x1, [x29,#152]
/home/rex/devel/optee/optee_os/lib/libutils/ext/snprintk.c:507 (discriminator 1)
    75e8:	f9404fa0 	ldr	x0, [x29,#152]
    75ec:	f100001f 	cmp	x0, #0x0
    75f0:	54fffe01 	b.ne	75b0 <kprintf+0x18ac>
/home/rex/devel/optee/optee_os/lib/libutils/ext/snprintk.c:509
    75f4:	b940b7a0 	ldr	w0, [x29,#180]
    75f8:	12000000 	and	w0, w0, #0x1
    75fc:	7100001f 	cmp	w0, #0x0
    7600:	54000940 	b.eq	7728 <kprintf+0x1a24>
/home/rex/devel/optee/optee_os/lib/libutils/ext/snprintk.c:509 (discriminator 1)
    7604:	f9405fa0 	ldr	x0, [x29,#184]
    7608:	39400000 	ldrb	w0, [x0]
    760c:	7100c01f 	cmp	w0, #0x30
    7610:	540008c0 	b.eq	7728 <kprintf+0x1a24>
/home/rex/devel/optee/optee_os/lib/libutils/ext/snprintk.c:510
    7614:	f9405fa0 	ldr	x0, [x29,#184]
    7618:	d1000400 	sub	x0, x0, #0x1
    761c:	f9005fa0 	str	x0, [x29,#184]
    7620:	f9405fa0 	ldr	x0, [x29,#184]
    7624:	52800601 	mov	w1, #0x30                  	// #48
    7628:	39000001 	strb	w1, [x0]
/home/rex/devel/optee/optee_os/lib/libutils/ext/snprintk.c:511
    762c:	1400003f 	b	7728 <kprintf+0x1a24>
/home/rex/devel/optee/optee_os/lib/libutils/ext/snprintk.c:516
    7630:	f9405fa0 	ldr	x0, [x29,#184]
    7634:	d1000400 	sub	x0, x0, #0x1
    7638:	f9005fa0 	str	x0, [x29,#184]
    763c:	f9404fa2 	ldr	x2, [x29,#152]
    7640:	b202e7e0 	mov	x0, #0xcccccccccccccccc    	// #-3689348814741910324
    7644:	f29999a0 	movk	x0, #0xcccd
    7648:	9bc07c40 	umulh	x0, x2, x0
    764c:	d343fc01 	lsr	x1, x0, #3
    7650:	aa0103e0 	mov	x0, x1
    7654:	d37ef400 	lsl	x0, x0, #2
    7658:	8b010000 	add	x0, x0, x1
    765c:	d37ff800 	lsl	x0, x0, #1
    7660:	cb000041 	sub	x1, x2, x0
    7664:	12001c20 	and	w0, w1, #0xff
    7668:	1100c000 	add	w0, w0, #0x30
    766c:	12001c01 	and	w1, w0, #0xff
    7670:	f9405fa0 	ldr	x0, [x29,#184]
    7674:	39000001 	strb	w1, [x0]
/home/rex/devel/optee/optee_os/lib/libutils/ext/snprintk.c:517
    7678:	f9404fa1 	ldr	x1, [x29,#152]
    767c:	b202e7e0 	mov	x0, #0xcccccccccccccccc    	// #-3689348814741910324
    7680:	f29999a0 	movk	x0, #0xcccd
    7684:	9bc07c20 	umulh	x0, x1, x0
    7688:	d343fc01 	lsr	x1, x0, #3
    768c:	f9004fa1 	str	x1, [x29,#152]
/home/rex/devel/optee/optee_os/lib/libutils/ext/snprintk.c:515
    7690:	f9404fa0 	ldr	x0, [x29,#152]
    7694:	f100241f 	cmp	x0, #0x9
    7698:	54fffcc8 	b.hi	7630 <kprintf+0x192c>
/home/rex/devel/optee/optee_os/lib/libutils/ext/snprintk.c:519
    769c:	f9405fa0 	ldr	x0, [x29,#184]
    76a0:	d1000400 	sub	x0, x0, #0x1
    76a4:	f9005fa0 	str	x0, [x29,#184]
    76a8:	f9404fa0 	ldr	x0, [x29,#152]
    76ac:	12001c00 	and	w0, w0, #0xff
    76b0:	1100c000 	add	w0, w0, #0x30
    76b4:	12001c01 	and	w1, w0, #0xff
    76b8:	f9405fa0 	ldr	x0, [x29,#184]
    76bc:	39000001 	strb	w1, [x0]
/home/rex/devel/optee/optee_os/lib/libutils/ext/snprintk.c:520
    76c0:	1400001b 	b	772c <kprintf+0x1a28>
/home/rex/devel/optee/optee_os/lib/libutils/ext/snprintk.c:524 (discriminator 1)
    76c4:	f9405fa0 	ldr	x0, [x29,#184]
    76c8:	d1000400 	sub	x0, x0, #0x1
    76cc:	f9005fa0 	str	x0, [x29,#184]
    76d0:	f9404fa0 	ldr	x0, [x29,#152]
    76d4:	92400c00 	and	x0, x0, #0xf
    76d8:	f94043a1 	ldr	x1, [x29,#128]
    76dc:	8b000020 	add	x0, x1, x0
    76e0:	39400001 	ldrb	w1, [x0]
    76e4:	f9405fa0 	ldr	x0, [x29,#184]
    76e8:	39000001 	strb	w1, [x0]
/home/rex/devel/optee/optee_os/lib/libutils/ext/snprintk.c:525 (discriminator 1)
    76ec:	f9404fa0 	ldr	x0, [x29,#152]
    76f0:	d344fc01 	lsr	x1, x0, #4
    76f4:	f9004fa1 	str	x1, [x29,#152]
/home/rex/devel/optee/optee_os/lib/libutils/ext/snprintk.c:526 (discriminator 1)
    76f8:	f9404fa0 	ldr	x0, [x29,#152]
    76fc:	f100001f 	cmp	x0, #0x0
    7700:	54fffe21 	b.ne	76c4 <kprintf+0x19c0>
/home/rex/devel/optee/optee_os/lib/libutils/ext/snprintk.c:527
    7704:	1400000a 	b	772c <kprintf+0x1a28>
/home/rex/devel/optee/optee_os/lib/libutils/ext/snprintk.c:531
    7708:	90000040 	adrp	x0, f000 <__func__.4113+0x18>
    770c:	91228000 	add	x0, x0, #0x8a0
    7710:	f9005fa0 	str	x0, [x29,#184]
/home/rex/devel/optee/optee_os/lib/libutils/ext/snprintk.c:532
    7714:	f9405fa0 	ldr	x0, [x29,#184]
    7718:	97fff88d 	bl	594c <strlen>
    771c:	b9008ba0 	str	w0, [x29,#136]
/home/rex/devel/optee/optee_os/lib/libutils/ext/snprintk.c:533
    7720:	d503201f 	nop
/home/rex/devel/optee/optee_os/lib/libutils/ext/snprintk.c:538
    7724:	14000016 	b	777c <kprintf+0x1a78>
/home/rex/devel/optee/optee_os/lib/libutils/ext/snprintk.c:511
    7728:	d503201f 	nop
/home/rex/devel/optee/optee_os/lib/libutils/ext/snprintk.c:536
    772c:	910123a0 	add	x0, x29, #0x48
    7730:	91009400 	add	x0, x0, #0x25
    7734:	aa0003e1 	mov	x1, x0
    7738:	f9405fa0 	ldr	x0, [x29,#184]
    773c:	cb000020 	sub	x0, x1, x0
    7740:	b9008ba0 	str	w0, [x29,#136]
/home/rex/devel/optee/optee_os/lib/libutils/ext/snprintk.c:538
    7744:	1400000e 	b	777c <kprintf+0x1a78>
/home/rex/devel/optee/optee_os/lib/libutils/ext/snprintk.c:540
    7748:	b940c7a0 	ldr	w0, [x29,#196]
    774c:	7100001f 	cmp	w0, #0x0
    7750:	54002060 	b.eq	7b5c <kprintf+0x1e58>
/home/rex/devel/optee/optee_os/lib/libutils/ext/snprintk.c:543
    7754:	910123a0 	add	x0, x29, #0x48
    7758:	f9005fa0 	str	x0, [x29,#184]
/home/rex/devel/optee/optee_os/lib/libutils/ext/snprintk.c:544
    775c:	b940c7a0 	ldr	w0, [x29,#196]
    7760:	12001c01 	and	w1, w0, #0xff
    7764:	f9405fa0 	ldr	x0, [x29,#184]
    7768:	39000001 	strb	w1, [x0]
/home/rex/devel/optee/optee_os/lib/libutils/ext/snprintk.c:545
    776c:	52800020 	mov	w0, #0x1                   	// #1
    7770:	b9008ba0 	str	w0, [x29,#136]
/home/rex/devel/optee/optee_os/lib/libutils/ext/snprintk.c:546
    7774:	39029fbf 	strb	wzr, [x29,#167]
/home/rex/devel/optee/optee_os/lib/libutils/ext/snprintk.c:547
    7778:	d503201f 	nop
/home/rex/devel/optee/optee_os/lib/libutils/ext/snprintk.c:564
    777c:	b94093a0 	ldr	w0, [x29,#144]
    7780:	b9408ba2 	ldr	w2, [x29,#136]
    7784:	b9408ba1 	ldr	w1, [x29,#136]
    7788:	6b00005f 	cmp	w2, w0
    778c:	1a80a020 	csel	w0, w1, w0, ge
    7790:	b9008fa0 	str	w0, [x29,#140]
/home/rex/devel/optee/optee_os/lib/libutils/ext/snprintk.c:565
    7794:	39429fa0 	ldrb	w0, [x29,#167]
    7798:	7100001f 	cmp	w0, #0x0
    779c:	540000a0 	b.eq	77b0 <kprintf+0x1aac>
/home/rex/devel/optee/optee_os/lib/libutils/ext/snprintk.c:566
    77a0:	b9408fa0 	ldr	w0, [x29,#140]
    77a4:	11000400 	add	w0, w0, #0x1
    77a8:	b9008fa0 	str	w0, [x29,#140]
    77ac:	14000008 	b	77cc <kprintf+0x1ac8>
/home/rex/devel/optee/optee_os/lib/libutils/ext/snprintk.c:567
    77b0:	b940b7a0 	ldr	w0, [x29,#180]
    77b4:	121f0000 	and	w0, w0, #0x2
    77b8:	7100001f 	cmp	w0, #0x0
    77bc:	54000080 	b.eq	77cc <kprintf+0x1ac8>
/home/rex/devel/optee/optee_os/lib/libutils/ext/snprintk.c:568
    77c0:	b9408fa0 	ldr	w0, [x29,#140]
    77c4:	11000800 	add	w0, w0, #0x2
    77c8:	b9008fa0 	str	w0, [x29,#140]
/home/rex/devel/optee/optee_os/lib/libutils/ext/snprintk.c:571
    77cc:	b940afa0 	ldr	w0, [x29,#172]
    77d0:	b9408fa2 	ldr	w2, [x29,#140]
    77d4:	b9408fa1 	ldr	w1, [x29,#140]
    77d8:	6b00005f 	cmp	w2, w0
    77dc:	1a80a020 	csel	w0, w1, w0, ge
    77e0:	b940b3a1 	ldr	w1, [x29,#176]
    77e4:	0b000020 	add	w0, w1, w0
    77e8:	b900b3a0 	str	w0, [x29,#176]
/home/rex/devel/optee/optee_os/lib/libutils/ext/snprintk.c:574
    77ec:	b940b7a1 	ldr	w1, [x29,#180]
    77f0:	52808080 	mov	w0, #0x404                 	// #1028
    77f4:	0a000020 	and	w0, w1, w0
    77f8:	7100001f 	cmp	w0, #0x0
    77fc:	540003a1 	b.ne	7870 <kprintf+0x1b6c>
/home/rex/devel/optee/optee_os/lib/libutils/ext/snprintk.c:575
    7800:	b940afa1 	ldr	w1, [x29,#172]
    7804:	b9408fa0 	ldr	w0, [x29,#140]
    7808:	4b000020 	sub	w0, w1, w0
    780c:	b900c3a0 	str	w0, [x29,#192]
/home/rex/devel/optee/optee_os/lib/libutils/ext/snprintk.c:576
    7810:	14000013 	b	785c <kprintf+0x1b58>
/home/rex/devel/optee/optee_os/lib/libutils/ext/snprintk.c:577
    7814:	b94037a0 	ldr	w0, [x29,#52]
    7818:	7100201f 	cmp	w0, #0x8
    781c:	54000201 	b.ne	785c <kprintf+0x1b58>
/home/rex/devel/optee/optee_os/lib/libutils/ext/snprintk.c:577 (discriminator 1)
    7820:	f94013a0 	ldr	x0, [x29,#32]
    7824:	f100001f 	cmp	x0, #0x0
    7828:	540001a0 	b.eq	785c <kprintf+0x1b58>
/home/rex/devel/optee/optee_os/lib/libutils/ext/snprintk.c:577 (discriminator 2)
    782c:	f94017a0 	ldr	x0, [x29,#40]
    7830:	f100001f 	cmp	x0, #0x0
    7834:	540000a0 	b.eq	7848 <kprintf+0x1b44>
/home/rex/devel/optee/optee_os/lib/libutils/ext/snprintk.c:577 (discriminator 4)
    7838:	f94013a1 	ldr	x1, [x29,#32]
    783c:	f9403fa0 	ldr	x0, [x29,#120]
    7840:	eb00003f 	cmp	x1, x0
    7844:	540000c2 	b.cs	785c <kprintf+0x1b58>
/home/rex/devel/optee/optee_os/lib/libutils/ext/snprintk.c:577 (discriminator 5)
    7848:	f94013a0 	ldr	x0, [x29,#32]
    784c:	91000401 	add	x1, x0, #0x1
    7850:	f90013a1 	str	x1, [x29,#32]
    7854:	52800401 	mov	w1, #0x20                  	// #32
    7858:	39000001 	strb	w1, [x0]
/home/rex/devel/optee/optee_os/lib/libutils/ext/snprintk.c:576
    785c:	b940c3a0 	ldr	w0, [x29,#192]
    7860:	51000401 	sub	w1, w0, #0x1
    7864:	b900c3a1 	str	w1, [x29,#192]
    7868:	7100001f 	cmp	w0, #0x0
    786c:	54fffd4c 	b.gt	7814 <kprintf+0x1b10>
/home/rex/devel/optee/optee_os/lib/libutils/ext/snprintk.c:581
    7870:	39429fa0 	ldrb	w0, [x29,#167]
    7874:	7100001f 	cmp	w0, #0x0
    7878:	54000280 	b.eq	78c8 <kprintf+0x1bc4>
/home/rex/devel/optee/optee_os/lib/libutils/ext/snprintk.c:582
    787c:	b94037a0 	ldr	w0, [x29,#52]
    7880:	7100201f 	cmp	w0, #0x8
    7884:	54000741 	b.ne	796c <kprintf+0x1c68>
/home/rex/devel/optee/optee_os/lib/libutils/ext/snprintk.c:582 (discriminator 1)
    7888:	f94013a0 	ldr	x0, [x29,#32]
    788c:	f100001f 	cmp	x0, #0x0
    7890:	540006e0 	b.eq	796c <kprintf+0x1c68>
/home/rex/devel/optee/optee_os/lib/libutils/ext/snprintk.c:582 (discriminator 2)
    7894:	f94017a0 	ldr	x0, [x29,#40]
    7898:	f100001f 	cmp	x0, #0x0
    789c:	540000a0 	b.eq	78b0 <kprintf+0x1bac>
/home/rex/devel/optee/optee_os/lib/libutils/ext/snprintk.c:582 (discriminator 4)
    78a0:	f94013a1 	ldr	x1, [x29,#32]
    78a4:	f9403fa0 	ldr	x0, [x29,#120]
    78a8:	eb00003f 	cmp	x1, x0
    78ac:	54000602 	b.cs	796c <kprintf+0x1c68>
/home/rex/devel/optee/optee_os/lib/libutils/ext/snprintk.c:582 (discriminator 5)
    78b0:	f94013a0 	ldr	x0, [x29,#32]
    78b4:	91000401 	add	x1, x0, #0x1
    78b8:	f90013a1 	str	x1, [x29,#32]
    78bc:	39429fa1 	ldrb	w1, [x29,#167]
    78c0:	39000001 	strb	w1, [x0]
    78c4:	1400002a 	b	796c <kprintf+0x1c68>
/home/rex/devel/optee/optee_os/lib/libutils/ext/snprintk.c:583
    78c8:	b940b7a0 	ldr	w0, [x29,#180]
    78cc:	121f0000 	and	w0, w0, #0x2
    78d0:	7100001f 	cmp	w0, #0x0
    78d4:	540004c0 	b.eq	796c <kprintf+0x1c68>
/home/rex/devel/optee/optee_os/lib/libutils/ext/snprintk.c:584
    78d8:	b94037a0 	ldr	w0, [x29,#52]
    78dc:	7100201f 	cmp	w0, #0x8
    78e0:	54000201 	b.ne	7920 <kprintf+0x1c1c>
/home/rex/devel/optee/optee_os/lib/libutils/ext/snprintk.c:584 (discriminator 1)
    78e4:	f94013a0 	ldr	x0, [x29,#32]
    78e8:	f100001f 	cmp	x0, #0x0
    78ec:	540001a0 	b.eq	7920 <kprintf+0x1c1c>
/home/rex/devel/optee/optee_os/lib/libutils/ext/snprintk.c:584 (discriminator 2)
    78f0:	f94017a0 	ldr	x0, [x29,#40]
    78f4:	f100001f 	cmp	x0, #0x0
    78f8:	540000a0 	b.eq	790c <kprintf+0x1c08>
/home/rex/devel/optee/optee_os/lib/libutils/ext/snprintk.c:584 (discriminator 4)
    78fc:	f94013a1 	ldr	x1, [x29,#32]
    7900:	f9403fa0 	ldr	x0, [x29,#120]
    7904:	eb00003f 	cmp	x1, x0
    7908:	540000c2 	b.cs	7920 <kprintf+0x1c1c>
/home/rex/devel/optee/optee_os/lib/libutils/ext/snprintk.c:584 (discriminator 5)
    790c:	f94013a0 	ldr	x0, [x29,#32]
    7910:	91000401 	add	x1, x0, #0x1
    7914:	f90013a1 	str	x1, [x29,#32]
    7918:	52800601 	mov	w1, #0x30                  	// #48
    791c:	39000001 	strb	w1, [x0]
/home/rex/devel/optee/optee_os/lib/libutils/ext/snprintk.c:585
    7920:	b94037a0 	ldr	w0, [x29,#52]
    7924:	7100201f 	cmp	w0, #0x8
    7928:	54000221 	b.ne	796c <kprintf+0x1c68>
/home/rex/devel/optee/optee_os/lib/libutils/ext/snprintk.c:585 (discriminator 1)
    792c:	f94013a0 	ldr	x0, [x29,#32]
    7930:	f100001f 	cmp	x0, #0x0
    7934:	540001c0 	b.eq	796c <kprintf+0x1c68>
/home/rex/devel/optee/optee_os/lib/libutils/ext/snprintk.c:585 (discriminator 2)
    7938:	f94017a0 	ldr	x0, [x29,#40]
    793c:	f100001f 	cmp	x0, #0x0
    7940:	540000a0 	b.eq	7954 <kprintf+0x1c50>
/home/rex/devel/optee/optee_os/lib/libutils/ext/snprintk.c:585 (discriminator 4)
    7944:	f94013a1 	ldr	x1, [x29,#32]
    7948:	f9403fa0 	ldr	x0, [x29,#120]
    794c:	eb00003f 	cmp	x1, x0
    7950:	540000e2 	b.cs	796c <kprintf+0x1c68>
/home/rex/devel/optee/optee_os/lib/libutils/ext/snprintk.c:585 (discriminator 5)
    7954:	f94013a0 	ldr	x0, [x29,#32]
    7958:	91000401 	add	x1, x0, #0x1
    795c:	f90013a1 	str	x1, [x29,#32]
    7960:	b940c7a1 	ldr	w1, [x29,#196]
    7964:	12001c21 	and	w1, w1, #0xff
    7968:	39000001 	strb	w1, [x0]
/home/rex/devel/optee/optee_os/lib/libutils/ext/snprintk.c:589
    796c:	b940b7a1 	ldr	w1, [x29,#180]
    7970:	52808080 	mov	w0, #0x404                 	// #1028
    7974:	0a000020 	and	w0, w1, w0
    7978:	7110001f 	cmp	w0, #0x400
    797c:	540003a1 	b.ne	79f0 <kprintf+0x1cec>
/home/rex/devel/optee/optee_os/lib/libutils/ext/snprintk.c:590
    7980:	b940afa1 	ldr	w1, [x29,#172]
    7984:	b9408fa0 	ldr	w0, [x29,#140]
    7988:	4b000020 	sub	w0, w1, w0
    798c:	b900c3a0 	str	w0, [x29,#192]
/home/rex/devel/optee/optee_os/lib/libutils/ext/snprintk.c:591
    7990:	14000013 	b	79dc <kprintf+0x1cd8>
/home/rex/devel/optee/optee_os/lib/libutils/ext/snprintk.c:592
    7994:	b94037a0 	ldr	w0, [x29,#52]
    7998:	7100201f 	cmp	w0, #0x8
    799c:	54000201 	b.ne	79dc <kprintf+0x1cd8>
/home/rex/devel/optee/optee_os/lib/libutils/ext/snprintk.c:592 (discriminator 1)
    79a0:	f94013a0 	ldr	x0, [x29,#32]
    79a4:	f100001f 	cmp	x0, #0x0
    79a8:	540001a0 	b.eq	79dc <kprintf+0x1cd8>
/home/rex/devel/optee/optee_os/lib/libutils/ext/snprintk.c:592 (discriminator 2)
    79ac:	f94017a0 	ldr	x0, [x29,#40]
    79b0:	f100001f 	cmp	x0, #0x0
    79b4:	540000a0 	b.eq	79c8 <kprintf+0x1cc4>
/home/rex/devel/optee/optee_os/lib/libutils/ext/snprintk.c:592 (discriminator 4)
    79b8:	f94013a1 	ldr	x1, [x29,#32]
    79bc:	f9403fa0 	ldr	x0, [x29,#120]
    79c0:	eb00003f 	cmp	x1, x0
    79c4:	540000c2 	b.cs	79dc <kprintf+0x1cd8>
/home/rex/devel/optee/optee_os/lib/libutils/ext/snprintk.c:592 (discriminator 5)
    79c8:	f94013a0 	ldr	x0, [x29,#32]
    79cc:	91000401 	add	x1, x0, #0x1
    79d0:	f90013a1 	str	x1, [x29,#32]
    79d4:	52800601 	mov	w1, #0x30                  	// #48
    79d8:	39000001 	strb	w1, [x0]
/home/rex/devel/optee/optee_os/lib/libutils/ext/snprintk.c:591
    79dc:	b940c3a0 	ldr	w0, [x29,#192]
    79e0:	51000401 	sub	w1, w0, #0x1
    79e4:	b900c3a1 	str	w1, [x29,#192]
    79e8:	7100001f 	cmp	w0, #0x0
    79ec:	54fffd4c 	b.gt	7994 <kprintf+0x1c90>
/home/rex/devel/optee/optee_os/lib/libutils/ext/snprintk.c:596
    79f0:	b94093a1 	ldr	w1, [x29,#144]
    79f4:	b9408ba0 	ldr	w0, [x29,#136]
    79f8:	4b000020 	sub	w0, w1, w0
    79fc:	b900c3a0 	str	w0, [x29,#192]
/home/rex/devel/optee/optee_os/lib/libutils/ext/snprintk.c:597
    7a00:	14000013 	b	7a4c <kprintf+0x1d48>
/home/rex/devel/optee/optee_os/lib/libutils/ext/snprintk.c:598
    7a04:	b94037a0 	ldr	w0, [x29,#52]
    7a08:	7100201f 	cmp	w0, #0x8
    7a0c:	54000201 	b.ne	7a4c <kprintf+0x1d48>
/home/rex/devel/optee/optee_os/lib/libutils/ext/snprintk.c:598 (discriminator 1)
    7a10:	f94013a0 	ldr	x0, [x29,#32]
    7a14:	f100001f 	cmp	x0, #0x0
    7a18:	540001a0 	b.eq	7a4c <kprintf+0x1d48>
/home/rex/devel/optee/optee_os/lib/libutils/ext/snprintk.c:598 (discriminator 2)
    7a1c:	f94017a0 	ldr	x0, [x29,#40]
    7a20:	f100001f 	cmp	x0, #0x0
    7a24:	540000a0 	b.eq	7a38 <kprintf+0x1d34>
/home/rex/devel/optee/optee_os/lib/libutils/ext/snprintk.c:598 (discriminator 4)
    7a28:	f94013a1 	ldr	x1, [x29,#32]
    7a2c:	f9403fa0 	ldr	x0, [x29,#120]
    7a30:	eb00003f 	cmp	x1, x0
    7a34:	540000c2 	b.cs	7a4c <kprintf+0x1d48>
/home/rex/devel/optee/optee_os/lib/libutils/ext/snprintk.c:598 (discriminator 5)
    7a38:	f94013a0 	ldr	x0, [x29,#32]
    7a3c:	91000401 	add	x1, x0, #0x1
    7a40:	f90013a1 	str	x1, [x29,#32]
    7a44:	52800601 	mov	w1, #0x30                  	// #48
    7a48:	39000001 	strb	w1, [x0]
/home/rex/devel/optee/optee_os/lib/libutils/ext/snprintk.c:597
    7a4c:	b940c3a0 	ldr	w0, [x29,#192]
    7a50:	51000401 	sub	w1, w0, #0x1
    7a54:	b900c3a1 	str	w1, [x29,#192]
    7a58:	7100001f 	cmp	w0, #0x0
    7a5c:	54fffd4c 	b.gt	7a04 <kprintf+0x1d00>
/home/rex/devel/optee/optee_os/lib/libutils/ext/snprintk.c:601
    7a60:	14000017 	b	7abc <kprintf+0x1db8>
/home/rex/devel/optee/optee_os/lib/libutils/ext/snprintk.c:602
    7a64:	b94037a0 	ldr	w0, [x29,#52]
    7a68:	7100201f 	cmp	w0, #0x8
    7a6c:	54000221 	b.ne	7ab0 <kprintf+0x1dac>
/home/rex/devel/optee/optee_os/lib/libutils/ext/snprintk.c:602 (discriminator 1)
    7a70:	f94013a0 	ldr	x0, [x29,#32]
    7a74:	f100001f 	cmp	x0, #0x0
    7a78:	540001c0 	b.eq	7ab0 <kprintf+0x1dac>
/home/rex/devel/optee/optee_os/lib/libutils/ext/snprintk.c:602 (discriminator 2)
    7a7c:	f94017a0 	ldr	x0, [x29,#40]
    7a80:	f100001f 	cmp	x0, #0x0
    7a84:	540000a0 	b.eq	7a98 <kprintf+0x1d94>
/home/rex/devel/optee/optee_os/lib/libutils/ext/snprintk.c:602 (discriminator 4)
    7a88:	f94013a1 	ldr	x1, [x29,#32]
    7a8c:	f9403fa0 	ldr	x0, [x29,#120]
    7a90:	eb00003f 	cmp	x1, x0
    7a94:	540000e2 	b.cs	7ab0 <kprintf+0x1dac>
/home/rex/devel/optee/optee_os/lib/libutils/ext/snprintk.c:602 (discriminator 5)
    7a98:	f94013a0 	ldr	x0, [x29,#32]
    7a9c:	91000401 	add	x1, x0, #0x1
    7aa0:	f90013a1 	str	x1, [x29,#32]
    7aa4:	f9405fa1 	ldr	x1, [x29,#184]
    7aa8:	39400021 	ldrb	w1, [x1]
    7aac:	39000001 	strb	w1, [x0]
/home/rex/devel/optee/optee_os/lib/libutils/ext/snprintk.c:601
    7ab0:	f9405fa0 	ldr	x0, [x29,#184]
    7ab4:	91000400 	add	x0, x0, #0x1
    7ab8:	f9005fa0 	str	x0, [x29,#184]
/home/rex/devel/optee/optee_os/lib/libutils/ext/snprintk.c:601 (discriminator 1)
    7abc:	b9408ba0 	ldr	w0, [x29,#136]
    7ac0:	51000401 	sub	w1, w0, #0x1
    7ac4:	b9008ba1 	str	w1, [x29,#136]
    7ac8:	7100001f 	cmp	w0, #0x0
    7acc:	54fffcc1 	b.ne	7a64 <kprintf+0x1d60>
/home/rex/devel/optee/optee_os/lib/libutils/ext/snprintk.c:604
    7ad0:	b940b7a0 	ldr	w0, [x29,#180]
    7ad4:	121e0000 	and	w0, w0, #0x4
    7ad8:	7100001f 	cmp	w0, #0x0
    7adc:	54ff17c0 	b.eq	5dd4 <kprintf+0xd0>
/home/rex/devel/optee/optee_os/lib/libutils/ext/snprintk.c:605
    7ae0:	b940afa1 	ldr	w1, [x29,#172]
    7ae4:	b9408fa0 	ldr	w0, [x29,#140]
    7ae8:	4b000020 	sub	w0, w1, w0
    7aec:	b900c3a0 	str	w0, [x29,#192]
/home/rex/devel/optee/optee_os/lib/libutils/ext/snprintk.c:606
    7af0:	14000013 	b	7b3c <kprintf+0x1e38>
/home/rex/devel/optee/optee_os/lib/libutils/ext/snprintk.c:607
    7af4:	b94037a0 	ldr	w0, [x29,#52]
    7af8:	7100201f 	cmp	w0, #0x8
    7afc:	54000201 	b.ne	7b3c <kprintf+0x1e38>
/home/rex/devel/optee/optee_os/lib/libutils/ext/snprintk.c:607 (discriminator 1)
    7b00:	f94013a0 	ldr	x0, [x29,#32]
    7b04:	f100001f 	cmp	x0, #0x0
    7b08:	540001a0 	b.eq	7b3c <kprintf+0x1e38>
/home/rex/devel/optee/optee_os/lib/libutils/ext/snprintk.c:607 (discriminator 2)
    7b0c:	f94017a0 	ldr	x0, [x29,#40]
    7b10:	f100001f 	cmp	x0, #0x0
    7b14:	540000a0 	b.eq	7b28 <kprintf+0x1e24>
/home/rex/devel/optee/optee_os/lib/libutils/ext/snprintk.c:607 (discriminator 4)
    7b18:	f94013a1 	ldr	x1, [x29,#32]
    7b1c:	f9403fa0 	ldr	x0, [x29,#120]
    7b20:	eb00003f 	cmp	x1, x0
    7b24:	540000c2 	b.cs	7b3c <kprintf+0x1e38>
/home/rex/devel/optee/optee_os/lib/libutils/ext/snprintk.c:607 (discriminator 5)
    7b28:	f94013a0 	ldr	x0, [x29,#32]
    7b2c:	91000401 	add	x1, x0, #0x1
    7b30:	f90013a1 	str	x1, [x29,#32]
    7b34:	52800401 	mov	w1, #0x20                  	// #32
    7b38:	39000001 	strb	w1, [x0]
/home/rex/devel/optee/optee_os/lib/libutils/ext/snprintk.c:606
    7b3c:	b940c3a0 	ldr	w0, [x29,#192]
    7b40:	51000401 	sub	w1, w0, #0x1
    7b44:	b900c3a1 	str	w1, [x29,#192]
    7b48:	7100001f 	cmp	w0, #0x0
    7b4c:	54fffd4c 	b.gt	7af4 <kprintf+0x1df0>
/home/rex/devel/optee/optee_os/lib/libutils/ext/snprintk.c:274
    7b50:	17fff8a1 	b	5dd4 <kprintf+0xd0>
/home/rex/devel/optee/optee_os/lib/libutils/ext/snprintk.c:279
    7b54:	d503201f 	nop
    7b58:	14000002 	b	7b60 <kprintf+0x1e5c>
/home/rex/devel/optee/optee_os/lib/libutils/ext/snprintk.c:541
    7b5c:	d503201f 	nop
/home/rex/devel/optee/optee_os/lib/libutils/ext/snprintk.c:612
    7b60:	b94037a0 	ldr	w0, [x29,#52]
    7b64:	7100201f 	cmp	w0, #0x8
    7b68:	540000e1 	b.ne	7b84 <kprintf+0x1e80>
/home/rex/devel/optee/optee_os/lib/libutils/ext/snprintk.c:612 (discriminator 1)
    7b6c:	f94017a0 	ldr	x0, [x29,#40]
    7b70:	f100001f 	cmp	x0, #0x0
    7b74:	54000080 	b.eq	7b84 <kprintf+0x1e80>
/home/rex/devel/optee/optee_os/lib/libutils/ext/snprintk.c:613
    7b78:	f94017a0 	ldr	x0, [x29,#40]
    7b7c:	f94013a1 	ldr	x1, [x29,#32]
    7b80:	f9000001 	str	x1, [x0]
/home/rex/devel/optee/optee_os/lib/libutils/ext/snprintk.c:614
    7b84:	b940b3a0 	ldr	w0, [x29,#176]
/home/rex/devel/optee/optee_os/lib/libutils/ext/snprintk.c:615
    7b88:	f9400bf3 	ldr	x19, [sp,#16]
    7b8c:	a8cd7bfd 	ldp	x29, x30, [sp],#208
    7b90:	d65f03c0 	ret

0000000000007b94 <strlcpy>:
strlcpy():
/home/rex/devel/optee/optee_os/lib/libutils/ext/strlcpy.c:46
    7b94:	a9bc53f3 	stp	x19, x20, [sp,#-64]!
    7b98:	f9000bf5 	str	x21, [sp,#16]
    7b9c:	f9001fe0 	str	x0, [sp,#56]
    7ba0:	f9001be1 	str	x1, [sp,#48]
    7ba4:	f90017e2 	str	x2, [sp,#40]
/home/rex/devel/optee/optee_os/lib/libutils/ext/strlcpy.c:47
    7ba8:	f9401ff5 	ldr	x21, [sp,#56]
/home/rex/devel/optee/optee_os/lib/libutils/ext/strlcpy.c:48
    7bac:	f9401bf4 	ldr	x20, [sp,#48]
/home/rex/devel/optee/optee_os/lib/libutils/ext/strlcpy.c:49
    7bb0:	f94017f3 	ldr	x19, [sp,#40]
/home/rex/devel/optee/optee_os/lib/libutils/ext/strlcpy.c:52
    7bb4:	f100027f 	cmp	x19, #0x0
    7bb8:	54000240 	b.eq	7c00 <strlcpy+0x6c>
/home/rex/devel/optee/optee_os/lib/libutils/ext/strlcpy.c:52 (discriminator 1)
    7bbc:	d1000673 	sub	x19, x19, #0x1
    7bc0:	f100027f 	cmp	x19, #0x0
    7bc4:	540001e0 	b.eq	7c00 <strlcpy+0x6c>
/home/rex/devel/optee/optee_os/lib/libutils/ext/strlcpy.c:54
    7bc8:	aa1503e0 	mov	x0, x21
    7bcc:	91000415 	add	x21, x0, #0x1
    7bd0:	aa1403e1 	mov	x1, x20
    7bd4:	91000434 	add	x20, x1, #0x1
    7bd8:	39400021 	ldrb	w1, [x1]
    7bdc:	39000001 	strb	w1, [x0]
    7be0:	39400000 	ldrb	w0, [x0]
    7be4:	7100001f 	cmp	w0, #0x0
    7be8:	540000a0 	b.eq	7bfc <strlcpy+0x68>
/home/rex/devel/optee/optee_os/lib/libutils/ext/strlcpy.c:56
    7bec:	d1000673 	sub	x19, x19, #0x1
    7bf0:	f100027f 	cmp	x19, #0x0
    7bf4:	54fffea1 	b.ne	7bc8 <strlcpy+0x34>
    7bf8:	14000002 	b	7c00 <strlcpy+0x6c>
/home/rex/devel/optee/optee_os/lib/libutils/ext/strlcpy.c:55
    7bfc:	d503201f 	nop
/home/rex/devel/optee/optee_os/lib/libutils/ext/strlcpy.c:60
    7c00:	f100027f 	cmp	x19, #0x0
    7c04:	54000161 	b.ne	7c30 <strlcpy+0x9c>
/home/rex/devel/optee/optee_os/lib/libutils/ext/strlcpy.c:61
    7c08:	f94017e0 	ldr	x0, [sp,#40]
    7c0c:	f100001f 	cmp	x0, #0x0
    7c10:	54000040 	b.eq	7c18 <strlcpy+0x84>
/home/rex/devel/optee/optee_os/lib/libutils/ext/strlcpy.c:62
    7c14:	390002bf 	strb	wzr, [x21]
/home/rex/devel/optee/optee_os/lib/libutils/ext/strlcpy.c:63
    7c18:	d503201f 	nop
/home/rex/devel/optee/optee_os/lib/libutils/ext/strlcpy.c:63 (discriminator 1)
    7c1c:	aa1403e0 	mov	x0, x20
    7c20:	91000414 	add	x20, x0, #0x1
    7c24:	39400000 	ldrb	w0, [x0]
    7c28:	7100001f 	cmp	w0, #0x0
    7c2c:	54ffff81 	b.ne	7c1c <strlcpy+0x88>
/home/rex/devel/optee/optee_os/lib/libutils/ext/strlcpy.c:67
    7c30:	aa1403e1 	mov	x1, x20
    7c34:	f9401be0 	ldr	x0, [sp,#48]
    7c38:	cb000020 	sub	x0, x1, x0
    7c3c:	d1000400 	sub	x0, x0, #0x1
/home/rex/devel/optee/optee_os/lib/libutils/ext/strlcpy.c:68
    7c40:	f9400bf5 	ldr	x21, [sp,#16]
    7c44:	a8c453f3 	ldp	x19, x20, [sp],#64
    7c48:	d65f03c0 	ret

0000000000007c4c <trace_set_level>:
trace_set_level():
/home/rex/devel/optee/optee_os/lib/libutils/ext/trace.c:42
    7c4c:	d10043ff 	sub	sp, sp, #0x10
    7c50:	b9000fe0 	str	w0, [sp,#12]
/home/rex/devel/optee/optee_os/lib/libutils/ext/trace.c:43
    7c54:	b9400fe0 	ldr	w0, [sp,#12]
    7c58:	7100001f 	cmp	w0, #0x0
    7c5c:	5400012d 	b.le	7c80 <trace_set_level+0x34>
/home/rex/devel/optee/optee_os/lib/libutils/ext/trace.c:43 (discriminator 1)
    7c60:	b9400fe0 	ldr	w0, [sp,#12]
    7c64:	7100101f 	cmp	w0, #0x4
    7c68:	540000cc 	b.gt	7c80 <trace_set_level+0x34>
/home/rex/devel/optee/optee_os/lib/libutils/ext/trace.c:44
    7c6c:	b0000040 	adrp	x0, 10000 <PRIME_TABLE+0x538>
    7c70:	f9458c00 	ldr	x0, [x0,#2840]
    7c74:	b9400fe1 	ldr	w1, [sp,#12]
    7c78:	b9000001 	str	w1, [x0]
    7c7c:	14000005 	b	7c90 <trace_set_level+0x44>
/home/rex/devel/optee/optee_os/lib/libutils/ext/trace.c:46
    7c80:	b0000040 	adrp	x0, 10000 <PRIME_TABLE+0x538>
    7c84:	f9458c00 	ldr	x0, [x0,#2840]
    7c88:	52800081 	mov	w1, #0x4                   	// #4
    7c8c:	b9000001 	str	w1, [x0]
/home/rex/devel/optee/optee_os/lib/libutils/ext/trace.c:47
    7c90:	d503201f 	nop
    7c94:	910043ff 	add	sp, sp, #0x10
    7c98:	d65f03c0 	ret

0000000000007c9c <trace_get_level>:
trace_get_level():
/home/rex/devel/optee/optee_os/lib/libutils/ext/trace.c:51
    7c9c:	b0000040 	adrp	x0, 10000 <PRIME_TABLE+0x538>
    7ca0:	f9458c00 	ldr	x0, [x0,#2840]
    7ca4:	b9400000 	ldr	w0, [x0]
/home/rex/devel/optee/optee_os/lib/libutils/ext/trace.c:52
    7ca8:	d65f03c0 	ret

0000000000007cac <trace_level_to_string>:
trace_level_to_string():
/home/rex/devel/optee/optee_os/lib/libutils/ext/trace.c:55
    7cac:	d10083ff 	sub	sp, sp, #0x20
    7cb0:	b9000fe0 	str	w0, [sp,#12]
    7cb4:	39002fe1 	strb	w1, [sp,#11]
/home/rex/devel/optee/optee_os/lib/libutils/ext/trace.c:59
    7cb8:	b9001fff 	str	wzr, [sp,#28]
/home/rex/devel/optee/optee_os/lib/libutils/ext/trace.c:61
    7cbc:	39402fe0 	ldrb	w0, [sp,#11]
    7cc0:	52000000 	eor	w0, w0, #0x1
    7cc4:	12001c00 	and	w0, w0, #0xff
    7cc8:	7100001f 	cmp	w0, #0x0
    7ccc:	54000080 	b.eq	7cdc <trace_level_to_string+0x30>
/home/rex/devel/optee/optee_os/lib/libutils/ext/trace.c:62
    7cd0:	90000040 	adrp	x0, f000 <__func__.4113+0x18>
    7cd4:	9128a000 	add	x0, x0, #0xa28
    7cd8:	14000010 	b	7d18 <trace_level_to_string+0x6c>
/home/rex/devel/optee/optee_os/lib/libutils/ext/trace.c:64
    7cdc:	b9400fe0 	ldr	w0, [sp,#12]
    7ce0:	7100001f 	cmp	w0, #0x0
    7ce4:	540000cd 	b.le	7cfc <trace_level_to_string+0x50>
/home/rex/devel/optee/optee_os/lib/libutils/ext/trace.c:64 (discriminator 1)
    7ce8:	b9400fe0 	ldr	w0, [sp,#12]
    7cec:	7100101f 	cmp	w0, #0x4
    7cf0:	5400006c 	b.gt	7cfc <trace_level_to_string+0x50>
/home/rex/devel/optee/optee_os/lib/libutils/ext/trace.c:65
    7cf4:	b9400fe0 	ldr	w0, [sp,#12]
    7cf8:	b9001fe0 	str	w0, [sp,#28]
/home/rex/devel/optee/optee_os/lib/libutils/ext/trace.c:67
    7cfc:	b9801fe1 	ldrsw	x1, [sp,#28]
    7d00:	aa0103e0 	mov	x0, x1
    7d04:	d37df000 	lsl	x0, x0, #3
    7d08:	8b010000 	add	x0, x0, x1
    7d0c:	90000041 	adrp	x1, f000 <__func__.4113+0x18>
    7d10:	91298021 	add	x1, x1, #0xa60
    7d14:	8b010000 	add	x0, x0, x1
/home/rex/devel/optee/optee_os/lib/libutils/ext/trace.c:68
    7d18:	910083ff 	add	sp, sp, #0x20
    7d1c:	d65f03c0 	ret

0000000000007d20 <trace_printf>:
trace_printf():
/home/rex/devel/optee/optee_os/lib/libutils/ext/trace.c:73
    7d20:	d10883ff 	sub	sp, sp, #0x220
    7d24:	a9007bfd 	stp	x29, x30, [sp]
    7d28:	910003fd 	mov	x29, sp
    7d2c:	f90027a0 	str	x0, [x29,#72]
    7d30:	b90047a1 	str	w1, [x29,#68]
    7d34:	b90043a2 	str	w2, [x29,#64]
    7d38:	3900ffa3 	strb	w3, [x29,#63]
    7d3c:	f9001ba4 	str	x4, [x29,#48]
    7d40:	f90107a5 	str	x5, [x29,#520]
    7d44:	f9010ba6 	str	x6, [x29,#528]
    7d48:	f9010fa7 	str	x7, [x29,#536]
    7d4c:	910403a0 	add	x0, x29, #0x100
    7d50:	3d802000 	str	q0, [x0,#128]
    7d54:	910403a0 	add	x0, x29, #0x100
    7d58:	3d802401 	str	q1, [x0,#144]
    7d5c:	910403a0 	add	x0, x29, #0x100
    7d60:	3d802802 	str	q2, [x0,#160]
    7d64:	910403a0 	add	x0, x29, #0x100
    7d68:	3d802c03 	str	q3, [x0,#176]
    7d6c:	910403a0 	add	x0, x29, #0x100
    7d70:	3d803004 	str	q4, [x0,#192]
    7d74:	910403a0 	add	x0, x29, #0x100
    7d78:	3d803405 	str	q5, [x0,#208]
    7d7c:	910403a0 	add	x0, x29, #0x100
    7d80:	3d803806 	str	q6, [x0,#224]
    7d84:	910403a0 	add	x0, x29, #0x100
    7d88:	3d803c07 	str	q7, [x0,#240]
/home/rex/devel/optee/optee_os/lib/libutils/ext/trace.c:76
    7d8c:	f900bfbf 	str	xzr, [x29,#376]
/home/rex/devel/optee/optee_os/lib/libutils/ext/trace.c:80
    7d90:	3940ffa0 	ldrb	w0, [x29,#63]
    7d94:	7100001f 	cmp	w0, #0x0
    7d98:	540000e0 	b.eq	7db4 <trace_printf+0x94>
/home/rex/devel/optee/optee_os/lib/libutils/ext/trace.c:80 (discriminator 1)
    7d9c:	b0000040 	adrp	x0, 10000 <PRIME_TABLE+0x538>
    7da0:	f9458c00 	ldr	x0, [x0,#2840]
    7da4:	b9400000 	ldr	w0, [x0]
    7da8:	b94043a1 	ldr	w1, [x29,#64]
    7dac:	6b00003f 	cmp	w1, w0
    7db0:	5400192c 	b.gt	80d4 <trace_printf+0x3b4>
/home/rex/devel/optee/optee_os/lib/libutils/ext/trace.c:83
    7db4:	3940ffa1 	ldrb	w1, [x29,#63]
    7db8:	b94043a0 	ldr	w0, [x29,#64]
    7dbc:	97ffffbc 	bl	7cac <trace_level_to_string>
    7dc0:	aa0003e2 	mov	x2, x0
    7dc4:	90000040 	adrp	x0, f000 <__func__.4113+0x18>
    7dc8:	9128e001 	add	x1, x0, #0xa38
    7dcc:	910143a0 	add	x0, x29, #0x50
    7dd0:	aa0203e3 	mov	x3, x2
    7dd4:	aa0103e2 	mov	x2, x1
    7dd8:	d2802001 	mov	x1, #0x100                 	// #256
    7ddc:	97fff711 	bl	5a20 <snprintk>
    7de0:	b90173a0 	str	w0, [x29,#368]
/home/rex/devel/optee/optee_os/lib/libutils/ext/trace.c:85
    7de4:	b94173a0 	ldr	w0, [x29,#368]
    7de8:	7100001f 	cmp	w0, #0x0
    7dec:	5400178b 	b.lt	80dc <trace_printf+0x3bc>
/home/rex/devel/optee/optee_os/lib/libutils/ext/trace.c:87
    7df0:	b98173a0 	ldrsw	x0, [x29,#368]
    7df4:	f940bfa1 	ldr	x1, [x29,#376]
    7df8:	8b000020 	add	x0, x1, x0
    7dfc:	f900bfa0 	str	x0, [x29,#376]
/home/rex/devel/optee/optee_os/lib/libutils/ext/trace.c:89
    7e00:	3940ffa0 	ldrb	w0, [x29,#63]
    7e04:	7100001f 	cmp	w0, #0x0
    7e08:	54000140 	b.eq	7e30 <trace_printf+0x110>
/home/rex/devel/optee/optee_os/lib/libutils/ext/trace.c:89 (discriminator 1)
    7e0c:	b94043a0 	ldr	w0, [x29,#64]
    7e10:	52800341 	mov	w1, #0x1a                  	// #26
    7e14:	1ac02422 	lsr	w2, w1, w0
    7e18:	12000040 	and	w0, w2, #0x1
    7e1c:	7100001f 	cmp	w0, #0x0
    7e20:	54000081 	b.ne	7e30 <trace_printf+0x110>
/home/rex/devel/optee/optee_os/lib/libutils/ext/trace.c:90
    7e24:	12800000 	mov	w0, #0xffffffff            	// #-1
    7e28:	b90177a0 	str	w0, [x29,#372]
    7e2c:	14000003 	b	7e38 <trace_printf+0x118>
/home/rex/devel/optee/optee_os/lib/libutils/ext/trace.c:92
    7e30:	97ffebf2 	bl	2df8 <trace_ext_get_thread_id>
    7e34:	b90177a0 	str	w0, [x29,#372]
/home/rex/devel/optee/optee_os/lib/libutils/ext/trace.c:94
    7e38:	b94177a0 	ldr	w0, [x29,#372]
    7e3c:	7100001f 	cmp	w0, #0x0
    7e40:	540002ab 	b.lt	7e94 <trace_printf+0x174>
/home/rex/devel/optee/optee_os/lib/libutils/ext/trace.c:95
    7e44:	910143a1 	add	x1, x29, #0x50
    7e48:	f940bfa0 	ldr	x0, [x29,#376]
    7e4c:	8b000024 	add	x4, x1, x0
    7e50:	d2802001 	mov	x1, #0x100                 	// #256
    7e54:	f940bfa0 	ldr	x0, [x29,#376]
    7e58:	cb000021 	sub	x1, x1, x0
    7e5c:	90000040 	adrp	x0, f000 <__func__.4113+0x18>
    7e60:	91290000 	add	x0, x0, #0xa40
    7e64:	b94177a3 	ldr	w3, [x29,#372]
    7e68:	aa0003e2 	mov	x2, x0
    7e6c:	aa0403e0 	mov	x0, x4
    7e70:	97fff6ec 	bl	5a20 <snprintk>
    7e74:	b90173a0 	str	w0, [x29,#368]
/home/rex/devel/optee/optee_os/lib/libutils/ext/trace.c:97
    7e78:	b94173a0 	ldr	w0, [x29,#368]
    7e7c:	7100001f 	cmp	w0, #0x0
    7e80:	5400132b 	b.lt	80e4 <trace_printf+0x3c4>
/home/rex/devel/optee/optee_os/lib/libutils/ext/trace.c:99
    7e84:	b98173a0 	ldrsw	x0, [x29,#368]
    7e88:	f940bfa1 	ldr	x1, [x29,#376]
    7e8c:	8b000020 	add	x0, x1, x0
    7e90:	f900bfa0 	str	x0, [x29,#376]
/home/rex/devel/optee/optee_os/lib/libutils/ext/trace.c:102
    7e94:	910143a1 	add	x1, x29, #0x50
    7e98:	f940bfa0 	ldr	x0, [x29,#376]
    7e9c:	8b000024 	add	x4, x1, x0
    7ea0:	d2802001 	mov	x1, #0x100                 	// #256
    7ea4:	f940bfa0 	ldr	x0, [x29,#376]
    7ea8:	cb000021 	sub	x1, x1, x0
    7eac:	b0000040 	adrp	x0, 10000 <PRIME_TABLE+0x538>
    7eb0:	f9459002 	ldr	x2, [x0,#2848]
    7eb4:	90000040 	adrp	x0, f000 <__func__.4113+0x18>
    7eb8:	91292000 	add	x0, x0, #0xa48
    7ebc:	aa0203e3 	mov	x3, x2
    7ec0:	aa0003e2 	mov	x2, x0
    7ec4:	aa0403e0 	mov	x0, x4
    7ec8:	97fff6d6 	bl	5a20 <snprintk>
    7ecc:	b90173a0 	str	w0, [x29,#368]
/home/rex/devel/optee/optee_os/lib/libutils/ext/trace.c:104
    7ed0:	b94173a0 	ldr	w0, [x29,#368]
    7ed4:	7100001f 	cmp	w0, #0x0
    7ed8:	540010ab 	b.lt	80ec <trace_printf+0x3cc>
/home/rex/devel/optee/optee_os/lib/libutils/ext/trace.c:106
    7edc:	b98173a0 	ldrsw	x0, [x29,#368]
    7ee0:	f940bfa1 	ldr	x1, [x29,#376]
    7ee4:	8b000020 	add	x0, x1, x0
    7ee8:	f900bfa0 	str	x0, [x29,#376]
/home/rex/devel/optee/optee_os/lib/libutils/ext/trace.c:108
    7eec:	3940ffa0 	ldrb	w0, [x29,#63]
    7ef0:	7100001f 	cmp	w0, #0x0
    7ef4:	54000100 	b.eq	7f14 <trace_printf+0x1f4>
/home/rex/devel/optee/optee_os/lib/libutils/ext/trace.c:108 (discriminator 1)
    7ef8:	b94043a0 	ldr	w0, [x29,#64]
    7efc:	52800341 	mov	w1, #0x1a                  	// #26
    7f00:	1ac02422 	lsr	w2, w1, w0
    7f04:	12000040 	and	w0, w2, #0x1
    7f08:	7100001f 	cmp	w0, #0x0
    7f0c:	54000041 	b.ne	7f14 <trace_printf+0x1f4>
/home/rex/devel/optee/optee_os/lib/libutils/ext/trace.c:109
    7f10:	f90027bf 	str	xzr, [x29,#72]
/home/rex/devel/optee/optee_os/lib/libutils/ext/trace.c:111
    7f14:	f94027a0 	ldr	x0, [x29,#72]
    7f18:	f100001f 	cmp	x0, #0x0
    7f1c:	540002c0 	b.eq	7f74 <trace_printf+0x254>
/home/rex/devel/optee/optee_os/lib/libutils/ext/trace.c:112
    7f20:	910143a1 	add	x1, x29, #0x50
    7f24:	f940bfa0 	ldr	x0, [x29,#376]
    7f28:	8b000025 	add	x5, x1, x0
    7f2c:	d2802001 	mov	x1, #0x100                 	// #256
    7f30:	f940bfa0 	ldr	x0, [x29,#376]
    7f34:	cb000021 	sub	x1, x1, x0
    7f38:	90000040 	adrp	x0, f000 <__func__.4113+0x18>
    7f3c:	91294000 	add	x0, x0, #0xa50
    7f40:	b94047a4 	ldr	w4, [x29,#68]
    7f44:	f94027a3 	ldr	x3, [x29,#72]
    7f48:	aa0003e2 	mov	x2, x0
    7f4c:	aa0503e0 	mov	x0, x5
    7f50:	97fff6b4 	bl	5a20 <snprintk>
    7f54:	b90173a0 	str	w0, [x29,#368]
/home/rex/devel/optee/optee_os/lib/libutils/ext/trace.c:114
    7f58:	b94173a0 	ldr	w0, [x29,#368]
    7f5c:	7100001f 	cmp	w0, #0x0
    7f60:	54000cab 	b.lt	80f4 <trace_printf+0x3d4>
/home/rex/devel/optee/optee_os/lib/libutils/ext/trace.c:116
    7f64:	b98173a0 	ldrsw	x0, [x29,#368]
    7f68:	f940bfa1 	ldr	x1, [x29,#376]
    7f6c:	8b000020 	add	x0, x1, x0
    7f70:	f900bfa0 	str	x0, [x29,#376]
/home/rex/devel/optee/optee_os/lib/libutils/ext/trace.c:119
    7f74:	910143a1 	add	x1, x29, #0x50
    7f78:	f940bfa0 	ldr	x0, [x29,#376]
    7f7c:	8b000023 	add	x3, x1, x0
    7f80:	d2802001 	mov	x1, #0x100                 	// #256
    7f84:	f940bfa0 	ldr	x0, [x29,#376]
    7f88:	cb000021 	sub	x1, x1, x0
    7f8c:	90000040 	adrp	x0, f000 <__func__.4113+0x18>
    7f90:	91296000 	add	x0, x0, #0xa58
    7f94:	aa0003e2 	mov	x2, x0
    7f98:	aa0303e0 	mov	x0, x3
    7f9c:	97fff6a1 	bl	5a20 <snprintk>
    7fa0:	b90173a0 	str	w0, [x29,#368]
/home/rex/devel/optee/optee_os/lib/libutils/ext/trace.c:120
    7fa4:	b94173a0 	ldr	w0, [x29,#368]
    7fa8:	7100001f 	cmp	w0, #0x0
    7fac:	54000a8b 	b.lt	80fc <trace_printf+0x3dc>
/home/rex/devel/optee/optee_os/lib/libutils/ext/trace.c:122
    7fb0:	b98173a0 	ldrsw	x0, [x29,#368]
    7fb4:	f940bfa1 	ldr	x1, [x29,#376]
    7fb8:	8b000020 	add	x0, x1, x0
    7fbc:	f900bfa0 	str	x0, [x29,#376]
/home/rex/devel/optee/optee_os/lib/libutils/ext/trace.c:124
    7fc0:	910883a0 	add	x0, x29, #0x220
    7fc4:	f900aba0 	str	x0, [x29,#336]
    7fc8:	910883a0 	add	x0, x29, #0x220
    7fcc:	f900afa0 	str	x0, [x29,#344]
    7fd0:	910803a0 	add	x0, x29, #0x200
    7fd4:	f900b3a0 	str	x0, [x29,#352]
    7fd8:	128002e0 	mov	w0, #0xffffffe8            	// #-24
    7fdc:	b9016ba0 	str	w0, [x29,#360]
    7fe0:	12800fe0 	mov	w0, #0xffffff80            	// #-128
    7fe4:	b9016fa0 	str	w0, [x29,#364]
/home/rex/devel/optee/optee_os/lib/libutils/ext/trace.c:125
    7fe8:	910143a1 	add	x1, x29, #0x50
    7fec:	f940bfa0 	ldr	x0, [x29,#376]
    7ff0:	8b000024 	add	x4, x1, x0
    7ff4:	d2802001 	mov	x1, #0x100                 	// #256
    7ff8:	f940bfa0 	ldr	x0, [x29,#376]
    7ffc:	cb000025 	sub	x5, x1, x0
    8000:	910403a0 	add	x0, x29, #0x100
    8004:	91014000 	add	x0, x0, #0x50
    8008:	a9400400 	ldp	x0, x1, [x0]
    800c:	a90107a0 	stp	x0, x1, [x29,#16]
    8010:	910403a0 	add	x0, x29, #0x100
    8014:	91018000 	add	x0, x0, #0x60
    8018:	a9400400 	ldp	x0, x1, [x0]
    801c:	a90207a0 	stp	x0, x1, [x29,#32]
    8020:	910043a0 	add	x0, x29, #0x10
    8024:	aa0003e3 	mov	x3, x0
    8028:	f9401ba2 	ldr	x2, [x29,#48]
    802c:	aa0503e1 	mov	x1, x5
    8030:	aa0403e0 	mov	x0, x4
    8034:	97fff6a9 	bl	5ad8 <vsnprintk>
    8038:	b90173a0 	str	w0, [x29,#368]
/home/rex/devel/optee/optee_os/lib/libutils/ext/trace.c:127
    803c:	b94173a0 	ldr	w0, [x29,#368]
    8040:	7100001f 	cmp	w0, #0x0
    8044:	540000ad 	b.le	8058 <trace_printf+0x338>
/home/rex/devel/optee/optee_os/lib/libutils/ext/trace.c:128
    8048:	b98173a0 	ldrsw	x0, [x29,#368]
    804c:	f940bfa1 	ldr	x1, [x29,#376]
    8050:	8b000020 	add	x0, x1, x0
    8054:	f900bfa0 	str	x0, [x29,#376]
/home/rex/devel/optee/optee_os/lib/libutils/ext/trace.c:130
    8058:	f940bfa0 	ldr	x0, [x29,#376]
    805c:	f103f81f 	cmp	x0, #0xfe
    8060:	54000069 	b.ls	806c <trace_printf+0x34c>
/home/rex/devel/optee/optee_os/lib/libutils/ext/trace.c:131
    8064:	d2801fc0 	mov	x0, #0xfe                  	// #254
    8068:	f900bfa0 	str	x0, [x29,#376]
/home/rex/devel/optee/optee_os/lib/libutils/ext/trace.c:133
    806c:	f940bfa0 	ldr	x0, [x29,#376]
    8070:	910143a1 	add	x1, x29, #0x50
    8074:	52800142 	mov	w2, #0xa                   	// #10
    8078:	38206822 	strb	w2, [x1,x0]
/home/rex/devel/optee/optee_os/lib/libutils/ext/trace.c:134
    807c:	14000004 	b	808c <trace_printf+0x36c>
/home/rex/devel/optee/optee_os/lib/libutils/ext/trace.c:135
    8080:	f940bfa0 	ldr	x0, [x29,#376]
    8084:	d1000400 	sub	x0, x0, #0x1
    8088:	f900bfa0 	str	x0, [x29,#376]
/home/rex/devel/optee/optee_os/lib/libutils/ext/trace.c:134
    808c:	f940bfa0 	ldr	x0, [x29,#376]
    8090:	f100001f 	cmp	x0, #0x0
    8094:	540000c0 	b.eq	80ac <trace_printf+0x38c>
/home/rex/devel/optee/optee_os/lib/libutils/ext/trace.c:134 (discriminator 1)
    8098:	f940bfa0 	ldr	x0, [x29,#376]
    809c:	910143a1 	add	x1, x29, #0x50
    80a0:	38606820 	ldrb	w0, [x1,x0]
    80a4:	7100281f 	cmp	w0, #0xa
    80a8:	54fffec0 	b.eq	8080 <trace_printf+0x360>
/home/rex/devel/optee/optee_os/lib/libutils/ext/trace.c:136
    80ac:	f940bfa0 	ldr	x0, [x29,#376]
    80b0:	91000400 	add	x0, x0, #0x1
    80b4:	f900bfa0 	str	x0, [x29,#376]
/home/rex/devel/optee/optee_os/lib/libutils/ext/trace.c:137
    80b8:	f940bfa0 	ldr	x0, [x29,#376]
    80bc:	91000400 	add	x0, x0, #0x1
    80c0:	910143a1 	add	x1, x29, #0x50
    80c4:	3820683f 	strb	wzr, [x1,x0]
/home/rex/devel/optee/optee_os/lib/libutils/ext/trace.c:139
    80c8:	910143a0 	add	x0, x29, #0x50
    80cc:	97ffeb40 	bl	2dcc <trace_ext_puts>
    80d0:	1400000c 	b	8100 <trace_printf+0x3e0>
/home/rex/devel/optee/optee_os/lib/libutils/ext/trace.c:81
    80d4:	d503201f 	nop
    80d8:	1400000a 	b	8100 <trace_printf+0x3e0>
/home/rex/devel/optee/optee_os/lib/libutils/ext/trace.c:86
    80dc:	d503201f 	nop
    80e0:	14000008 	b	8100 <trace_printf+0x3e0>
/home/rex/devel/optee/optee_os/lib/libutils/ext/trace.c:98
    80e4:	d503201f 	nop
    80e8:	14000006 	b	8100 <trace_printf+0x3e0>
/home/rex/devel/optee/optee_os/lib/libutils/ext/trace.c:105
    80ec:	d503201f 	nop
    80f0:	14000004 	b	8100 <trace_printf+0x3e0>
/home/rex/devel/optee/optee_os/lib/libutils/ext/trace.c:115
    80f4:	d503201f 	nop
    80f8:	14000002 	b	8100 <trace_printf+0x3e0>
/home/rex/devel/optee/optee_os/lib/libutils/ext/trace.c:121
    80fc:	d503201f 	nop
/home/rex/devel/optee/optee_os/lib/libutils/ext/trace.c:140
    8100:	a9407bfd 	ldp	x29, x30, [sp]
    8104:	910883ff 	add	sp, sp, #0x220
    8108:	d65f03c0 	ret

000000000000810c <dhex_dump>:
dhex_dump():
/home/rex/devel/optee/optee_os/lib/libutils/ext/trace.c:251
    810c:	d10083ff 	sub	sp, sp, #0x20
    8110:	f9000fe0 	str	x0, [sp,#24]
    8114:	b90017e1 	str	w1, [sp,#20]
    8118:	b90013e2 	str	w2, [sp,#16]
    811c:	f90007e3 	str	x3, [sp,#8]
    8120:	b90007e4 	str	w4, [sp,#4]
/home/rex/devel/optee/optee_os/lib/libutils/ext/trace.c:252
    8124:	d503201f 	nop
    8128:	910083ff 	add	sp, sp, #0x20
    812c:	d65f03c0 	ret

0000000000008130 <memchr>:
memchr():
/home/rex/devel/optee/optee_os/lib/libutils/isoc/newlib/memchr.c:106
    8130:	d10103ff 	sub	sp, sp, #0x40
    8134:	f9000fe0 	str	x0, [sp,#24]
    8138:	b90017e1 	str	w1, [sp,#20]
    813c:	f90007e2 	str	x2, [sp,#8]
/home/rex/devel/optee/optee_os/lib/libutils/isoc/newlib/memchr.c:107
    8140:	f9400fe0 	ldr	x0, [sp,#24]
    8144:	f9001fe0 	str	x0, [sp,#56]
/home/rex/devel/optee/optee_os/lib/libutils/isoc/newlib/memchr.c:108
    8148:	b94017e0 	ldr	w0, [sp,#20]
    814c:	39008fe0 	strb	w0, [sp,#35]
/home/rex/devel/optee/optee_os/lib/libutils/isoc/newlib/memchr.c:115
    8150:	14000012 	b	8198 <memchr+0x68>
/home/rex/devel/optee/optee_os/lib/libutils/isoc/newlib/memchr.c:116
    8154:	f94007e0 	ldr	x0, [sp,#8]
    8158:	d1000401 	sub	x1, x0, #0x1
    815c:	f90007e1 	str	x1, [sp,#8]
    8160:	f100001f 	cmp	x0, #0x0
    8164:	54000061 	b.ne	8170 <memchr+0x40>
/home/rex/devel/optee/optee_os/lib/libutils/isoc/newlib/memchr.c:117
    8168:	d2800000 	mov	x0, #0x0                   	// #0
    816c:	1400005d 	b	82e0 <memchr+0x1b0>
/home/rex/devel/optee/optee_os/lib/libutils/isoc/newlib/memchr.c:118
    8170:	f9401fe0 	ldr	x0, [sp,#56]
    8174:	39400000 	ldrb	w0, [x0]
    8178:	39408fe1 	ldrb	w1, [sp,#35]
    817c:	6b00003f 	cmp	w1, w0
    8180:	54000061 	b.ne	818c <memchr+0x5c>
/home/rex/devel/optee/optee_os/lib/libutils/isoc/newlib/memchr.c:119
    8184:	f9401fe0 	ldr	x0, [sp,#56]
    8188:	14000056 	b	82e0 <memchr+0x1b0>
/home/rex/devel/optee/optee_os/lib/libutils/isoc/newlib/memchr.c:120
    818c:	f9401fe0 	ldr	x0, [sp,#56]
    8190:	91000400 	add	x0, x0, #0x1
    8194:	f9001fe0 	str	x0, [sp,#56]
/home/rex/devel/optee/optee_os/lib/libutils/isoc/newlib/memchr.c:115
    8198:	f9401fe0 	ldr	x0, [sp,#56]
    819c:	92400800 	and	x0, x0, #0x7
    81a0:	f100001f 	cmp	x0, #0x0
    81a4:	54fffd81 	b.ne	8154 <memchr+0x24>
/home/rex/devel/optee/optee_os/lib/libutils/isoc/newlib/memchr.c:123
    81a8:	f94007e0 	ldr	x0, [sp,#8]
    81ac:	f1001c1f 	cmp	x0, #0x7
    81b0:	540008c9 	b.ls	82c8 <memchr+0x198>
/home/rex/devel/optee/optee_os/lib/libutils/isoc/newlib/memchr.c:132
    81b4:	f9401fe0 	ldr	x0, [sp,#56]
    81b8:	f9001be0 	str	x0, [sp,#48]
/home/rex/devel/optee/optee_os/lib/libutils/isoc/newlib/memchr.c:133
    81bc:	39408fe0 	ldrb	w0, [sp,#35]
    81c0:	53185c01 	lsl	w1, w0, #8
    81c4:	39408fe0 	ldrb	w0, [sp,#35]
    81c8:	2a000020 	orr	w0, w1, w0
    81cc:	93407c00 	sxtw	x0, w0
    81d0:	f90017e0 	str	x0, [sp,#40]
/home/rex/devel/optee/optee_os/lib/libutils/isoc/newlib/memchr.c:134
    81d4:	f94017e0 	ldr	x0, [sp,#40]
    81d8:	d370bc00 	lsl	x0, x0, #16
    81dc:	f94017e1 	ldr	x1, [sp,#40]
    81e0:	aa000020 	orr	x0, x1, x0
    81e4:	f90017e0 	str	x0, [sp,#40]
/home/rex/devel/optee/optee_os/lib/libutils/isoc/newlib/memchr.c:135
    81e8:	52800400 	mov	w0, #0x20                  	// #32
    81ec:	b90027e0 	str	w0, [sp,#36]
    81f0:	1400000a 	b	8218 <memchr+0xe8>
/home/rex/devel/optee/optee_os/lib/libutils/isoc/newlib/memchr.c:136 (discriminator 3)
    81f4:	b94027e0 	ldr	w0, [sp,#36]
    81f8:	f94017e1 	ldr	x1, [sp,#40]
    81fc:	9ac02020 	lsl	x0, x1, x0
    8200:	f94017e1 	ldr	x1, [sp,#40]
    8204:	aa000020 	orr	x0, x1, x0
    8208:	f90017e0 	str	x0, [sp,#40]
/home/rex/devel/optee/optee_os/lib/libutils/isoc/newlib/memchr.c:135 (discriminator 3)
    820c:	b94027e0 	ldr	w0, [sp,#36]
    8210:	531f7800 	lsl	w0, w0, #1
    8214:	b90027e0 	str	w0, [sp,#36]
/home/rex/devel/optee/optee_os/lib/libutils/isoc/newlib/memchr.c:135 (discriminator 1)
    8218:	b94027e0 	ldr	w0, [sp,#36]
    821c:	7100fc1f 	cmp	w0, #0x3f
    8220:	54fffea9 	b.ls	81f4 <memchr+0xc4>
/home/rex/devel/optee/optee_os/lib/libutils/isoc/newlib/memchr.c:138
    8224:	14000017 	b	8280 <memchr+0x150>
/home/rex/devel/optee/optee_os/lib/libutils/isoc/newlib/memchr.c:139
    8228:	f9401be0 	ldr	x0, [sp,#48]
    822c:	f9400001 	ldr	x1, [x0]
    8230:	f94017e0 	ldr	x0, [sp,#40]
    8234:	ca000021 	eor	x1, x1, x0
    8238:	b207dbe0 	mov	x0, #0xfefefefefefefefe    	// #-72340172838076674
    823c:	f29fdfe0 	movk	x0, #0xfeff
    8240:	8b000021 	add	x1, x1, x0
    8244:	f9401be0 	ldr	x0, [sp,#48]
    8248:	f9400002 	ldr	x2, [x0]
    824c:	f94017e0 	ldr	x0, [sp,#40]
    8250:	ca000040 	eor	x0, x2, x0
    8254:	aa2003e0 	mvn	x0, x0
    8258:	8a000020 	and	x0, x1, x0
    825c:	9201c000 	and	x0, x0, #0x8080808080808080
    8260:	f100001f 	cmp	x0, #0x0
    8264:	54000161 	b.ne	8290 <memchr+0x160>
/home/rex/devel/optee/optee_os/lib/libutils/isoc/newlib/memchr.c:141
    8268:	f94007e0 	ldr	x0, [sp,#8]
    826c:	d1002000 	sub	x0, x0, #0x8
    8270:	f90007e0 	str	x0, [sp,#8]
/home/rex/devel/optee/optee_os/lib/libutils/isoc/newlib/memchr.c:142
    8274:	f9401be0 	ldr	x0, [sp,#48]
    8278:	91002000 	add	x0, x0, #0x8
    827c:	f9001be0 	str	x0, [sp,#48]
/home/rex/devel/optee/optee_os/lib/libutils/isoc/newlib/memchr.c:138
    8280:	f94007e0 	ldr	x0, [sp,#8]
    8284:	f1001c1f 	cmp	x0, #0x7
    8288:	54fffd08 	b.hi	8228 <memchr+0xf8>
    828c:	14000002 	b	8294 <memchr+0x164>
/home/rex/devel/optee/optee_os/lib/libutils/isoc/newlib/memchr.c:140
    8290:	d503201f 	nop
/home/rex/devel/optee/optee_os/lib/libutils/isoc/newlib/memchr.c:148
    8294:	f9401be0 	ldr	x0, [sp,#48]
    8298:	f9001fe0 	str	x0, [sp,#56]
/home/rex/devel/optee/optee_os/lib/libutils/isoc/newlib/memchr.c:152
    829c:	1400000b 	b	82c8 <memchr+0x198>
/home/rex/devel/optee/optee_os/lib/libutils/isoc/newlib/memchr.c:153
    82a0:	f9401fe0 	ldr	x0, [sp,#56]
    82a4:	39400000 	ldrb	w0, [x0]
    82a8:	39408fe1 	ldrb	w1, [sp,#35]
    82ac:	6b00003f 	cmp	w1, w0
    82b0:	54000061 	b.ne	82bc <memchr+0x18c>
/home/rex/devel/optee/optee_os/lib/libutils/isoc/newlib/memchr.c:154
    82b4:	f9401fe0 	ldr	x0, [sp,#56]
    82b8:	1400000a 	b	82e0 <memchr+0x1b0>
/home/rex/devel/optee/optee_os/lib/libutils/isoc/newlib/memchr.c:155
    82bc:	f9401fe0 	ldr	x0, [sp,#56]
    82c0:	91000400 	add	x0, x0, #0x1
    82c4:	f9001fe0 	str	x0, [sp,#56]
/home/rex/devel/optee/optee_os/lib/libutils/isoc/newlib/memchr.c:152
    82c8:	f94007e0 	ldr	x0, [sp,#8]
    82cc:	d1000401 	sub	x1, x0, #0x1
    82d0:	f90007e1 	str	x1, [sp,#8]
    82d4:	f100001f 	cmp	x0, #0x0
    82d8:	54fffe41 	b.ne	82a0 <memchr+0x170>
/home/rex/devel/optee/optee_os/lib/libutils/isoc/newlib/memchr.c:158
    82dc:	d2800000 	mov	x0, #0x0                   	// #0
/home/rex/devel/optee/optee_os/lib/libutils/isoc/newlib/memchr.c:159
    82e0:	910103ff 	add	sp, sp, #0x40
    82e4:	d65f03c0 	ret

00000000000082e8 <__mpa_set_unused_digits_to_zero>:
__mpa_set_unused_digits_to_zero():
/home/rex/devel/optee/optee_os/lib/libmpa/mpa_misc.c:52
    82e8:	a9bd7bfd 	stp	x29, x30, [sp,#-48]!
    82ec:	910003fd 	mov	x29, sp
    82f0:	f9000fa0 	str	x0, [x29,#24]
/home/rex/devel/optee/optee_os/lib/libmpa/mpa_misc.c:59
    82f4:	f9400fa0 	ldr	x0, [x29,#24]
    82f8:	b9400400 	ldr	w0, [x0,#4]
    82fc:	7100001f 	cmp	w0, #0x0
    8300:	5a80a400 	cneg	w0, w0, lt
    8304:	b9002fa0 	str	w0, [x29,#44]
/home/rex/devel/optee/optee_os/lib/libmpa/mpa_misc.c:60
    8308:	f9400fa0 	ldr	x0, [x29,#24]
    830c:	91002001 	add	x1, x0, #0x8
    8310:	b9802fa0 	ldrsw	x0, [x29,#44]
    8314:	d37ef400 	lsl	x0, x0, #2
    8318:	8b000023 	add	x3, x1, x0
    831c:	f9400fa0 	ldr	x0, [x29,#24]
    8320:	b9400001 	ldr	w1, [x0]
    8324:	b9402fa0 	ldr	w0, [x29,#44]
    8328:	4b000020 	sub	w0, w1, w0
    832c:	531e7400 	lsl	w0, w0, #2
    8330:	2a0003e0 	mov	w0, w0
    8334:	aa0003e2 	mov	x2, x0
    8338:	52800001 	mov	w1, #0x0                   	// #0
    833c:	aa0303e0 	mov	x0, x3
    8340:	97fff510 	bl	5780 <memset>
/home/rex/devel/optee/optee_os/lib/libmpa/mpa_misc.c:61
    8344:	d503201f 	nop
    8348:	a8c37bfd 	ldp	x29, x30, [sp],#48
    834c:	d65f03c0 	ret

0000000000008350 <mpa_wipe>:
mpa_wipe():
/home/rex/devel/optee/optee_os/lib/libmpa/mpa_misc.c:77
    8350:	a9be7bfd 	stp	x29, x30, [sp,#-32]!
    8354:	910003fd 	mov	x29, sp
    8358:	f9000fa0 	str	x0, [x29,#24]
/home/rex/devel/optee/optee_os/lib/libmpa/mpa_misc.c:78
    835c:	f9400fa0 	ldr	x0, [x29,#24]
    8360:	91002003 	add	x3, x0, #0x8
    8364:	f9400fa0 	ldr	x0, [x29,#24]
    8368:	b9400000 	ldr	w0, [x0]
    836c:	531e7400 	lsl	w0, w0, #2
    8370:	2a0003e0 	mov	w0, w0
    8374:	aa0003e2 	mov	x2, x0
    8378:	52800001 	mov	w1, #0x0                   	// #0
    837c:	aa0303e0 	mov	x0, x3
    8380:	97fff500 	bl	5780 <memset>
/home/rex/devel/optee/optee_os/lib/libmpa/mpa_misc.c:79
    8384:	f9400fa0 	ldr	x0, [x29,#24]
    8388:	b900041f 	str	wzr, [x0,#4]
/home/rex/devel/optee/optee_os/lib/libmpa/mpa_misc.c:80
    838c:	d503201f 	nop
    8390:	a8c27bfd 	ldp	x29, x30, [sp],#32
    8394:	d65f03c0 	ret

0000000000008398 <mpa_copy>:
mpa_copy():
/home/rex/devel/optee/optee_os/lib/libmpa/mpa_misc.c:92
    8398:	a9be7bfd 	stp	x29, x30, [sp,#-32]!
    839c:	910003fd 	mov	x29, sp
    83a0:	f9000fa0 	str	x0, [x29,#24]
    83a4:	f9000ba1 	str	x1, [x29,#16]
/home/rex/devel/optee/optee_os/lib/libmpa/mpa_misc.c:93
    83a8:	f9400fa1 	ldr	x1, [x29,#24]
    83ac:	f9400ba0 	ldr	x0, [x29,#16]
    83b0:	eb00003f 	cmp	x1, x0
    83b4:	54000260 	b.eq	8400 <mpa_copy+0x68>
/home/rex/devel/optee/optee_os/lib/libmpa/mpa_misc.c:96
    83b8:	f9400fa0 	ldr	x0, [x29,#24]
    83bc:	91002003 	add	x3, x0, #0x8
    83c0:	f9400ba0 	ldr	x0, [x29,#16]
    83c4:	91002001 	add	x1, x0, #0x8
    83c8:	f9400ba0 	ldr	x0, [x29,#16]
    83cc:	b9400400 	ldr	w0, [x0,#4]
    83d0:	7100001f 	cmp	w0, #0x0
    83d4:	5a80a400 	cneg	w0, w0, lt
    83d8:	531e7400 	lsl	w0, w0, #2
    83dc:	93407c00 	sxtw	x0, w0
    83e0:	aa0003e2 	mov	x2, x0
    83e4:	aa0303e0 	mov	x0, x3
    83e8:	97fff403 	bl	53f4 <memcpy>
/home/rex/devel/optee/optee_os/lib/libmpa/mpa_misc.c:97
    83ec:	f9400ba0 	ldr	x0, [x29,#16]
    83f0:	b9400401 	ldr	w1, [x0,#4]
    83f4:	f9400fa0 	ldr	x0, [x29,#24]
    83f8:	b9000401 	str	w1, [x0,#4]
    83fc:	14000002 	b	8404 <mpa_copy+0x6c>
/home/rex/devel/optee/optee_os/lib/libmpa/mpa_misc.c:94
    8400:	d503201f 	nop
/home/rex/devel/optee/optee_os/lib/libmpa/mpa_misc.c:98
    8404:	a8c27bfd 	ldp	x29, x30, [sp],#32
    8408:	d65f03c0 	ret

000000000000840c <mpa_abs>:
mpa_abs():
/home/rex/devel/optee/optee_os/lib/libmpa/mpa_misc.c:106
    840c:	a9be7bfd 	stp	x29, x30, [sp,#-32]!
    8410:	910003fd 	mov	x29, sp
    8414:	f9000fa0 	str	x0, [x29,#24]
    8418:	f9000ba1 	str	x1, [x29,#16]
/home/rex/devel/optee/optee_os/lib/libmpa/mpa_misc.c:107
    841c:	f9400ba1 	ldr	x1, [x29,#16]
    8420:	f9400fa0 	ldr	x0, [x29,#24]
    8424:	97ffffdd 	bl	8398 <mpa_copy>
/home/rex/devel/optee/optee_os/lib/libmpa/mpa_misc.c:108
    8428:	f9400fa0 	ldr	x0, [x29,#24]
    842c:	b9400400 	ldr	w0, [x0,#4]
    8430:	7100001f 	cmp	w0, #0x0
    8434:	540000ca 	b.ge	844c <mpa_abs+0x40>
/home/rex/devel/optee/optee_os/lib/libmpa/mpa_misc.c:108 (discriminator 1)
    8438:	f9400fa0 	ldr	x0, [x29,#24]
    843c:	b9400400 	ldr	w0, [x0,#4]
    8440:	4b0003e1 	neg	w1, w0
    8444:	f9400fa0 	ldr	x0, [x29,#24]
    8448:	b9000401 	str	w1, [x0,#4]
/home/rex/devel/optee/optee_os/lib/libmpa/mpa_misc.c:109
    844c:	d503201f 	nop
    8450:	a8c27bfd 	ldp	x29, x30, [sp],#32
    8454:	d65f03c0 	ret

0000000000008458 <mpa_highest_bit_index>:
mpa_highest_bit_index():
/home/rex/devel/optee/optee_os/lib/libmpa/mpa_misc.c:119
    8458:	d10083ff 	sub	sp, sp, #0x20
    845c:	f90007e0 	str	x0, [sp,#8]
/home/rex/devel/optee/optee_os/lib/libmpa/mpa_misc.c:123
    8460:	f94007e0 	ldr	x0, [sp,#8]
    8464:	b9400400 	ldr	w0, [x0,#4]
    8468:	7100001f 	cmp	w0, #0x0
    846c:	54000061 	b.ne	8478 <mpa_highest_bit_index+0x20>
/home/rex/devel/optee/optee_os/lib/libmpa/mpa_misc.c:124
    8470:	12800000 	mov	w0, #0xffffffff            	// #-1
    8474:	14000025 	b	8508 <mpa_highest_bit_index+0xb0>
/home/rex/devel/optee/optee_os/lib/libmpa/mpa_misc.c:126
    8478:	f94007e0 	ldr	x0, [sp,#8]
    847c:	b9400400 	ldr	w0, [x0,#4]
    8480:	7100001f 	cmp	w0, #0x0
    8484:	5a80a400 	cneg	w0, w0, lt
    8488:	51000400 	sub	w0, w0, #0x1
    848c:	f94007e1 	ldr	x1, [sp,#8]
    8490:	93407c00 	sxtw	x0, w0
    8494:	d37ef400 	lsl	x0, x0, #2
    8498:	8b000020 	add	x0, x1, x0
    849c:	b9400800 	ldr	w0, [x0,#8]
    84a0:	b9001fe0 	str	w0, [sp,#28]
/home/rex/devel/optee/optee_os/lib/libmpa/mpa_misc.c:128
    84a4:	b9001bff 	str	wzr, [sp,#24]
    84a8:	1400000a 	b	84d0 <mpa_highest_bit_index+0x78>
/home/rex/devel/optee/optee_os/lib/libmpa/mpa_misc.c:129
    84ac:	b9401fe0 	ldr	w0, [sp,#28]
    84b0:	53017c00 	lsr	w0, w0, #1
    84b4:	b9001fe0 	str	w0, [sp,#28]
/home/rex/devel/optee/optee_os/lib/libmpa/mpa_misc.c:130
    84b8:	b9401fe0 	ldr	w0, [sp,#28]
    84bc:	7100001f 	cmp	w0, #0x0
    84c0:	54000100 	b.eq	84e0 <mpa_highest_bit_index+0x88>
/home/rex/devel/optee/optee_os/lib/libmpa/mpa_misc.c:128 (discriminator 2)
    84c4:	b9401be0 	ldr	w0, [sp,#24]
    84c8:	11000400 	add	w0, w0, #0x1
    84cc:	b9001be0 	str	w0, [sp,#24]
/home/rex/devel/optee/optee_os/lib/libmpa/mpa_misc.c:128 (discriminator 1)
    84d0:	b9401be0 	ldr	w0, [sp,#24]
    84d4:	71007c1f 	cmp	w0, #0x1f
    84d8:	54fffea9 	b.ls	84ac <mpa_highest_bit_index+0x54>
    84dc:	14000002 	b	84e4 <mpa_highest_bit_index+0x8c>
/home/rex/devel/optee/optee_os/lib/libmpa/mpa_misc.c:131
    84e0:	d503201f 	nop
/home/rex/devel/optee/optee_os/lib/libmpa/mpa_misc.c:133
    84e4:	f94007e0 	ldr	x0, [sp,#8]
    84e8:	b9400400 	ldr	w0, [x0,#4]
    84ec:	7100001f 	cmp	w0, #0x0
    84f0:	5a80a400 	cneg	w0, w0, lt
    84f4:	51000400 	sub	w0, w0, #0x1
    84f8:	531b6800 	lsl	w0, w0, #5
    84fc:	2a0003e1 	mov	w1, w0
    8500:	b9401be0 	ldr	w0, [sp,#24]
    8504:	0b000020 	add	w0, w1, w0
/home/rex/devel/optee/optee_os/lib/libmpa/mpa_misc.c:134
    8508:	910083ff 	add	sp, sp, #0x20
    850c:	d65f03c0 	ret

0000000000008510 <mpa_get_bit>:
mpa_get_bit():
/home/rex/devel/optee/optee_os/lib/libmpa/mpa_misc.c:146
    8510:	d10083ff 	sub	sp, sp, #0x20
    8514:	f90007e0 	str	x0, [sp,#8]
    8518:	b90007e1 	str	w1, [sp,#4]
/home/rex/devel/optee/optee_os/lib/libmpa/mpa_misc.c:150
    851c:	b94007e0 	ldr	w0, [sp,#4]
    8520:	53057c00 	lsr	w0, w0, #5
    8524:	b9001fe0 	str	w0, [sp,#28]
/home/rex/devel/optee/optee_os/lib/libmpa/mpa_misc.c:151
    8528:	b94007e0 	ldr	w0, [sp,#4]
    852c:	92401000 	and	x0, x0, #0x1f
    8530:	f9000be0 	str	x0, [sp,#16]
/home/rex/devel/optee/optee_os/lib/libmpa/mpa_misc.c:153
    8534:	f94007e0 	ldr	x0, [sp,#8]
    8538:	b9400400 	ldr	w0, [x0,#4]
    853c:	7100001f 	cmp	w0, #0x0
    8540:	5a80a400 	cneg	w0, w0, lt
    8544:	2a0003e1 	mov	w1, w0
    8548:	b9401fe0 	ldr	w0, [sp,#28]
    854c:	6b00003f 	cmp	w1, w0
    8550:	54000062 	b.cs	855c <mpa_get_bit+0x4c>
/home/rex/devel/optee/optee_os/lib/libmpa/mpa_misc.c:154
    8554:	52800000 	mov	w0, #0x0                   	// #0
    8558:	14000011 	b	859c <mpa_get_bit+0x8c>
/home/rex/devel/optee/optee_os/lib/libmpa/mpa_misc.c:155
    855c:	f9400be0 	ldr	x0, [sp,#16]
    8560:	2a0003e1 	mov	w1, w0
    8564:	d2800020 	mov	x0, #0x1                   	// #1
    8568:	9ac12000 	lsl	x0, x0, x1
    856c:	f9000be0 	str	x0, [sp,#16]
/home/rex/devel/optee/optee_os/lib/libmpa/mpa_misc.c:156
    8570:	f94007e1 	ldr	x1, [sp,#8]
    8574:	b9401fe0 	ldr	w0, [sp,#28]
    8578:	d37ef400 	lsl	x0, x0, #2
    857c:	8b000020 	add	x0, x1, x0
    8580:	b9400800 	ldr	w0, [x0,#8]
    8584:	2a0003e1 	mov	w1, w0
    8588:	f9400be0 	ldr	x0, [sp,#16]
    858c:	8a000020 	and	x0, x1, x0
    8590:	f100001f 	cmp	x0, #0x0
    8594:	1a9f07e0 	cset	w0, ne
    8598:	12001c00 	and	w0, w0, #0xff
/home/rex/devel/optee/optee_os/lib/libmpa/mpa_misc.c:157
    859c:	910083ff 	add	sp, sp, #0x20
    85a0:	d65f03c0 	ret

00000000000085a4 <mpa_can_hold>:
mpa_can_hold():
/home/rex/devel/optee/optee_os/lib/libmpa/mpa_misc.c:166
    85a4:	d10043ff 	sub	sp, sp, #0x10
    85a8:	f90007e0 	str	x0, [sp,#8]
    85ac:	f90003e1 	str	x1, [sp]
/home/rex/devel/optee/optee_os/lib/libmpa/mpa_misc.c:167
    85b0:	f94007e0 	ldr	x0, [sp,#8]
    85b4:	b9400001 	ldr	w1, [x0]
    85b8:	f94003e0 	ldr	x0, [sp]
    85bc:	b9400400 	ldr	w0, [x0,#4]
    85c0:	7100001f 	cmp	w0, #0x0
    85c4:	5a80a400 	cneg	w0, w0, lt
    85c8:	6b00003f 	cmp	w1, w0
    85cc:	1a9f37e0 	cset	w0, cs
    85d0:	12001c00 	and	w0, w0, #0xff
/home/rex/devel/optee/optee_os/lib/libmpa/mpa_misc.c:168
    85d4:	910043ff 	add	sp, sp, #0x10
    85d8:	d65f03c0 	ret

00000000000085dc <mpa_parity>:
mpa_parity():
/home/rex/devel/optee/optee_os/lib/libmpa/mpa_misc.c:176
    85dc:	d10043ff 	sub	sp, sp, #0x10
    85e0:	f90007e0 	str	x0, [sp,#8]
/home/rex/devel/optee/optee_os/lib/libmpa/mpa_misc.c:177
    85e4:	f94007e0 	ldr	x0, [sp,#8]
    85e8:	b9400800 	ldr	w0, [x0,#8]
    85ec:	12000000 	and	w0, w0, #0x1
/home/rex/devel/optee/optee_os/lib/libmpa/mpa_misc.c:178
    85f0:	7100001f 	cmp	w0, #0x0
    85f4:	1a9f07e0 	cset	w0, ne
    85f8:	12001c00 	and	w0, w0, #0xff
/home/rex/devel/optee/optee_os/lib/libmpa/mpa_misc.c:179
    85fc:	910043ff 	add	sp, sp, #0x10
    8600:	d65f03c0 	ret

0000000000008604 <mpa_constant_one>:
mpa_constant_one():
/home/rex/devel/optee/optee_os/lib/libmpa/mpa_misc.c:188
    8604:	f0000020 	adrp	x0, f000 <__func__.4113+0x18>
    8608:	912ac000 	add	x0, x0, #0xab0
/home/rex/devel/optee/optee_os/lib/libmpa/mpa_misc.c:189
    860c:	d65f03c0 	ret

0000000000008610 <__mpa_montgomery_mul_add>:
__mpa_montgomery_mul_add():
/home/rex/devel/optee/optee_os/lib/libmpa/mpa_montgomery.c:48
    8610:	d10103ff 	sub	sp, sp, #0x40
    8614:	f9000fe0 	str	x0, [sp,#24]
    8618:	f9000be1 	str	x1, [sp,#16]
    861c:	b9000fe2 	str	w2, [sp,#12]
/home/rex/devel/optee/optee_os/lib/libmpa/mpa_montgomery.c:56
    8620:	b9400fe0 	ldr	w0, [sp,#12]
    8624:	7100001f 	cmp	w0, #0x0
    8628:	54000920 	b.eq	874c <__mpa_montgomery_mul_add+0x13c>
/home/rex/devel/optee/optee_os/lib/libmpa/mpa_montgomery.c:58
    862c:	f9400fe0 	ldr	x0, [sp,#24]
    8630:	91002000 	add	x0, x0, #0x8
    8634:	f90017e0 	str	x0, [sp,#40]
/home/rex/devel/optee/optee_os/lib/libmpa/mpa_montgomery.c:59
    8638:	f9400fe0 	ldr	x0, [sp,#24]
    863c:	91002000 	add	x0, x0, #0x8
    8640:	f9001fe0 	str	x0, [sp,#56]
/home/rex/devel/optee/optee_os/lib/libmpa/mpa_montgomery.c:60
    8644:	b90033ff 	str	wzr, [sp,#48]
/home/rex/devel/optee/optee_os/lib/libmpa/mpa_montgomery.c:61
    8648:	b90037ff 	str	wzr, [sp,#52]
    864c:	1400001b 	b	86b8 <__mpa_montgomery_mul_add+0xa8>
/home/rex/devel/optee/optee_os/lib/libmpa/mpa_montgomery.c:62 (discriminator 3)
    8650:	f9401fe0 	ldr	x0, [sp,#56]
    8654:	b9400000 	ldr	w0, [x0]
    8658:	2a0003e1 	mov	w1, w0
/home/rex/devel/optee/optee_os/lib/libmpa/mpa_montgomery.c:63 (discriminator 3)
    865c:	f9400be2 	ldr	x2, [sp,#16]
    8660:	b98037e0 	ldrsw	x0, [sp,#52]
    8664:	d37ef400 	lsl	x0, x0, #2
    8668:	8b000040 	add	x0, x2, x0
    866c:	b9400800 	ldr	w0, [x0,#8]
    8670:	2a0003e2 	mov	w2, w0
    8674:	b9400fe0 	ldr	w0, [sp,#12]
    8678:	9b007c40 	mul	x0, x2, x0
/home/rex/devel/optee/optee_os/lib/libmpa/mpa_montgomery.c:62 (discriminator 3)
    867c:	8b000021 	add	x1, x1, x0
/home/rex/devel/optee/optee_os/lib/libmpa/mpa_montgomery.c:64 (discriminator 3)
    8680:	b94033e0 	ldr	w0, [sp,#48]
/home/rex/devel/optee/optee_os/lib/libmpa/mpa_montgomery.c:62 (discriminator 3)
    8684:	8b000020 	add	x0, x1, x0
    8688:	f90013e0 	str	x0, [sp,#32]
/home/rex/devel/optee/optee_os/lib/libmpa/mpa_montgomery.c:65 (discriminator 3)
    868c:	f9401fe0 	ldr	x0, [sp,#56]
    8690:	91001001 	add	x1, x0, #0x4
    8694:	f9001fe1 	str	x1, [sp,#56]
    8698:	f94013e1 	ldr	x1, [sp,#32]
    869c:	b9000001 	str	w1, [x0]
/home/rex/devel/optee/optee_os/lib/libmpa/mpa_montgomery.c:66 (discriminator 3)
    86a0:	f94013e0 	ldr	x0, [sp,#32]
    86a4:	d360fc00 	lsr	x0, x0, #32
    86a8:	b90033e0 	str	w0, [sp,#48]
/home/rex/devel/optee/optee_os/lib/libmpa/mpa_montgomery.c:61 (discriminator 3)
    86ac:	b94037e0 	ldr	w0, [sp,#52]
    86b0:	11000400 	add	w0, w0, #0x1
    86b4:	b90037e0 	str	w0, [sp,#52]
/home/rex/devel/optee/optee_os/lib/libmpa/mpa_montgomery.c:61 (discriminator 1)
    86b8:	f9400be0 	ldr	x0, [sp,#16]
    86bc:	b9400401 	ldr	w1, [x0,#4]
    86c0:	b94037e0 	ldr	w0, [sp,#52]
    86c4:	6b00003f 	cmp	w1, w0
    86c8:	54fffc4c 	b.gt	8650 <__mpa_montgomery_mul_add+0x40>
/home/rex/devel/optee/optee_os/lib/libmpa/mpa_montgomery.c:68
    86cc:	1400000f 	b	8708 <__mpa_montgomery_mul_add+0xf8>
/home/rex/devel/optee/optee_os/lib/libmpa/mpa_montgomery.c:69
    86d0:	f9401fe0 	ldr	x0, [sp,#56]
    86d4:	b9400000 	ldr	w0, [x0]
    86d8:	2a0003e1 	mov	w1, w0
    86dc:	b94033e0 	ldr	w0, [sp,#48]
    86e0:	8b000020 	add	x0, x1, x0
    86e4:	f90013e0 	str	x0, [sp,#32]
/home/rex/devel/optee/optee_os/lib/libmpa/mpa_montgomery.c:70
    86e8:	f9401fe0 	ldr	x0, [sp,#56]
    86ec:	91001001 	add	x1, x0, #0x4
    86f0:	f9001fe1 	str	x1, [sp,#56]
    86f4:	f94013e1 	ldr	x1, [sp,#32]
    86f8:	b9000001 	str	w1, [x0]
/home/rex/devel/optee/optee_os/lib/libmpa/mpa_montgomery.c:71
    86fc:	f94013e0 	ldr	x0, [sp,#32]
    8700:	d360fc00 	lsr	x0, x0, #32
    8704:	b90033e0 	str	w0, [sp,#48]
/home/rex/devel/optee/optee_os/lib/libmpa/mpa_montgomery.c:68
    8708:	b94033e0 	ldr	w0, [sp,#48]
    870c:	7100001f 	cmp	w0, #0x0
    8710:	54fffe01 	b.ne	86d0 <__mpa_montgomery_mul_add+0xc0>
/home/rex/devel/optee/optee_os/lib/libmpa/mpa_montgomery.c:73
    8714:	f9401fe1 	ldr	x1, [sp,#56]
    8718:	f94017e0 	ldr	x0, [sp,#40]
    871c:	cb000020 	sub	x0, x1, x0
    8720:	9342fc00 	asr	x0, x0, #2
    8724:	b90037e0 	str	w0, [sp,#52]
/home/rex/devel/optee/optee_os/lib/libmpa/mpa_montgomery.c:74
    8728:	f9400fe0 	ldr	x0, [sp,#24]
    872c:	b9400401 	ldr	w1, [x0,#4]
    8730:	b94037e0 	ldr	w0, [sp,#52]
    8734:	6b00003f 	cmp	w1, w0
    8738:	540000ca 	b.ge	8750 <__mpa_montgomery_mul_add+0x140>
/home/rex/devel/optee/optee_os/lib/libmpa/mpa_montgomery.c:75
    873c:	f9400fe0 	ldr	x0, [sp,#24]
    8740:	b94037e1 	ldr	w1, [sp,#52]
    8744:	b9000401 	str	w1, [x0,#4]
    8748:	14000002 	b	8750 <__mpa_montgomery_mul_add+0x140>
/home/rex/devel/optee/optee_os/lib/libmpa/mpa_montgomery.c:57
    874c:	d503201f 	nop
/home/rex/devel/optee/optee_os/lib/libmpa/mpa_montgomery.c:80
    8750:	910103ff 	add	sp, sp, #0x40
    8754:	d65f03c0 	ret

0000000000008758 <__mpa_montgomery_sub_ack>:
__mpa_montgomery_sub_ack():
/home/rex/devel/optee/optee_os/lib/libmpa/mpa_montgomery.c:90
    8758:	d100c3ff 	sub	sp, sp, #0x30
    875c:	f90007e0 	str	x0, [sp,#8]
    8760:	f90003e1 	str	x1, [sp]
/home/rex/devel/optee/optee_os/lib/libmpa/mpa_montgomery.c:97
    8764:	f94007e0 	ldr	x0, [sp,#8]
    8768:	91002000 	add	x0, x0, #0x8
    876c:	f90017e0 	str	x0, [sp,#40]
/home/rex/devel/optee/optee_os/lib/libmpa/mpa_montgomery.c:98
    8770:	b90027ff 	str	wzr, [sp,#36]
/home/rex/devel/optee/optee_os/lib/libmpa/mpa_montgomery.c:99
    8774:	b90023ff 	str	wzr, [sp,#32]
/home/rex/devel/optee/optee_os/lib/libmpa/mpa_montgomery.c:100
    8778:	1400001a 	b	87e0 <__mpa_montgomery_sub_ack+0x88>
/home/rex/devel/optee/optee_os/lib/libmpa/mpa_montgomery.c:101
    877c:	f94017e0 	ldr	x0, [sp,#40]
    8780:	b9400000 	ldr	w0, [x0]
    8784:	2a0003e1 	mov	w1, w0
    8788:	f94003e2 	ldr	x2, [sp]
    878c:	b98023e0 	ldrsw	x0, [sp,#32]
    8790:	d37ef400 	lsl	x0, x0, #2
    8794:	8b000040 	add	x0, x2, x0
    8798:	b9400800 	ldr	w0, [x0,#8]
    879c:	2a0003e0 	mov	w0, w0
    87a0:	cb000021 	sub	x1, x1, x0
/home/rex/devel/optee/optee_os/lib/libmpa/mpa_montgomery.c:102
    87a4:	b94027e0 	ldr	w0, [sp,#36]
/home/rex/devel/optee/optee_os/lib/libmpa/mpa_montgomery.c:101
    87a8:	cb000020 	sub	x0, x1, x0
    87ac:	f9000fe0 	str	x0, [sp,#24]
/home/rex/devel/optee/optee_os/lib/libmpa/mpa_montgomery.c:103
    87b0:	f94017e0 	ldr	x0, [sp,#40]
    87b4:	91001001 	add	x1, x0, #0x4
    87b8:	f90017e1 	str	x1, [sp,#40]
    87bc:	f9400fe1 	ldr	x1, [sp,#24]
    87c0:	b9000001 	str	w1, [x0]
/home/rex/devel/optee/optee_os/lib/libmpa/mpa_montgomery.c:104
    87c4:	f9400fe0 	ldr	x0, [sp,#24]
    87c8:	d360fc00 	lsr	x0, x0, #32
    87cc:	4b0003e0 	neg	w0, w0
    87d0:	b90027e0 	str	w0, [sp,#36]
/home/rex/devel/optee/optee_os/lib/libmpa/mpa_montgomery.c:105
    87d4:	b94023e0 	ldr	w0, [sp,#32]
    87d8:	11000400 	add	w0, w0, #0x1
    87dc:	b90023e0 	str	w0, [sp,#32]
/home/rex/devel/optee/optee_os/lib/libmpa/mpa_montgomery.c:100
    87e0:	f94003e0 	ldr	x0, [sp]
    87e4:	b9400401 	ldr	w1, [x0,#4]
    87e8:	b94023e0 	ldr	w0, [sp,#32]
    87ec:	6b00003f 	cmp	w1, w0
    87f0:	54fffc6c 	b.gt	877c <__mpa_montgomery_sub_ack+0x24>
/home/rex/devel/optee/optee_os/lib/libmpa/mpa_montgomery.c:109
    87f4:	14000013 	b	8840 <__mpa_montgomery_sub_ack+0xe8>
/home/rex/devel/optee/optee_os/lib/libmpa/mpa_montgomery.c:110
    87f8:	f94017e0 	ldr	x0, [sp,#40]
    87fc:	b9400000 	ldr	w0, [x0]
    8800:	2a0003e1 	mov	w1, w0
    8804:	b94027e0 	ldr	w0, [sp,#36]
    8808:	cb000020 	sub	x0, x1, x0
    880c:	f9000fe0 	str	x0, [sp,#24]
/home/rex/devel/optee/optee_os/lib/libmpa/mpa_montgomery.c:111
    8810:	f94017e0 	ldr	x0, [sp,#40]
    8814:	91001001 	add	x1, x0, #0x4
    8818:	f90017e1 	str	x1, [sp,#40]
    881c:	f9400fe1 	ldr	x1, [sp,#24]
    8820:	b9000001 	str	w1, [x0]
/home/rex/devel/optee/optee_os/lib/libmpa/mpa_montgomery.c:112
    8824:	f9400fe0 	ldr	x0, [sp,#24]
    8828:	d360fc00 	lsr	x0, x0, #32
    882c:	4b0003e0 	neg	w0, w0
    8830:	b90027e0 	str	w0, [sp,#36]
/home/rex/devel/optee/optee_os/lib/libmpa/mpa_montgomery.c:113
    8834:	b94023e0 	ldr	w0, [sp,#32]
    8838:	11000400 	add	w0, w0, #0x1
    883c:	b90023e0 	str	w0, [sp,#32]
/home/rex/devel/optee/optee_os/lib/libmpa/mpa_montgomery.c:109
    8840:	b94027e0 	ldr	w0, [sp,#36]
    8844:	7100001f 	cmp	w0, #0x0
    8848:	54fffd81 	b.ne	87f8 <__mpa_montgomery_sub_ack+0xa0>
/home/rex/devel/optee/optee_os/lib/libmpa/mpa_montgomery.c:115
    884c:	f94007e0 	ldr	x0, [sp,#8]
    8850:	b9400401 	ldr	w1, [x0,#4]
    8854:	b94023e0 	ldr	w0, [sp,#32]
    8858:	6b00003f 	cmp	w1, w0
    885c:	5400024c 	b.gt	88a4 <__mpa_montgomery_sub_ack+0x14c>
/home/rex/devel/optee/optee_os/lib/libmpa/mpa_montgomery.c:117
    8860:	14000006 	b	8878 <__mpa_montgomery_sub_ack+0x120>
/home/rex/devel/optee/optee_os/lib/libmpa/mpa_montgomery.c:118
    8864:	f94007e0 	ldr	x0, [sp,#8]
    8868:	b9400400 	ldr	w0, [x0,#4]
    886c:	51000401 	sub	w1, w0, #0x1
    8870:	f94007e0 	ldr	x0, [sp,#8]
    8874:	b9000401 	str	w1, [x0,#4]
/home/rex/devel/optee/optee_os/lib/libmpa/mpa_montgomery.c:117
    8878:	f94007e0 	ldr	x0, [sp,#8]
    887c:	b9400400 	ldr	w0, [x0,#4]
    8880:	7100001f 	cmp	w0, #0x0
    8884:	5400010d 	b.le	88a4 <__mpa_montgomery_sub_ack+0x14c>
/home/rex/devel/optee/optee_os/lib/libmpa/mpa_montgomery.c:117 (discriminator 1)
    8888:	f94017e0 	ldr	x0, [sp,#40]
    888c:	d1001000 	sub	x0, x0, #0x4
    8890:	f90017e0 	str	x0, [sp,#40]
    8894:	f94017e0 	ldr	x0, [sp,#40]
    8898:	b9400000 	ldr	w0, [x0]
    889c:	7100001f 	cmp	w0, #0x0
    88a0:	54fffe20 	b.eq	8864 <__mpa_montgomery_sub_ack+0x10c>
/home/rex/devel/optee/optee_os/lib/libmpa/mpa_montgomery.c:123
    88a4:	d503201f 	nop
    88a8:	9100c3ff 	add	sp, sp, #0x30
    88ac:	d65f03c0 	ret

00000000000088b0 <__mpa_montgomery_mul>:
__mpa_montgomery_mul():
/home/rex/devel/optee/optee_os/lib/libmpa/mpa_montgomery.c:137
    88b0:	a9bb7bfd 	stp	x29, x30, [sp,#-80]!
    88b4:	910003fd 	mov	x29, sp
    88b8:	f9001fa0 	str	x0, [x29,#56]
    88bc:	f9001ba1 	str	x1, [x29,#48]
    88c0:	f90017a2 	str	x2, [x29,#40]
    88c4:	f90013a3 	str	x3, [x29,#32]
    88c8:	b9001fa4 	str	w4, [x29,#28]
/home/rex/devel/optee/optee_os/lib/libmpa/mpa_montgomery.c:142
    88cc:	f9401fa0 	ldr	x0, [x29,#56]
    88d0:	97fffea0 	bl	8350 <mpa_wipe>
/home/rex/devel/optee/optee_os/lib/libmpa/mpa_montgomery.c:144
    88d4:	b9004fbf 	str	wzr, [x29,#76]
    88d8:	1400005e 	b	8a50 <__mpa_montgomery_mul+0x1a0>
/home/rex/devel/optee/optee_os/lib/libmpa/mpa_montgomery.c:145
    88dc:	f9401fa0 	ldr	x0, [x29,#56]
    88e0:	b9400802 	ldr	w2, [x0,#8]
/home/rex/devel/optee/optee_os/lib/libmpa/mpa_montgomery.c:146
    88e4:	f9401ba0 	ldr	x0, [x29,#48]
    88e8:	b9400400 	ldr	w0, [x0,#4]
    88ec:	7100001f 	cmp	w0, #0x0
    88f0:	5a80a401 	cneg	w1, w0, lt
    88f4:	b9404fa0 	ldr	w0, [x29,#76]
    88f8:	6b00003f 	cmp	w1, w0
    88fc:	540000ed 	b.le	8918 <__mpa_montgomery_mul+0x68>
/home/rex/devel/optee/optee_os/lib/libmpa/mpa_montgomery.c:146 (discriminator 1)
    8900:	f9401ba1 	ldr	x1, [x29,#48]
    8904:	b9804fa0 	ldrsw	x0, [x29,#76]
    8908:	d37ef400 	lsl	x0, x0, #2
    890c:	8b000020 	add	x0, x1, x0
    8910:	b9400801 	ldr	w1, [x0,#8]
    8914:	14000002 	b	891c <__mpa_montgomery_mul+0x6c>
/home/rex/devel/optee/optee_os/lib/libmpa/mpa_montgomery.c:146 (discriminator 2)
    8918:	52800001 	mov	w1, #0x0                   	// #0
/home/rex/devel/optee/optee_os/lib/libmpa/mpa_montgomery.c:147
    891c:	f94017a0 	ldr	x0, [x29,#40]
    8920:	b9400400 	ldr	w0, [x0,#4]
    8924:	7100001f 	cmp	w0, #0x0
    8928:	540000ab 	b.lt	893c <__mpa_montgomery_mul+0x8c>
/home/rex/devel/optee/optee_os/lib/libmpa/mpa_montgomery.c:147 (discriminator 2)
    892c:	f94017a0 	ldr	x0, [x29,#40]
    8930:	b9400400 	ldr	w0, [x0,#4]
    8934:	7100001f 	cmp	w0, #0x0
    8938:	5400008d 	b.le	8948 <__mpa_montgomery_mul+0x98>
/home/rex/devel/optee/optee_os/lib/libmpa/mpa_montgomery.c:147 (discriminator 3)
    893c:	f94017a0 	ldr	x0, [x29,#40]
    8940:	b9400800 	ldr	w0, [x0,#8]
    8944:	14000002 	b	894c <__mpa_montgomery_mul+0x9c>
/home/rex/devel/optee/optee_os/lib/libmpa/mpa_montgomery.c:147 (discriminator 4)
    8948:	52800000 	mov	w0, #0x0                   	// #0
/home/rex/devel/optee/optee_os/lib/libmpa/mpa_montgomery.c:146
    894c:	1b007c20 	mul	w0, w1, w0
/home/rex/devel/optee/optee_os/lib/libmpa/mpa_montgomery.c:145
    8950:	0b000041 	add	w1, w2, w0
    8954:	b9401fa0 	ldr	w0, [x29,#28]
    8958:	1b007c20 	mul	w0, w1, w0
    895c:	b90047a0 	str	w0, [x29,#68]
/home/rex/devel/optee/optee_os/lib/libmpa/mpa_montgomery.c:150
    8960:	f9401ba0 	ldr	x0, [x29,#48]
    8964:	b9400400 	ldr	w0, [x0,#4]
    8968:	7100001f 	cmp	w0, #0x0
    896c:	5a80a401 	cneg	w1, w0, lt
/home/rex/devel/optee/optee_os/lib/libmpa/mpa_montgomery.c:149
    8970:	b9404fa0 	ldr	w0, [x29,#76]
    8974:	6b00003f 	cmp	w1, w0
    8978:	540000ed 	b.le	8994 <__mpa_montgomery_mul+0xe4>
/home/rex/devel/optee/optee_os/lib/libmpa/mpa_montgomery.c:149 (discriminator 1)
    897c:	f9401ba1 	ldr	x1, [x29,#48]
    8980:	b9804fa0 	ldrsw	x0, [x29,#76]
    8984:	d37ef400 	lsl	x0, x0, #2
    8988:	8b000020 	add	x0, x1, x0
    898c:	b9400800 	ldr	w0, [x0,#8]
    8990:	14000002 	b	8998 <__mpa_montgomery_mul+0xe8>
/home/rex/devel/optee/optee_os/lib/libmpa/mpa_montgomery.c:149 (discriminator 2)
    8994:	52800000 	mov	w0, #0x0                   	// #0
/home/rex/devel/optee/optee_os/lib/libmpa/mpa_montgomery.c:149 (discriminator 4)
    8998:	2a0003e2 	mov	w2, w0
    899c:	f94017a1 	ldr	x1, [x29,#40]
    89a0:	f9401fa0 	ldr	x0, [x29,#56]
    89a4:	97ffff1b 	bl	8610 <__mpa_montgomery_mul_add>
/home/rex/devel/optee/optee_os/lib/libmpa/mpa_montgomery.c:151 (discriminator 4)
    89a8:	b94047a2 	ldr	w2, [x29,#68]
    89ac:	f94013a1 	ldr	x1, [x29,#32]
    89b0:	f9401fa0 	ldr	x0, [x29,#56]
    89b4:	97ffff17 	bl	8610 <__mpa_montgomery_mul_add>
/home/rex/devel/optee/optee_os/lib/libmpa/mpa_montgomery.c:154 (discriminator 4)
    89b8:	f9401fa0 	ldr	x0, [x29,#56]
    89bc:	b9400400 	ldr	w0, [x0,#4]
    89c0:	51000401 	sub	w1, w0, #0x1
    89c4:	f9401fa0 	ldr	x0, [x29,#56]
    89c8:	b9000401 	str	w1, [x0,#4]
/home/rex/devel/optee/optee_os/lib/libmpa/mpa_montgomery.c:155 (discriminator 4)
    89cc:	b9004bbf 	str	wzr, [x29,#72]
    89d0:	14000010 	b	8a10 <__mpa_montgomery_mul+0x160>
/home/rex/devel/optee/optee_os/lib/libmpa/mpa_montgomery.c:156 (discriminator 3)
    89d4:	b9404ba0 	ldr	w0, [x29,#72]
    89d8:	11000400 	add	w0, w0, #0x1
    89dc:	f9401fa1 	ldr	x1, [x29,#56]
    89e0:	93407c00 	sxtw	x0, w0
    89e4:	d37ef400 	lsl	x0, x0, #2
    89e8:	8b000020 	add	x0, x1, x0
    89ec:	b9400801 	ldr	w1, [x0,#8]
    89f0:	f9401fa2 	ldr	x2, [x29,#56]
    89f4:	b9804ba0 	ldrsw	x0, [x29,#72]
    89f8:	d37ef400 	lsl	x0, x0, #2
    89fc:	8b000040 	add	x0, x2, x0
    8a00:	b9000801 	str	w1, [x0,#8]
/home/rex/devel/optee/optee_os/lib/libmpa/mpa_montgomery.c:155 (discriminator 3)
    8a04:	b9404ba0 	ldr	w0, [x29,#72]
    8a08:	11000400 	add	w0, w0, #0x1
    8a0c:	b9004ba0 	str	w0, [x29,#72]
/home/rex/devel/optee/optee_os/lib/libmpa/mpa_montgomery.c:155 (discriminator 1)
    8a10:	f9401fa0 	ldr	x0, [x29,#56]
    8a14:	b9400401 	ldr	w1, [x0,#4]
    8a18:	b9404ba0 	ldr	w0, [x29,#72]
    8a1c:	6b00003f 	cmp	w1, w0
    8a20:	54fffdac 	b.gt	89d4 <__mpa_montgomery_mul+0x124>
/home/rex/devel/optee/optee_os/lib/libmpa/mpa_montgomery.c:157 (discriminator 2)
    8a24:	f9401fa0 	ldr	x0, [x29,#56]
    8a28:	91002001 	add	x1, x0, #0x8
    8a2c:	f9401fa0 	ldr	x0, [x29,#56]
    8a30:	b9400400 	ldr	w0, [x0,#4]
    8a34:	93407c00 	sxtw	x0, w0
    8a38:	d37ef400 	lsl	x0, x0, #2
    8a3c:	8b000020 	add	x0, x1, x0
    8a40:	b900001f 	str	wzr, [x0]
/home/rex/devel/optee/optee_os/lib/libmpa/mpa_montgomery.c:144 (discriminator 2)
    8a44:	b9404fa0 	ldr	w0, [x29,#76]
    8a48:	11000400 	add	w0, w0, #0x1
    8a4c:	b9004fa0 	str	w0, [x29,#76]
/home/rex/devel/optee/optee_os/lib/libmpa/mpa_montgomery.c:144 (discriminator 1)
    8a50:	f94013a0 	ldr	x0, [x29,#32]
    8a54:	b9400401 	ldr	w1, [x0,#4]
    8a58:	b9404fa0 	ldr	w0, [x29,#76]
    8a5c:	6b00003f 	cmp	w1, w0
    8a60:	54fff3ec 	b.gt	88dc <__mpa_montgomery_mul+0x2c>
/home/rex/devel/optee/optee_os/lib/libmpa/mpa_montgomery.c:161
    8a64:	f94013a1 	ldr	x1, [x29,#32]
    8a68:	f9401fa0 	ldr	x0, [x29,#56]
    8a6c:	94001282 	bl	d474 <__mpa_abs_cmp>
    8a70:	7100001f 	cmp	w0, #0x0
    8a74:	5400008b 	b.lt	8a84 <__mpa_montgomery_mul+0x1d4>
/home/rex/devel/optee/optee_os/lib/libmpa/mpa_montgomery.c:162
    8a78:	f94013a1 	ldr	x1, [x29,#32]
    8a7c:	f9401fa0 	ldr	x0, [x29,#56]
    8a80:	97ffff36 	bl	8758 <__mpa_montgomery_sub_ack>
/home/rex/devel/optee/optee_os/lib/libmpa/mpa_montgomery.c:163
    8a84:	d503201f 	nop
    8a88:	a8c57bfd 	ldp	x29, x30, [sp],#80
    8a8c:	d65f03c0 	ret

0000000000008a90 <mpa_compute_fmm_context>:
mpa_compute_fmm_context():
/home/rex/devel/optee/optee_os/lib/libmpa/mpa_montgomery.c:179
    8a90:	a9b97bfd 	stp	x29, x30, [sp,#-112]!
    8a94:	910003fd 	mov	x29, sp
    8a98:	f9001fa0 	str	x0, [x29,#56]
    8a9c:	f9001ba1 	str	x1, [x29,#48]
    8aa0:	f90017a2 	str	x2, [x29,#40]
    8aa4:	f90013a3 	str	x3, [x29,#32]
    8aa8:	f9000fa4 	str	x4, [x29,#24]
/home/rex/devel/optee/optee_os/lib/libmpa/mpa_montgomery.c:187
    8aac:	910103a0 	add	x0, x29, #0x40
    8ab0:	f90037a0 	str	x0, [x29,#104]
/home/rex/devel/optee/optee_os/lib/libmpa/mpa_montgomery.c:193
    8ab4:	f9401fa0 	ldr	x0, [x29,#56]
    8ab8:	b9400400 	ldr	w0, [x0,#4]
    8abc:	7100001f 	cmp	w0, #0x0
    8ac0:	5a80a400 	cneg	w0, w0, lt
    8ac4:	b90067a0 	str	w0, [x29,#100]
/home/rex/devel/optee/optee_os/lib/libmpa/mpa_montgomery.c:194
    8ac8:	52800021 	mov	w1, #0x1                   	// #1
    8acc:	f9401ba0 	ldr	x0, [x29,#48]
    8ad0:	9400021a 	bl	9338 <mpa_set_word>
/home/rex/devel/optee/optee_os/lib/libmpa/mpa_montgomery.c:195
    8ad4:	b94067a0 	ldr	w0, [x29,#100]
    8ad8:	531b6800 	lsl	w0, w0, #5
    8adc:	2a0003e2 	mov	w2, w0
    8ae0:	f9401ba1 	ldr	x1, [x29,#48]
    8ae4:	f9401ba0 	ldr	x0, [x29,#48]
    8ae8:	94000cc0 	bl	bde8 <mpa_shift_left>
/home/rex/devel/optee/optee_os/lib/libmpa/mpa_montgomery.c:196
    8aec:	f9400fa3 	ldr	x3, [x29,#24]
    8af0:	f9401fa2 	ldr	x2, [x29,#56]
    8af4:	f9401ba1 	ldr	x1, [x29,#48]
    8af8:	f9401ba0 	ldr	x0, [x29,#48]
    8afc:	940017ea 	bl	eaa4 <mpa_mod>
/home/rex/devel/optee/optee_os/lib/libmpa/mpa_montgomery.c:199
    8b00:	f9400fa4 	ldr	x4, [x29,#24]
    8b04:	f9401fa3 	ldr	x3, [x29,#56]
    8b08:	f9401ba2 	ldr	x2, [x29,#48]
    8b0c:	f9401ba1 	ldr	x1, [x29,#48]
    8b10:	f94017a0 	ldr	x0, [x29,#40]
    8b14:	9400182b 	bl	ebc0 <mpa_mul_mod>
/home/rex/devel/optee/optee_os/lib/libmpa/mpa_montgomery.c:202
    8b18:	f94037a0 	ldr	x0, [x29,#104]
    8b1c:	52800021 	mov	w1, #0x1                   	// #1
    8b20:	b9000001 	str	w1, [x0]
/home/rex/devel/optee/optee_os/lib/libmpa/mpa_montgomery.c:203
    8b24:	f94037a0 	ldr	x0, [x29,#104]
    8b28:	52800021 	mov	w1, #0x1                   	// #1
    8b2c:	b9000401 	str	w1, [x0,#4]
/home/rex/devel/optee/optee_os/lib/libmpa/mpa_montgomery.c:204
    8b30:	f9401fa0 	ldr	x0, [x29,#56]
    8b34:	b9400801 	ldr	w1, [x0,#8]
    8b38:	f94037a0 	ldr	x0, [x29,#104]
    8b3c:	b9000801 	str	w1, [x0,#8]
/home/rex/devel/optee/optee_os/lib/libmpa/mpa_montgomery.c:206
    8b40:	910163a0 	add	x0, x29, #0x58
    8b44:	f9400fa1 	ldr	x1, [x29,#24]
    8b48:	9400099f 	bl	b1c4 <mpa_alloc_static_temp_var>
/home/rex/devel/optee/optee_os/lib/libmpa/mpa_montgomery.c:207
    8b4c:	910143a0 	add	x0, x29, #0x50
    8b50:	f9400fa1 	ldr	x1, [x29,#24]
    8b54:	9400099c 	bl	b1c4 <mpa_alloc_static_temp_var>
/home/rex/devel/optee/optee_os/lib/libmpa/mpa_montgomery.c:209
    8b58:	f9402ba6 	ldr	x6, [x29,#80]
    8b5c:	f9402fa1 	ldr	x1, [x29,#88]
    8b60:	90000040 	adrp	x0, 10000 <PRIME_TABLE+0x538>
    8b64:	f9459c00 	ldr	x0, [x0,#2872]
    8b68:	f9400fa5 	ldr	x5, [x29,#24]
    8b6c:	aa0003e4 	mov	x4, x0
    8b70:	f94037a3 	ldr	x3, [x29,#104]
    8b74:	d2800002 	mov	x2, #0x0                   	// #0
    8b78:	aa0603e0 	mov	x0, x6
    8b7c:	94000825 	bl	ac10 <mpa_extended_gcd>
/home/rex/devel/optee/optee_os/lib/libmpa/mpa_montgomery.c:211
    8b80:	f9402ba0 	ldr	x0, [x29,#80]
    8b84:	52800021 	mov	w1, #0x1                   	// #1
    8b88:	940012e9 	bl	d72c <mpa_cmp_short>
    8b8c:	b90063a0 	str	w0, [x29,#96]
/home/rex/devel/optee/optee_os/lib/libmpa/mpa_montgomery.c:213
    8b90:	b94063a0 	ldr	w0, [x29,#96]
    8b94:	7100001f 	cmp	w0, #0x0
    8b98:	54000241 	b.ne	8be0 <mpa_compute_fmm_context+0x150>
/home/rex/devel/optee/optee_os/lib/libmpa/mpa_montgomery.c:229
    8b9c:	f9402fa0 	ldr	x0, [x29,#88]
    8ba0:	b9400400 	ldr	w0, [x0,#4]
    8ba4:	7100001f 	cmp	w0, #0x0
    8ba8:	5400012b 	b.lt	8bcc <mpa_compute_fmm_context+0x13c>
/home/rex/devel/optee/optee_os/lib/libmpa/mpa_montgomery.c:230
    8bac:	f9402fa4 	ldr	x4, [x29,#88]
    8bb0:	f9402fa1 	ldr	x1, [x29,#88]
    8bb4:	90000040 	adrp	x0, 10000 <PRIME_TABLE+0x538>
    8bb8:	f9459c00 	ldr	x0, [x0,#2872]
    8bbc:	f9400fa3 	ldr	x3, [x29,#24]
    8bc0:	aa0003e2 	mov	x2, x0
    8bc4:	aa0403e0 	mov	x0, x4
    8bc8:	94001060 	bl	cd48 <mpa_sub>
/home/rex/devel/optee/optee_os/lib/libmpa/mpa_montgomery.c:234
    8bcc:	f9402fa0 	ldr	x0, [x29,#88]
    8bd0:	b9400801 	ldr	w1, [x0,#8]
    8bd4:	f94013a0 	ldr	x0, [x29,#32]
    8bd8:	b9000001 	str	w1, [x0]
    8bdc:	14000002 	b	8be4 <mpa_compute_fmm_context+0x154>
/home/rex/devel/optee/optee_os/lib/libmpa/mpa_montgomery.c:214
    8be0:	d503201f 	nop
/home/rex/devel/optee/optee_os/lib/libmpa/mpa_montgomery.c:238
    8be4:	910143a0 	add	x0, x29, #0x50
    8be8:	f9400fa1 	ldr	x1, [x29,#24]
    8bec:	94000981 	bl	b1f0 <mpa_free_static_temp_var>
/home/rex/devel/optee/optee_os/lib/libmpa/mpa_montgomery.c:239
    8bf0:	910163a0 	add	x0, x29, #0x58
    8bf4:	f9400fa1 	ldr	x1, [x29,#24]
    8bf8:	9400097e 	bl	b1f0 <mpa_free_static_temp_var>
/home/rex/devel/optee/optee_os/lib/libmpa/mpa_montgomery.c:241
    8bfc:	b94063a0 	ldr	w0, [x29,#96]
    8c00:	7100001f 	cmp	w0, #0x0
    8c04:	54000060 	b.eq	8c10 <mpa_compute_fmm_context+0x180>
/home/rex/devel/optee/optee_os/lib/libmpa/mpa_montgomery.c:242
    8c08:	12800000 	mov	w0, #0xffffffff            	// #-1
    8c0c:	14000002 	b	8c14 <mpa_compute_fmm_context+0x184>
/home/rex/devel/optee/optee_os/lib/libmpa/mpa_montgomery.c:243
    8c10:	52800000 	mov	w0, #0x0                   	// #0
/home/rex/devel/optee/optee_os/lib/libmpa/mpa_montgomery.c:244 (discriminator 1)
    8c14:	a8c77bfd 	ldp	x29, x30, [sp],#112
    8c18:	d65f03c0 	ret

0000000000008c1c <mpa_montgomery_mul>:
mpa_montgomery_mul():
/home/rex/devel/optee/optee_os/lib/libmpa/mpa_montgomery.c:257
    8c1c:	a9bb7bfd 	stp	x29, x30, [sp,#-80]!
    8c20:	910003fd 	mov	x29, sp
    8c24:	f9001fa0 	str	x0, [x29,#56]
    8c28:	f9001ba1 	str	x1, [x29,#48]
    8c2c:	f90017a2 	str	x2, [x29,#40]
    8c30:	f90013a3 	str	x3, [x29,#32]
    8c34:	b9001fa4 	str	w4, [x29,#28]
    8c38:	f9000ba5 	str	x5, [x29,#16]
/home/rex/devel/optee/optee_os/lib/libmpa/mpa_montgomery.c:260
    8c3c:	910123a0 	add	x0, x29, #0x48
    8c40:	f9400ba1 	ldr	x1, [x29,#16]
    8c44:	94000960 	bl	b1c4 <mpa_alloc_static_temp_var>
/home/rex/devel/optee/optee_os/lib/libmpa/mpa_montgomery.c:262
    8c48:	f94027a0 	ldr	x0, [x29,#72]
    8c4c:	b9401fa4 	ldr	w4, [x29,#28]
    8c50:	f94013a3 	ldr	x3, [x29,#32]
    8c54:	f94017a2 	ldr	x2, [x29,#40]
    8c58:	f9401ba1 	ldr	x1, [x29,#48]
    8c5c:	97ffff15 	bl	88b0 <__mpa_montgomery_mul>
/home/rex/devel/optee/optee_os/lib/libmpa/mpa_montgomery.c:264
    8c60:	f94027a0 	ldr	x0, [x29,#72]
    8c64:	aa0003e1 	mov	x1, x0
    8c68:	f9401fa0 	ldr	x0, [x29,#56]
    8c6c:	97fffdcb 	bl	8398 <mpa_copy>
/home/rex/devel/optee/optee_os/lib/libmpa/mpa_montgomery.c:265
    8c70:	910123a0 	add	x0, x29, #0x48
    8c74:	f9400ba1 	ldr	x1, [x29,#16]
    8c78:	9400095e 	bl	b1f0 <mpa_free_static_temp_var>
/home/rex/devel/optee/optee_os/lib/libmpa/mpa_montgomery.c:266
    8c7c:	d503201f 	nop
    8c80:	a8c57bfd 	ldp	x29, x30, [sp],#80
    8c84:	d65f03c0 	ret

0000000000008c88 <mpa_is_prob_prime>:
mpa_is_prob_prime():
/home/rex/devel/optee/optee_os/lib/libmpa/mpa_primetest.c:89
    8c88:	a9bc7bfd 	stp	x29, x30, [sp,#-64]!
    8c8c:	910003fd 	mov	x29, sp
    8c90:	f90017a0 	str	x0, [x29,#40]
    8c94:	b90027a1 	str	w1, [x29,#36]
    8c98:	f9000fa2 	str	x2, [x29,#24]
/home/rex/devel/optee/optee_os/lib/libmpa/mpa_primetest.c:90
    8c9c:	b9003fbf 	str	wzr, [x29,#60]
/home/rex/devel/optee/optee_os/lib/libmpa/mpa_primetest.c:93
    8ca0:	f94017a0 	ldr	x0, [x29,#40]
    8ca4:	94000024 	bl	8d34 <is_small_prime>
    8ca8:	b9003fa0 	str	w0, [x29,#60]
/home/rex/devel/optee/optee_os/lib/libmpa/mpa_primetest.c:94
    8cac:	b9403fa0 	ldr	w0, [x29,#60]
    8cb0:	3100041f 	cmn	w0, #0x1
    8cb4:	540001c1 	b.ne	8cec <mpa_is_prob_prime+0x64>
/home/rex/devel/optee/optee_os/lib/libmpa/mpa_primetest.c:98
    8cb8:	f9400fa1 	ldr	x1, [x29,#24]
    8cbc:	f94017a0 	ldr	x0, [x29,#40]
    8cc0:	94000052 	bl	8e08 <has_small_factors>
    8cc4:	7100001f 	cmp	w0, #0x0
    8cc8:	54000060 	b.eq	8cd4 <mpa_is_prob_prime+0x4c>
/home/rex/devel/optee/optee_os/lib/libmpa/mpa_primetest.c:99
    8ccc:	b9003fbf 	str	wzr, [x29,#60]
/home/rex/devel/optee/optee_os/lib/libmpa/mpa_primetest.c:100
    8cd0:	14000008 	b	8cf0 <mpa_is_prob_prime+0x68>
/home/rex/devel/optee/optee_os/lib/libmpa/mpa_primetest.c:103
    8cd4:	f9400fa2 	ldr	x2, [x29,#24]
    8cd8:	b94027a1 	ldr	w1, [x29,#36]
    8cdc:	f94017a0 	ldr	x0, [x29,#40]
    8ce0:	94000066 	bl	8e78 <primality_test_miller_rabin>
    8ce4:	b9003fa0 	str	w0, [x29,#60]
    8ce8:	14000002 	b	8cf0 <mpa_is_prob_prime+0x68>
/home/rex/devel/optee/optee_os/lib/libmpa/mpa_primetest.c:95
    8cec:	d503201f 	nop
/home/rex/devel/optee/optee_os/lib/libmpa/mpa_primetest.c:106
    8cf0:	b9403fa0 	ldr	w0, [x29,#60]
/home/rex/devel/optee/optee_os/lib/libmpa/mpa_primetest.c:107
    8cf4:	a8c47bfd 	ldp	x29, x30, [sp],#64
    8cf8:	d65f03c0 	ret

0000000000008cfc <check_table>:
check_table():
/home/rex/devel/optee/optee_os/lib/libmpa/mpa_primetest.c:116
    8cfc:	d10043ff 	sub	sp, sp, #0x10
    8d00:	b9000fe0 	str	w0, [sp,#12]
/home/rex/devel/optee/optee_os/lib/libmpa/mpa_primetest.c:117
    8d04:	b9400fe0 	ldr	w0, [sp,#12]
    8d08:	53057c01 	lsr	w1, w0, #5
    8d0c:	f0000020 	adrp	x0, f000 <__func__.4113+0x18>
    8d10:	912b2000 	add	x0, x0, #0xac8
    8d14:	2a0103e1 	mov	w1, w1
    8d18:	b8617801 	ldr	w1, [x0,x1,lsl #2]
    8d1c:	b9400fe0 	ldr	w0, [sp,#12]
    8d20:	12001000 	and	w0, w0, #0x1f
    8d24:	1ac02420 	lsr	w0, w1, w0
    8d28:	12000000 	and	w0, w0, #0x1
/home/rex/devel/optee/optee_os/lib/libmpa/mpa_primetest.c:118
    8d2c:	910043ff 	add	sp, sp, #0x10
    8d30:	d65f03c0 	ret

0000000000008d34 <is_small_prime>:
is_small_prime():
/home/rex/devel/optee/optee_os/lib/libmpa/mpa_primetest.c:131
    8d34:	a9bd7bfd 	stp	x29, x30, [sp,#-48]!
    8d38:	910003fd 	mov	x29, sp
    8d3c:	f9000fa0 	str	x0, [x29,#24]
/home/rex/devel/optee/optee_os/lib/libmpa/mpa_primetest.c:136
    8d40:	f9400fa0 	ldr	x0, [x29,#24]
    8d44:	b9400400 	ldr	w0, [x0,#4]
    8d48:	7100001f 	cmp	w0, #0x0
    8d4c:	5a80a400 	cneg	w0, w0, lt
    8d50:	7100041f 	cmp	w0, #0x1
    8d54:	5400012d 	b.le	8d78 <is_small_prime+0x44>
/home/rex/devel/optee/optee_os/lib/libmpa/mpa_primetest.c:137
    8d58:	f9400fa0 	ldr	x0, [x29,#24]
    8d5c:	97fffe20 	bl	85dc <mpa_parity>
    8d60:	7100001f 	cmp	w0, #0x0
    8d64:	54000061 	b.ne	8d70 <is_small_prime+0x3c>
/home/rex/devel/optee/optee_os/lib/libmpa/mpa_primetest.c:137 (discriminator 1)
    8d68:	52800000 	mov	w0, #0x0                   	// #0
    8d6c:	14000025 	b	8e00 <is_small_prime+0xcc>
/home/rex/devel/optee/optee_os/lib/libmpa/mpa_primetest.c:137 (discriminator 2)
    8d70:	12800000 	mov	w0, #0xffffffff            	// #-1
    8d74:	14000023 	b	8e00 <is_small_prime+0xcc>
/home/rex/devel/optee/optee_os/lib/libmpa/mpa_primetest.c:139
    8d78:	f9400fa0 	ldr	x0, [x29,#24]
    8d7c:	9400017f 	bl	9378 <mpa_get_word>
    8d80:	b9002fa0 	str	w0, [x29,#44]
/home/rex/devel/optee/optee_os/lib/libmpa/mpa_primetest.c:140
    8d84:	b9402fa0 	ldr	w0, [x29,#44]
    8d88:	32000000 	orr	w0, w0, #0x1
    8d8c:	7100041f 	cmp	w0, #0x1
    8d90:	54000061 	b.ne	8d9c <is_small_prime+0x68>
/home/rex/devel/optee/optee_os/lib/libmpa/mpa_primetest.c:141
    8d94:	52800000 	mov	w0, #0x0                   	// #0
    8d98:	1400001a 	b	8e00 <is_small_prime+0xcc>
/home/rex/devel/optee/optee_os/lib/libmpa/mpa_primetest.c:142
    8d9c:	b9402fa0 	ldr	w0, [x29,#44]
    8da0:	7100081f 	cmp	w0, #0x2
    8da4:	54000061 	b.ne	8db0 <is_small_prime+0x7c>
/home/rex/devel/optee/optee_os/lib/libmpa/mpa_primetest.c:143
    8da8:	52800020 	mov	w0, #0x1                   	// #1
    8dac:	14000015 	b	8e00 <is_small_prime+0xcc>
/home/rex/devel/optee/optee_os/lib/libmpa/mpa_primetest.c:144
    8db0:	b9402fa0 	ldr	w0, [x29,#44]
    8db4:	12000000 	and	w0, w0, #0x1
    8db8:	7100001f 	cmp	w0, #0x0
    8dbc:	54000061 	b.ne	8dc8 <is_small_prime+0x94>
/home/rex/devel/optee/optee_os/lib/libmpa/mpa_primetest.c:145
    8dc0:	52800000 	mov	w0, #0x0                   	// #0
    8dc4:	1400000f 	b	8e00 <is_small_prime+0xcc>
/home/rex/devel/optee/optee_os/lib/libmpa/mpa_primetest.c:148
    8dc8:	529869e0 	mov	w0, #0xc34f                	// #49999
    8dcc:	2a0003e1 	mov	w1, w0
    8dd0:	f9400fa0 	ldr	x0, [x29,#24]
    8dd4:	94001256 	bl	d72c <mpa_cmp_short>
    8dd8:	7100001f 	cmp	w0, #0x0
    8ddc:	5400006d 	b.le	8de8 <is_small_prime+0xb4>
/home/rex/devel/optee/optee_os/lib/libmpa/mpa_primetest.c:149
    8de0:	12800000 	mov	w0, #0xffffffff            	// #-1
    8de4:	14000007 	b	8e00 <is_small_prime+0xcc>
/home/rex/devel/optee/optee_os/lib/libmpa/mpa_primetest.c:150
    8de8:	b9402fa0 	ldr	w0, [x29,#44]
    8dec:	51000c00 	sub	w0, w0, #0x3
    8df0:	53017c00 	lsr	w0, w0, #1
    8df4:	b9002fa0 	str	w0, [x29,#44]
/home/rex/devel/optee/optee_os/lib/libmpa/mpa_primetest.c:151
    8df8:	b9402fa0 	ldr	w0, [x29,#44]
    8dfc:	97ffffc0 	bl	8cfc <check_table>
/home/rex/devel/optee/optee_os/lib/libmpa/mpa_primetest.c:155
    8e00:	a8c37bfd 	ldp	x29, x30, [sp],#48
    8e04:	d65f03c0 	ret

0000000000008e08 <has_small_factors>:
has_small_factors():
/home/rex/devel/optee/optee_os/lib/libmpa/mpa_primetest.c:165
    8e08:	a9bc7bfd 	stp	x29, x30, [sp,#-64]!
    8e0c:	910003fd 	mov	x29, sp
    8e10:	f9000fa0 	str	x0, [x29,#24]
    8e14:	f9000ba1 	str	x1, [x29,#16]
/home/rex/devel/optee/optee_os/lib/libmpa/mpa_primetest.c:166
    8e18:	90000040 	adrp	x0, 10000 <PRIME_TABLE+0x538>
    8e1c:	911c0000 	add	x0, x0, #0x700
    8e20:	f9001fa0 	str	x0, [x29,#56]
/home/rex/devel/optee/optee_os/lib/libmpa/mpa_primetest.c:170
    8e24:	9100a3a0 	add	x0, x29, #0x28
    8e28:	f9400ba1 	ldr	x1, [x29,#16]
    8e2c:	940008e6 	bl	b1c4 <mpa_alloc_static_temp_var>
/home/rex/devel/optee/optee_os/lib/libmpa/mpa_primetest.c:171
    8e30:	f94017a0 	ldr	x0, [x29,#40]
    8e34:	f9400ba3 	ldr	x3, [x29,#16]
    8e38:	f9401fa2 	ldr	x2, [x29,#56]
    8e3c:	f9400fa1 	ldr	x1, [x29,#24]
    8e40:	94000712 	bl	aa88 <mpa_gcd>
/home/rex/devel/optee/optee_os/lib/libmpa/mpa_primetest.c:172
    8e44:	f94017a0 	ldr	x0, [x29,#40]
    8e48:	52800021 	mov	w1, #0x1                   	// #1
    8e4c:	94001238 	bl	d72c <mpa_cmp_short>
    8e50:	7100001f 	cmp	w0, #0x0
    8e54:	1a9f07e0 	cset	w0, ne
    8e58:	12001c00 	and	w0, w0, #0xff
    8e5c:	b90037a0 	str	w0, [x29,#52]
/home/rex/devel/optee/optee_os/lib/libmpa/mpa_primetest.c:173
    8e60:	9100a3a0 	add	x0, x29, #0x28
    8e64:	f9400ba1 	ldr	x1, [x29,#16]
    8e68:	940008e2 	bl	b1f0 <mpa_free_static_temp_var>
/home/rex/devel/optee/optee_os/lib/libmpa/mpa_primetest.c:175
    8e6c:	b94037a0 	ldr	w0, [x29,#52]
/home/rex/devel/optee/optee_os/lib/libmpa/mpa_primetest.c:176
    8e70:	a8c47bfd 	ldp	x29, x30, [sp],#64
    8e74:	d65f03c0 	ret

0000000000008e78 <primality_test_miller_rabin>:
primality_test_miller_rabin():
/home/rex/devel/optee/optee_os/lib/libmpa/mpa_primetest.c:185
    8e78:	a9b77bfd 	stp	x29, x30, [sp,#-144]!
    8e7c:	910003fd 	mov	x29, sp
    8e80:	f90017a0 	str	x0, [x29,#40]
    8e84:	b90027a1 	str	w1, [x29,#36]
    8e88:	f9000fa2 	str	x2, [x29,#24]
/home/rex/devel/optee/optee_os/lib/libmpa/mpa_primetest.c:192
    8e8c:	b9007fbf 	str	wzr, [x29,#124]
/home/rex/devel/optee/optee_os/lib/libmpa/mpa_primetest.c:202
    8e90:	910123a0 	add	x0, x29, #0x48
    8e94:	f9400fa1 	ldr	x1, [x29,#24]
    8e98:	940008cb 	bl	b1c4 <mpa_alloc_static_temp_var>
/home/rex/devel/optee/optee_os/lib/libmpa/mpa_primetest.c:203
    8e9c:	910103a0 	add	x0, x29, #0x40
    8ea0:	f9400fa1 	ldr	x1, [x29,#24]
    8ea4:	940008c8 	bl	b1c4 <mpa_alloc_static_temp_var>
/home/rex/devel/optee/optee_os/lib/libmpa/mpa_primetest.c:205
    8ea8:	f94027a0 	ldr	x0, [x29,#72]
    8eac:	f94023a1 	ldr	x1, [x29,#64]
    8eb0:	9100f3a2 	add	x2, x29, #0x3c
    8eb4:	f9400fa4 	ldr	x4, [x29,#24]
    8eb8:	aa0203e3 	mov	x3, x2
    8ebc:	aa0103e2 	mov	x2, x1
    8ec0:	aa0003e1 	mov	x1, x0
    8ec4:	f94017a0 	ldr	x0, [x29,#40]
    8ec8:	97fffef2 	bl	8a90 <mpa_compute_fmm_context>
    8ecc:	3100041f 	cmn	w0, #0x1
    8ed0:	54000061 	b.ne	8edc <primality_test_miller_rabin+0x64>
/home/rex/devel/optee/optee_os/lib/libmpa/mpa_primetest.c:206
    8ed4:	b9008fbf 	str	wzr, [x29,#140]
/home/rex/devel/optee/optee_os/lib/libmpa/mpa_primetest.c:207
    8ed8:	140000bb 	b	91c4 <primality_test_miller_rabin+0x34c>
/home/rex/devel/optee/optee_os/lib/libmpa/mpa_primetest.c:210
    8edc:	9101a3a0 	add	x0, x29, #0x68
    8ee0:	f9400fa1 	ldr	x1, [x29,#24]
    8ee4:	940008b8 	bl	b1c4 <mpa_alloc_static_temp_var>
/home/rex/devel/optee/optee_os/lib/libmpa/mpa_primetest.c:211
    8ee8:	910183a0 	add	x0, x29, #0x60
    8eec:	f9400fa1 	ldr	x1, [x29,#24]
    8ef0:	940008b5 	bl	b1c4 <mpa_alloc_static_temp_var>
/home/rex/devel/optee/optee_os/lib/libmpa/mpa_primetest.c:212
    8ef4:	910163a0 	add	x0, x29, #0x58
    8ef8:	f9400fa1 	ldr	x1, [x29,#24]
    8efc:	940008b2 	bl	b1c4 <mpa_alloc_static_temp_var>
/home/rex/devel/optee/optee_os/lib/libmpa/mpa_primetest.c:213
    8f00:	910143a0 	add	x0, x29, #0x50
    8f04:	f9400fa1 	ldr	x1, [x29,#24]
    8f08:	940008af 	bl	b1c4 <mpa_alloc_static_temp_var>
/home/rex/devel/optee/optee_os/lib/libmpa/mpa_primetest.c:216
    8f0c:	90000040 	adrp	x0, 10000 <PRIME_TABLE+0x538>
    8f10:	911ee000 	add	x0, x0, #0x7b8
    8f14:	aa0003e1 	mov	x1, x0
    8f18:	f94017a0 	ldr	x0, [x29,#40]
    8f1c:	940011cd 	bl	d650 <mpa_cmp>
/home/rex/devel/optee/optee_os/lib/libmpa/mpa_primetest.c:215
    8f20:	531f7c00 	lsr	w0, w0, #31
    8f24:	3901efa0 	strb	w0, [x29,#123]
/home/rex/devel/optee/optee_os/lib/libmpa/mpa_primetest.c:218
    8f28:	3941efa0 	ldrb	w0, [x29,#123]
    8f2c:	7100001f 	cmp	w0, #0x0
    8f30:	54000080 	b.eq	8f40 <primality_test_miller_rabin+0xc8>
/home/rex/devel/optee/optee_os/lib/libmpa/mpa_primetest.c:219
    8f34:	528000e0 	mov	w0, #0x7                   	// #7
    8f38:	b9008ba0 	str	w0, [x29,#136]
    8f3c:	14000007 	b	8f58 <primality_test_miller_rabin+0xe0>
/home/rex/devel/optee/optee_os/lib/libmpa/mpa_primetest.c:221
    8f40:	b94027a0 	ldr	w0, [x29,#36]
    8f44:	11000400 	add	w0, w0, #0x1
    8f48:	531f7c01 	lsr	w1, w0, #31
    8f4c:	0b000020 	add	w0, w1, w0
    8f50:	13017c00 	asr	w0, w0, #1
    8f54:	b9008ba0 	str	w0, [x29,#136]
/home/rex/devel/optee/optee_os/lib/libmpa/mpa_primetest.c:223
    8f58:	f9402fa0 	ldr	x0, [x29,#88]
    8f5c:	f9400fa3 	ldr	x3, [x29,#24]
    8f60:	52800022 	mov	w2, #0x1                   	// #1
    8f64:	f94017a1 	ldr	x1, [x29,#40]
    8f68:	940010c3 	bl	d274 <mpa_sub_word>
/home/rex/devel/optee/optee_os/lib/libmpa/mpa_primetest.c:224
    8f6c:	f94033a0 	ldr	x0, [x29,#96]
    8f70:	f9402fa1 	ldr	x1, [x29,#88]
    8f74:	97fffd09 	bl	8398 <mpa_copy>
/home/rex/devel/optee/optee_os/lib/libmpa/mpa_primetest.c:225
    8f78:	b90083bf 	str	wzr, [x29,#128]
/home/rex/devel/optee/optee_os/lib/libmpa/mpa_primetest.c:227
    8f7c:	14000008 	b	8f9c <primality_test_miller_rabin+0x124>
/home/rex/devel/optee/optee_os/lib/libmpa/mpa_primetest.c:228
    8f80:	f94033a0 	ldr	x0, [x29,#96]
    8f84:	f94033a1 	ldr	x1, [x29,#96]
    8f88:	52800022 	mov	w2, #0x1                   	// #1
    8f8c:	94000c79 	bl	c170 <mpa_shift_right>
/home/rex/devel/optee/optee_os/lib/libmpa/mpa_primetest.c:229
    8f90:	b94083a0 	ldr	w0, [x29,#128]
    8f94:	11000400 	add	w0, w0, #0x1
    8f98:	b90083a0 	str	w0, [x29,#128]
/home/rex/devel/optee/optee_os/lib/libmpa/mpa_primetest.c:227
    8f9c:	f94033a0 	ldr	x0, [x29,#96]
    8fa0:	97fffd8f 	bl	85dc <mpa_parity>
    8fa4:	7100001f 	cmp	w0, #0x0
    8fa8:	54fffec0 	b.eq	8f80 <primality_test_miller_rabin+0x108>
/home/rex/devel/optee/optee_os/lib/libmpa/mpa_primetest.c:232
    8fac:	12800000 	mov	w0, #0xffffffff            	// #-1
    8fb0:	b9008fa0 	str	w0, [x29,#140]
/home/rex/devel/optee/optee_os/lib/libmpa/mpa_primetest.c:233
    8fb4:	b90087bf 	str	wzr, [x29,#132]
    8fb8:	14000068 	b	9158 <primality_test_miller_rabin+0x2e0>
/home/rex/devel/optee/optee_os/lib/libmpa/mpa_primetest.c:234
    8fbc:	3941efa0 	ldrb	w0, [x29,#123]
    8fc0:	7100001f 	cmp	w0, #0x0
    8fc4:	54000240 	b.eq	900c <primality_test_miller_rabin+0x194>
/home/rex/devel/optee/optee_os/lib/libmpa/mpa_primetest.c:235
    8fc8:	f94037a2 	ldr	x2, [x29,#104]
    8fcc:	90000040 	adrp	x0, 10000 <PRIME_TABLE+0x538>
    8fd0:	911f6000 	add	x0, x0, #0x7d8
    8fd4:	b98087a1 	ldrsw	x1, [x29,#132]
    8fd8:	b8617800 	ldr	w0, [x0,x1,lsl #2]
    8fdc:	2a0003e1 	mov	w1, w0
    8fe0:	aa0203e0 	mov	x0, x2
    8fe4:	94000081 	bl	91e8 <mpa_set_S32>
/home/rex/devel/optee/optee_os/lib/libmpa/mpa_primetest.c:236
    8fe8:	f94037a0 	ldr	x0, [x29,#104]
    8fec:	aa0003e1 	mov	x1, x0
    8ff0:	f94017a0 	ldr	x0, [x29,#40]
    8ff4:	94001197 	bl	d650 <mpa_cmp>
    8ff8:	7100001f 	cmp	w0, #0x0
    8ffc:	540002c1 	b.ne	9054 <primality_test_miller_rabin+0x1dc>
/home/rex/devel/optee/optee_os/lib/libmpa/mpa_primetest.c:237
    9000:	52800020 	mov	w0, #0x1                   	// #1
    9004:	b9008fa0 	str	w0, [x29,#140]
/home/rex/devel/optee/optee_os/lib/libmpa/mpa_primetest.c:238
    9008:	14000051 	b	914c <primality_test_miller_rabin+0x2d4>
/home/rex/devel/optee/optee_os/lib/libmpa/mpa_primetest.c:246
    900c:	f9402fa0 	ldr	x0, [x29,#88]
    9010:	f9402fa1 	ldr	x1, [x29,#88]
    9014:	f9400fa3 	ldr	x3, [x29,#24]
    9018:	52800022 	mov	w2, #0x1                   	// #1
    901c:	94001096 	bl	d274 <mpa_sub_word>
/home/rex/devel/optee/optee_os/lib/libmpa/mpa_primetest.c:248
    9020:	f94037a0 	ldr	x0, [x29,#104]
    9024:	f9402fa1 	ldr	x1, [x29,#88]
    9028:	94000a3b 	bl	b914 <mpa_get_random>
/home/rex/devel/optee/optee_os/lib/libmpa/mpa_primetest.c:249
    902c:	f9402fa0 	ldr	x0, [x29,#88]
    9030:	f9402fa1 	ldr	x1, [x29,#88]
    9034:	f9400fa3 	ldr	x3, [x29,#24]
    9038:	52800022 	mov	w2, #0x1                   	// #1
    903c:	94001010 	bl	d07c <mpa_add_word>
/home/rex/devel/optee/optee_os/lib/libmpa/mpa_primetest.c:251
    9040:	f94037a0 	ldr	x0, [x29,#104]
    9044:	f94037a1 	ldr	x1, [x29,#104]
    9048:	f9400fa3 	ldr	x3, [x29,#24]
    904c:	52800042 	mov	w2, #0x2                   	// #2
    9050:	9400100b 	bl	d07c <mpa_add_word>
/home/rex/devel/optee/optee_os/lib/libmpa/mpa_primetest.c:254
    9054:	f9402ba0 	ldr	x0, [x29,#80]
    9058:	f94037a1 	ldr	x1, [x29,#104]
    905c:	f94033a2 	ldr	x2, [x29,#96]
    9060:	f94027a3 	ldr	x3, [x29,#72]
    9064:	f94023a4 	ldr	x4, [x29,#64]
    9068:	b9403fa5 	ldr	w5, [x29,#60]
    906c:	f9400fa7 	ldr	x7, [x29,#24]
    9070:	2a0503e6 	mov	w6, w5
    9074:	aa0403e5 	mov	x5, x4
    9078:	aa0303e4 	mov	x4, x3
    907c:	f94017a3 	ldr	x3, [x29,#40]
    9080:	940011ed 	bl	d834 <mpa_exp_mod>
/home/rex/devel/optee/optee_os/lib/libmpa/mpa_primetest.c:255
    9084:	b9007fbf 	str	wzr, [x29,#124]
/home/rex/devel/optee/optee_os/lib/libmpa/mpa_primetest.c:258
    9088:	f9402ba0 	ldr	x0, [x29,#80]
    908c:	52800021 	mov	w1, #0x1                   	// #1
    9090:	940011a7 	bl	d72c <mpa_cmp_short>
    9094:	b90077a0 	str	w0, [x29,#116]
/home/rex/devel/optee/optee_os/lib/libmpa/mpa_primetest.c:259
    9098:	b94077a0 	ldr	w0, [x29,#116]
    909c:	7100001f 	cmp	w0, #0x0
    90a0:	540000c1 	b.ne	90b8 <primality_test_miller_rabin+0x240>
/home/rex/devel/optee/optee_os/lib/libmpa/mpa_primetest.c:259 (discriminator 1)
    90a4:	b9407fa0 	ldr	w0, [x29,#124]
    90a8:	7100001f 	cmp	w0, #0x0
    90ac:	5400006d 	b.le	90b8 <primality_test_miller_rabin+0x240>
/home/rex/devel/optee/optee_os/lib/libmpa/mpa_primetest.c:260
    90b0:	b9008fbf 	str	wzr, [x29,#140]
/home/rex/devel/optee/optee_os/lib/libmpa/mpa_primetest.c:261
    90b4:	14000026 	b	914c <primality_test_miller_rabin+0x2d4>
/home/rex/devel/optee/optee_os/lib/libmpa/mpa_primetest.c:264
    90b8:	f9402ba0 	ldr	x0, [x29,#80]
    90bc:	f9402fa1 	ldr	x1, [x29,#88]
    90c0:	94001164 	bl	d650 <mpa_cmp>
    90c4:	7100001f 	cmp	w0, #0x0
    90c8:	54000400 	b.eq	9148 <primality_test_miller_rabin+0x2d0>
/home/rex/devel/optee/optee_os/lib/libmpa/mpa_primetest.c:264 (discriminator 1)
    90cc:	b94077a0 	ldr	w0, [x29,#116]
    90d0:	7100001f 	cmp	w0, #0x0
    90d4:	54000081 	b.ne	90e4 <primality_test_miller_rabin+0x26c>
/home/rex/devel/optee/optee_os/lib/libmpa/mpa_primetest.c:265
    90d8:	b9407fa0 	ldr	w0, [x29,#124]
    90dc:	7100001f 	cmp	w0, #0x0
    90e0:	54000340 	b.eq	9148 <primality_test_miller_rabin+0x2d0>
/home/rex/devel/optee/optee_os/lib/libmpa/mpa_primetest.c:270
    90e4:	b9407fa0 	ldr	w0, [x29,#124]
    90e8:	11000400 	add	w0, w0, #0x1
    90ec:	b9007fa0 	str	w0, [x29,#124]
/home/rex/devel/optee/optee_os/lib/libmpa/mpa_primetest.c:271
    90f0:	b9407fa1 	ldr	w1, [x29,#124]
    90f4:	b94083a0 	ldr	w0, [x29,#128]
    90f8:	6b00003f 	cmp	w1, w0
    90fc:	5400022a 	b.ge	9140 <primality_test_miller_rabin+0x2c8>
/home/rex/devel/optee/optee_os/lib/libmpa/mpa_primetest.c:272
    9100:	f9402ba8 	ldr	x8, [x29,#80]
    9104:	f9402ba1 	ldr	x1, [x29,#80]
    9108:	f94027a2 	ldr	x2, [x29,#72]
    910c:	f94023a3 	ldr	x3, [x29,#64]
    9110:	b9403fa4 	ldr	w4, [x29,#60]
    9114:	f0000020 	adrp	x0, 10000 <PRIME_TABLE+0x538>
    9118:	911f2000 	add	x0, x0, #0x7c8
    911c:	f9400fa7 	ldr	x7, [x29,#24]
    9120:	2a0403e6 	mov	w6, w4
    9124:	aa0303e5 	mov	x5, x3
    9128:	aa0203e4 	mov	x4, x2
    912c:	f94017a3 	ldr	x3, [x29,#40]
    9130:	aa0003e2 	mov	x2, x0
    9134:	aa0803e0 	mov	x0, x8
    9138:	940011bf 	bl	d834 <mpa_exp_mod>
/home/rex/devel/optee/optee_os/lib/libmpa/mpa_primetest.c:274
    913c:	17ffffd3 	b	9088 <primality_test_miller_rabin+0x210>
/home/rex/devel/optee/optee_os/lib/libmpa/mpa_primetest.c:276
    9140:	b9008fbf 	str	wzr, [x29,#140]
    9144:	14000002 	b	914c <primality_test_miller_rabin+0x2d4>
/home/rex/devel/optee/optee_os/lib/libmpa/mpa_primetest.c:267
    9148:	d503201f 	nop
/home/rex/devel/optee/optee_os/lib/libmpa/mpa_primetest.c:233 (discriminator 2)
    914c:	b94087a0 	ldr	w0, [x29,#132]
    9150:	11000400 	add	w0, w0, #0x1
    9154:	b90087a0 	str	w0, [x29,#132]
/home/rex/devel/optee/optee_os/lib/libmpa/mpa_primetest.c:233 (discriminator 1)
    9158:	b94087a1 	ldr	w1, [x29,#132]
    915c:	b9408ba0 	ldr	w0, [x29,#136]
    9160:	6b00003f 	cmp	w1, w0
    9164:	5400008a 	b.ge	9174 <primality_test_miller_rabin+0x2fc>
/home/rex/devel/optee/optee_os/lib/libmpa/mpa_primetest.c:233 (discriminator 3)
    9168:	b9408fa0 	ldr	w0, [x29,#140]
    916c:	3100041f 	cmn	w0, #0x1
    9170:	54fff260 	b.eq	8fbc <primality_test_miller_rabin+0x144>
/home/rex/devel/optee/optee_os/lib/libmpa/mpa_primetest.c:279
    9174:	b9408fa0 	ldr	w0, [x29,#140]
    9178:	3100041f 	cmn	w0, #0x1
    917c:	540000c1 	b.ne	9194 <primality_test_miller_rabin+0x31c>
/home/rex/devel/optee/optee_os/lib/libmpa/mpa_primetest.c:279 (discriminator 1)
    9180:	3941efa0 	ldrb	w0, [x29,#123]
    9184:	7100001f 	cmp	w0, #0x0
    9188:	54000060 	b.eq	9194 <primality_test_miller_rabin+0x31c>
/home/rex/devel/optee/optee_os/lib/libmpa/mpa_primetest.c:280
    918c:	52800020 	mov	w0, #0x1                   	// #1
    9190:	b9008fa0 	str	w0, [x29,#140]
/home/rex/devel/optee/optee_os/lib/libmpa/mpa_primetest.c:282
    9194:	9101a3a0 	add	x0, x29, #0x68
    9198:	f9400fa1 	ldr	x1, [x29,#24]
    919c:	94000815 	bl	b1f0 <mpa_free_static_temp_var>
/home/rex/devel/optee/optee_os/lib/libmpa/mpa_primetest.c:283
    91a0:	910183a0 	add	x0, x29, #0x60
    91a4:	f9400fa1 	ldr	x1, [x29,#24]
    91a8:	94000812 	bl	b1f0 <mpa_free_static_temp_var>
/home/rex/devel/optee/optee_os/lib/libmpa/mpa_primetest.c:284
    91ac:	910163a0 	add	x0, x29, #0x58
    91b0:	f9400fa1 	ldr	x1, [x29,#24]
    91b4:	9400080f 	bl	b1f0 <mpa_free_static_temp_var>
/home/rex/devel/optee/optee_os/lib/libmpa/mpa_primetest.c:285
    91b8:	910143a0 	add	x0, x29, #0x50
    91bc:	f9400fa1 	ldr	x1, [x29,#24]
    91c0:	9400080c 	bl	b1f0 <mpa_free_static_temp_var>
/home/rex/devel/optee/optee_os/lib/libmpa/mpa_primetest.c:287
    91c4:	910123a0 	add	x0, x29, #0x48
    91c8:	f9400fa1 	ldr	x1, [x29,#24]
    91cc:	94000809 	bl	b1f0 <mpa_free_static_temp_var>
/home/rex/devel/optee/optee_os/lib/libmpa/mpa_primetest.c:288
    91d0:	910103a0 	add	x0, x29, #0x40
    91d4:	f9400fa1 	ldr	x1, [x29,#24]
    91d8:	94000806 	bl	b1f0 <mpa_free_static_temp_var>
/home/rex/devel/optee/optee_os/lib/libmpa/mpa_primetest.c:290
    91dc:	b9408fa0 	ldr	w0, [x29,#140]
/home/rex/devel/optee/optee_os/lib/libmpa/mpa_primetest.c:291
    91e0:	a8c97bfd 	ldp	x29, x30, [sp],#144
    91e4:	d65f03c0 	ret

00000000000091e8 <mpa_set_S32>:
mpa_set_S32():
/home/rex/devel/optee/optee_os/lib/libmpa/mpa_conv.c:35
    91e8:	d10043ff 	sub	sp, sp, #0x10
    91ec:	f90007e0 	str	x0, [sp,#8]
    91f0:	b90007e1 	str	w1, [sp,#4]
/home/rex/devel/optee/optee_os/lib/libmpa/mpa_conv.c:37
    91f4:	b94007e0 	ldr	w0, [sp,#4]
    91f8:	7100001f 	cmp	w0, #0x0
    91fc:	54000140 	b.eq	9224 <mpa_set_S32+0x3c>
/home/rex/devel/optee/optee_os/lib/libmpa/mpa_conv.c:38
    9200:	b94007e0 	ldr	w0, [sp,#4]
    9204:	7100001f 	cmp	w0, #0x0
    9208:	5400006a 	b.ge	9214 <mpa_set_S32+0x2c>
/home/rex/devel/optee/optee_os/lib/libmpa/mpa_conv.c:38 (discriminator 1)
    920c:	12800000 	mov	w0, #0xffffffff            	// #-1
    9210:	14000002 	b	9218 <mpa_set_S32+0x30>
/home/rex/devel/optee/optee_os/lib/libmpa/mpa_conv.c:38 (discriminator 2)
    9214:	52800020 	mov	w0, #0x1                   	// #1
/home/rex/devel/optee/optee_os/lib/libmpa/mpa_conv.c:38 (discriminator 4)
    9218:	f94007e1 	ldr	x1, [sp,#8]
    921c:	b9000420 	str	w0, [x1,#4]
    9220:	14000003 	b	922c <mpa_set_S32+0x44>
/home/rex/devel/optee/optee_os/lib/libmpa/mpa_conv.c:40
    9224:	f94007e0 	ldr	x0, [sp,#8]
    9228:	b900041f 	str	wzr, [x0,#4]
/home/rex/devel/optee/optee_os/lib/libmpa/mpa_conv.c:41
    922c:	b94007e0 	ldr	w0, [sp,#4]
    9230:	7100001f 	cmp	w0, #0x0
    9234:	5a80a400 	cneg	w0, w0, lt
    9238:	2a0003e1 	mov	w1, w0
    923c:	f94007e0 	ldr	x0, [sp,#8]
    9240:	b9000801 	str	w1, [x0,#8]
/home/rex/devel/optee/optee_os/lib/libmpa/mpa_conv.c:45
    9244:	d503201f 	nop
    9248:	910043ff 	add	sp, sp, #0x10
    924c:	d65f03c0 	ret

0000000000009250 <mpa_get_S32>:
mpa_get_S32():
/home/rex/devel/optee/optee_os/lib/libmpa/mpa_conv.c:55
    9250:	d10043ff 	sub	sp, sp, #0x10
    9254:	f90007e0 	str	x0, [sp,#8]
    9258:	f90003e1 	str	x1, [sp]
/home/rex/devel/optee/optee_os/lib/libmpa/mpa_conv.c:57
    925c:	f94003e0 	ldr	x0, [sp]
    9260:	b9400400 	ldr	w0, [x0,#4]
    9264:	7100001f 	cmp	w0, #0x0
    9268:	5a80a400 	cneg	w0, w0, lt
    926c:	7100041f 	cmp	w0, #0x1
    9270:	5400006d 	b.le	927c <mpa_get_S32+0x2c>
/home/rex/devel/optee/optee_os/lib/libmpa/mpa_conv.c:58
    9274:	12800000 	mov	w0, #0xffffffff            	// #-1
    9278:	1400002e 	b	9330 <mpa_get_S32+0xe0>
/home/rex/devel/optee/optee_os/lib/libmpa/mpa_conv.c:59
    927c:	f94003e0 	ldr	x0, [sp]
    9280:	b9400801 	ldr	w1, [x0,#8]
    9284:	52b00000 	mov	w0, #0x80000000            	// #-2147483648
    9288:	6b00003f 	cmp	w1, w0
    928c:	540000e9 	b.ls	92a8 <mpa_get_S32+0x58>
/home/rex/devel/optee/optee_os/lib/libmpa/mpa_conv.c:59 (discriminator 1)
    9290:	f94003e0 	ldr	x0, [sp]
    9294:	b9400400 	ldr	w0, [x0,#4]
    9298:	7100001f 	cmp	w0, #0x0
    929c:	5400006a 	b.ge	92a8 <mpa_get_S32+0x58>
/home/rex/devel/optee/optee_os/lib/libmpa/mpa_conv.c:60
    92a0:	12800000 	mov	w0, #0xffffffff            	// #-1
    92a4:	14000023 	b	9330 <mpa_get_S32+0xe0>
/home/rex/devel/optee/optee_os/lib/libmpa/mpa_conv.c:61
    92a8:	f94003e0 	ldr	x0, [sp]
    92ac:	b9400800 	ldr	w0, [x0,#8]
    92b0:	7100001f 	cmp	w0, #0x0
    92b4:	540000ea 	b.ge	92d0 <mpa_get_S32+0x80>
/home/rex/devel/optee/optee_os/lib/libmpa/mpa_conv.c:61 (discriminator 1)
    92b8:	f94003e0 	ldr	x0, [sp]
    92bc:	b9400400 	ldr	w0, [x0,#4]
    92c0:	7100001f 	cmp	w0, #0x0
    92c4:	5400006b 	b.lt	92d0 <mpa_get_S32+0x80>
/home/rex/devel/optee/optee_os/lib/libmpa/mpa_conv.c:62
    92c8:	12800000 	mov	w0, #0xffffffff            	// #-1
    92cc:	14000019 	b	9330 <mpa_get_S32+0xe0>
/home/rex/devel/optee/optee_os/lib/libmpa/mpa_conv.c:64
    92d0:	f94003e0 	ldr	x0, [sp]
    92d4:	b9400400 	ldr	w0, [x0,#4]
    92d8:	7100001f 	cmp	w0, #0x0
    92dc:	540000ab 	b.lt	92f0 <mpa_get_S32+0xa0>
/home/rex/devel/optee/optee_os/lib/libmpa/mpa_conv.c:64 (discriminator 2)
    92e0:	f94003e0 	ldr	x0, [sp]
    92e4:	b9400400 	ldr	w0, [x0,#4]
    92e8:	7100001f 	cmp	w0, #0x0
    92ec:	5400008d 	b.le	92fc <mpa_get_S32+0xac>
/home/rex/devel/optee/optee_os/lib/libmpa/mpa_conv.c:64 (discriminator 3)
    92f0:	f94003e0 	ldr	x0, [sp]
    92f4:	b9400801 	ldr	w1, [x0,#8]
    92f8:	14000002 	b	9300 <mpa_get_S32+0xb0>
/home/rex/devel/optee/optee_os/lib/libmpa/mpa_conv.c:64 (discriminator 4)
    92fc:	52800001 	mov	w1, #0x0                   	// #0
/home/rex/devel/optee/optee_os/lib/libmpa/mpa_conv.c:64 (discriminator 6)
    9300:	f94003e0 	ldr	x0, [sp]
    9304:	b9400400 	ldr	w0, [x0,#4]
    9308:	7100001f 	cmp	w0, #0x0
    930c:	5400006b 	b.lt	9318 <mpa_get_S32+0xc8>
/home/rex/devel/optee/optee_os/lib/libmpa/mpa_conv.c:64 (discriminator 7)
    9310:	52800020 	mov	w0, #0x1                   	// #1
    9314:	14000002 	b	931c <mpa_get_S32+0xcc>
/home/rex/devel/optee/optee_os/lib/libmpa/mpa_conv.c:64 (discriminator 8)
    9318:	12800000 	mov	w0, #0xffffffff            	// #-1
/home/rex/devel/optee/optee_os/lib/libmpa/mpa_conv.c:64 (discriminator 10)
    931c:	1b007c20 	mul	w0, w1, w0
    9320:	2a0003e1 	mov	w1, w0
    9324:	f94007e0 	ldr	x0, [sp,#8]
    9328:	b9000001 	str	w1, [x0]
/home/rex/devel/optee/optee_os/lib/libmpa/mpa_conv.c:65 (discriminator 10)
    932c:	52800000 	mov	w0, #0x0                   	// #0
/home/rex/devel/optee/optee_os/lib/libmpa/mpa_conv.c:70
    9330:	910043ff 	add	sp, sp, #0x10
    9334:	d65f03c0 	ret

0000000000009338 <mpa_set_word>:
mpa_set_word():
/home/rex/devel/optee/optee_os/lib/libmpa/mpa_conv.c:78
    9338:	d10043ff 	sub	sp, sp, #0x10
    933c:	f90007e0 	str	x0, [sp,#8]
    9340:	b90007e1 	str	w1, [sp,#4]
/home/rex/devel/optee/optee_os/lib/libmpa/mpa_conv.c:79
    9344:	f94007e0 	ldr	x0, [sp,#8]
    9348:	b94007e1 	ldr	w1, [sp,#4]
    934c:	b9000801 	str	w1, [x0,#8]
/home/rex/devel/optee/optee_os/lib/libmpa/mpa_conv.c:80
    9350:	b94007e0 	ldr	w0, [sp,#4]
    9354:	7100001f 	cmp	w0, #0x0
    9358:	1a9f07e0 	cset	w0, ne
    935c:	12001c00 	and	w0, w0, #0xff
    9360:	2a0003e1 	mov	w1, w0
    9364:	f94007e0 	ldr	x0, [sp,#8]
    9368:	b9000401 	str	w1, [x0,#4]
/home/rex/devel/optee/optee_os/lib/libmpa/mpa_conv.c:81
    936c:	d503201f 	nop
    9370:	910043ff 	add	sp, sp, #0x10
    9374:	d65f03c0 	ret

0000000000009378 <mpa_get_word>:
mpa_get_word():
/home/rex/devel/optee/optee_os/lib/libmpa/mpa_conv.c:90
    9378:	d10043ff 	sub	sp, sp, #0x10
    937c:	f90007e0 	str	x0, [sp,#8]
/home/rex/devel/optee/optee_os/lib/libmpa/mpa_conv.c:91
    9380:	f94007e0 	ldr	x0, [sp,#8]
    9384:	b9400400 	ldr	w0, [x0,#4]
    9388:	7100001f 	cmp	w0, #0x0
    938c:	540000ab 	b.lt	93a0 <mpa_get_word+0x28>
/home/rex/devel/optee/optee_os/lib/libmpa/mpa_conv.c:91 (discriminator 2)
    9390:	f94007e0 	ldr	x0, [sp,#8]
    9394:	b9400400 	ldr	w0, [x0,#4]
    9398:	7100001f 	cmp	w0, #0x0
    939c:	5400008d 	b.le	93ac <mpa_get_word+0x34>
/home/rex/devel/optee/optee_os/lib/libmpa/mpa_conv.c:91 (discriminator 3)
    93a0:	f94007e0 	ldr	x0, [sp,#8]
    93a4:	b9400800 	ldr	w0, [x0,#8]
    93a8:	14000002 	b	93b0 <mpa_get_word+0x38>
/home/rex/devel/optee/optee_os/lib/libmpa/mpa_conv.c:91 (discriminator 4)
    93ac:	52800000 	mov	w0, #0x0                   	// #0
/home/rex/devel/optee/optee_os/lib/libmpa/mpa_conv.c:92 (discriminator 7)
    93b0:	910043ff 	add	sp, sp, #0x10
    93b4:	d65f03c0 	ret

00000000000093b8 <__mpa_soft_div>:
__mpa_soft_div():
/home/rex/devel/optee/optee_os/lib/libmpa/mpa_div.c:44
    93b8:	d10103ff 	sub	sp, sp, #0x40
    93bc:	f9000fe0 	str	x0, [sp,#24]
    93c0:	b90017e1 	str	w1, [sp,#20]
    93c4:	f90007e2 	str	x2, [sp,#8]
/home/rex/devel/optee/optee_os/lib/libmpa/mpa_div.c:45
    93c8:	f9001fff 	str	xzr, [sp,#56]
    93cc:	d2800020 	mov	x0, #0x1                   	// #1
    93d0:	f9001be0 	str	x0, [sp,#48]
/home/rex/devel/optee/optee_os/lib/libmpa/mpa_div.c:46
    93d4:	b94017e0 	ldr	w0, [sp,#20]
    93d8:	f90017e0 	str	x0, [sp,#40]
/home/rex/devel/optee/optee_os/lib/libmpa/mpa_div.c:48
    93dc:	14000007 	b	93f8 <__mpa_soft_div+0x40>
/home/rex/devel/optee/optee_os/lib/libmpa/mpa_div.c:49
    93e0:	f94017e0 	ldr	x0, [sp,#40]
    93e4:	d37ff800 	lsl	x0, x0, #1
    93e8:	f90017e0 	str	x0, [sp,#40]
/home/rex/devel/optee/optee_os/lib/libmpa/mpa_div.c:50
    93ec:	f9401be0 	ldr	x0, [sp,#48]
    93f0:	d37ff800 	lsl	x0, x0, #1
    93f4:	f9001be0 	str	x0, [sp,#48]
/home/rex/devel/optee/optee_os/lib/libmpa/mpa_div.c:48
    93f8:	f94017e0 	ldr	x0, [sp,#40]
    93fc:	f100001f 	cmp	x0, #0x0
    9400:	54ffff0a 	b.ge	93e0 <__mpa_soft_div+0x28>
/home/rex/devel/optee/optee_os/lib/libmpa/mpa_div.c:53
    9404:	14000013 	b	9450 <__mpa_soft_div+0x98>
/home/rex/devel/optee/optee_os/lib/libmpa/mpa_div.c:54
    9408:	f94017e1 	ldr	x1, [sp,#40]
    940c:	f9400fe0 	ldr	x0, [sp,#24]
    9410:	eb00003f 	cmp	x1, x0
    9414:	54000128 	b.hi	9438 <__mpa_soft_div+0x80>
/home/rex/devel/optee/optee_os/lib/libmpa/mpa_div.c:55
    9418:	f9400fe1 	ldr	x1, [sp,#24]
    941c:	f94017e0 	ldr	x0, [sp,#40]
    9420:	cb000020 	sub	x0, x1, x0
    9424:	f9000fe0 	str	x0, [sp,#24]
/home/rex/devel/optee/optee_os/lib/libmpa/mpa_div.c:56
    9428:	f9401fe1 	ldr	x1, [sp,#56]
    942c:	f9401be0 	ldr	x0, [sp,#48]
    9430:	8b000020 	add	x0, x1, x0
    9434:	f9001fe0 	str	x0, [sp,#56]
/home/rex/devel/optee/optee_os/lib/libmpa/mpa_div.c:58
    9438:	f94017e0 	ldr	x0, [sp,#40]
    943c:	d341fc00 	lsr	x0, x0, #1
    9440:	f90017e0 	str	x0, [sp,#40]
/home/rex/devel/optee/optee_os/lib/libmpa/mpa_div.c:59
    9444:	f9401be0 	ldr	x0, [sp,#48]
    9448:	d341fc00 	lsr	x0, x0, #1
    944c:	f9001be0 	str	x0, [sp,#48]
/home/rex/devel/optee/optee_os/lib/libmpa/mpa_div.c:53
    9450:	f9401be0 	ldr	x0, [sp,#48]
    9454:	f100001f 	cmp	x0, #0x0
    9458:	54fffd81 	b.ne	9408 <__mpa_soft_div+0x50>
/home/rex/devel/optee/optee_os/lib/libmpa/mpa_div.c:62
    945c:	f94007e0 	ldr	x0, [sp,#8]
    9460:	f100001f 	cmp	x0, #0x0
    9464:	540000a0 	b.eq	9478 <__mpa_soft_div+0xc0>
/home/rex/devel/optee/optee_os/lib/libmpa/mpa_div.c:63
    9468:	f9400fe0 	ldr	x0, [sp,#24]
    946c:	2a0003e1 	mov	w1, w0
    9470:	f94007e0 	ldr	x0, [sp,#8]
    9474:	b9000001 	str	w1, [x0]
/home/rex/devel/optee/optee_os/lib/libmpa/mpa_div.c:65
    9478:	f9401fe0 	ldr	x0, [sp,#56]
/home/rex/devel/optee/optee_os/lib/libmpa/mpa_div.c:66
    947c:	910103ff 	add	sp, sp, #0x40
    9480:	d65f03c0 	ret

0000000000009484 <__mpa_div_dword>:
__mpa_div_dword():
/home/rex/devel/optee/optee_os/lib/libmpa/mpa_div.c:76
    9484:	a9bc7bfd 	stp	x29, x30, [sp,#-64]!
    9488:	910003fd 	mov	x29, sp
    948c:	b9002fa0 	str	w0, [x29,#44]
    9490:	b9002ba1 	str	w1, [x29,#40]
    9494:	b90027a2 	str	w2, [x29,#36]
    9498:	f9000fa3 	str	x3, [x29,#24]
/home/rex/devel/optee/optee_os/lib/libmpa/mpa_div.c:81
    949c:	b9402ba0 	ldr	w0, [x29,#40]
    94a0:	d3607c01 	lsl	x1, x0, #32
    94a4:	b9402fa0 	ldr	w0, [x29,#44]
    94a8:	8b000020 	add	x0, x1, x0
    94ac:	f9001fa0 	str	x0, [x29,#56]
/home/rex/devel/optee/optee_os/lib/libmpa/mpa_div.c:82
    94b0:	f9400fa2 	ldr	x2, [x29,#24]
    94b4:	b94027a1 	ldr	w1, [x29,#36]
    94b8:	f9401fa0 	ldr	x0, [x29,#56]
    94bc:	97ffffbf 	bl	93b8 <__mpa_soft_div>
/home/rex/devel/optee/optee_os/lib/libmpa/mpa_div.c:89
    94c0:	a8c47bfd 	ldp	x29, x30, [sp],#64
    94c4:	d65f03c0 	ret

00000000000094c8 <__mpa_div_q_r_internal>:
__mpa_div_q_r_internal():
/home/rex/devel/optee/optee_os/lib/libmpa/mpa_div.c:106
    94c8:	a9b67bfd 	stp	x29, x30, [sp,#-160]!
    94cc:	910003fd 	mov	x29, sp
    94d0:	f9000bf3 	str	x19, [sp,#16]
    94d4:	f90027a0 	str	x0, [x29,#72]
    94d8:	f90023a1 	str	x1, [x29,#64]
    94dc:	f9001fa2 	str	x2, [x29,#56]
    94e0:	f9001ba3 	str	x3, [x29,#48]
    94e4:	f90017a4 	str	x4, [x29,#40]
/home/rex/devel/optee/optee_os/lib/libmpa/mpa_div.c:125
    94e8:	9101a3a0 	add	x0, x29, #0x68
    94ec:	f94017a1 	ldr	x1, [x29,#40]
    94f0:	94000735 	bl	b1c4 <mpa_alloc_static_temp_var>
/home/rex/devel/optee/optee_os/lib/libmpa/mpa_div.c:126
    94f4:	910183a0 	add	x0, x29, #0x60
    94f8:	f94017a1 	ldr	x1, [x29,#40]
    94fc:	94000732 	bl	b1c4 <mpa_alloc_static_temp_var>
/home/rex/devel/optee/optee_os/lib/libmpa/mpa_div.c:127
    9500:	f94033a0 	ldr	x0, [x29,#96]
    9504:	f9401ba1 	ldr	x1, [x29,#48]
    9508:	97fffba4 	bl	8398 <mpa_copy>
/home/rex/devel/optee/optee_os/lib/libmpa/mpa_div.c:134
    950c:	910163a0 	add	x0, x29, #0x58
    9510:	f94017a1 	ldr	x1, [x29,#40]
    9514:	9400072c 	bl	b1c4 <mpa_alloc_static_temp_var>
/home/rex/devel/optee/optee_os/lib/libmpa/mpa_div.c:135
    9518:	f9402fa0 	ldr	x0, [x29,#88]
    951c:	f9401fa1 	ldr	x1, [x29,#56]
    9520:	97fffb9e 	bl	8398 <mpa_copy>
/home/rex/devel/optee/optee_os/lib/libmpa/mpa_div.c:136
    9524:	f9402fa0 	ldr	x0, [x29,#88]
    9528:	b9400400 	ldr	w0, [x0,#4]
    952c:	7100001f 	cmp	w0, #0x0
    9530:	540000ca 	b.ge	9548 <__mpa_div_q_r_internal+0x80>
/home/rex/devel/optee/optee_os/lib/libmpa/mpa_div.c:136 (discriminator 1)
    9534:	f9402fa0 	ldr	x0, [x29,#88]
    9538:	f9402fa1 	ldr	x1, [x29,#88]
    953c:	b9400421 	ldr	w1, [x1,#4]
    9540:	4b0103e1 	neg	w1, w1
    9544:	b9000401 	str	w1, [x0,#4]
/home/rex/devel/optee/optee_os/lib/libmpa/mpa_div.c:137
    9548:	f94033a0 	ldr	x0, [x29,#96]
    954c:	b9400400 	ldr	w0, [x0,#4]
    9550:	7100001f 	cmp	w0, #0x0
    9554:	540000ca 	b.ge	956c <__mpa_div_q_r_internal+0xa4>
/home/rex/devel/optee/optee_os/lib/libmpa/mpa_div.c:137 (discriminator 1)
    9558:	f94033a0 	ldr	x0, [x29,#96]
    955c:	f94033a1 	ldr	x1, [x29,#96]
    9560:	b9400421 	ldr	w1, [x1,#4]
    9564:	4b0103e1 	neg	w1, w1
    9568:	b9000401 	str	w1, [x0,#4]
/home/rex/devel/optee/optee_os/lib/libmpa/mpa_div.c:142
    956c:	b9009fbf 	str	wzr, [x29,#156]
/home/rex/devel/optee/optee_os/lib/libmpa/mpa_div.c:143
    9570:	f94033a1 	ldr	x1, [x29,#96]
    9574:	f94033a0 	ldr	x0, [x29,#96]
    9578:	b9400400 	ldr	w0, [x0,#4]
    957c:	7100001f 	cmp	w0, #0x0
    9580:	5a80a400 	cneg	w0, w0, lt
    9584:	51000400 	sub	w0, w0, #0x1
    9588:	93407c00 	sxtw	x0, w0
    958c:	d37ef400 	lsl	x0, x0, #2
    9590:	8b000020 	add	x0, x1, x0
    9594:	b9400800 	ldr	w0, [x0,#8]
    9598:	b90087a0 	str	w0, [x29,#132]
/home/rex/devel/optee/optee_os/lib/libmpa/mpa_div.c:144
    959c:	14000007 	b	95b8 <__mpa_div_q_r_internal+0xf0>
/home/rex/devel/optee/optee_os/lib/libmpa/mpa_div.c:145
    95a0:	b9409fa0 	ldr	w0, [x29,#156]
    95a4:	11000400 	add	w0, w0, #0x1
    95a8:	b9009fa0 	str	w0, [x29,#156]
/home/rex/devel/optee/optee_os/lib/libmpa/mpa_div.c:146
    95ac:	b94087a0 	ldr	w0, [x29,#132]
    95b0:	531f7800 	lsl	w0, w0, #1
    95b4:	b90087a0 	str	w0, [x29,#132]
/home/rex/devel/optee/optee_os/lib/libmpa/mpa_div.c:144
    95b8:	b94087a0 	ldr	w0, [x29,#132]
    95bc:	7100001f 	cmp	w0, #0x0
    95c0:	54ffff0a 	b.ge	95a0 <__mpa_div_q_r_internal+0xd8>
/home/rex/devel/optee/optee_os/lib/libmpa/mpa_div.c:148
    95c4:	b9409fa0 	ldr	w0, [x29,#156]
    95c8:	7100001f 	cmp	w0, #0x0
    95cc:	54000120 	b.eq	95f0 <__mpa_div_q_r_internal+0x128>
/home/rex/devel/optee/optee_os/lib/libmpa/mpa_div.c:149
    95d0:	f9402fa0 	ldr	x0, [x29,#88]
    95d4:	f9402fa1 	ldr	x1, [x29,#88]
    95d8:	b9409fa2 	ldr	w2, [x29,#156]
    95dc:	94000a03 	bl	bde8 <mpa_shift_left>
/home/rex/devel/optee/optee_os/lib/libmpa/mpa_div.c:150
    95e0:	f94033a0 	ldr	x0, [x29,#96]
    95e4:	f94033a1 	ldr	x1, [x29,#96]
    95e8:	b9409fa2 	ldr	w2, [x29,#156]
    95ec:	940009ff 	bl	bde8 <mpa_shift_left>
/home/rex/devel/optee/optee_os/lib/libmpa/mpa_div.c:153
    95f0:	f9402fa0 	ldr	x0, [x29,#88]
    95f4:	b9400400 	ldr	w0, [x0,#4]
    95f8:	b9008fa0 	str	w0, [x29,#140]
/home/rex/devel/optee/optee_os/lib/libmpa/mpa_div.c:154
    95fc:	f94033a0 	ldr	x0, [x29,#96]
    9600:	b9400400 	ldr	w0, [x0,#4]
    9604:	b9008ba0 	str	w0, [x29,#136]
/home/rex/devel/optee/optee_os/lib/libmpa/mpa_div.c:155
    9608:	b9408fa1 	ldr	w1, [x29,#140]
    960c:	b9408ba0 	ldr	w0, [x29,#136]
    9610:	4b000020 	sub	w0, w1, w0
    9614:	b9009ba0 	str	w0, [x29,#152]
/home/rex/devel/optee/optee_os/lib/libmpa/mpa_div.c:157
    9618:	f94027a0 	ldr	x0, [x29,#72]
    961c:	97fffb4d 	bl	8350 <mpa_wipe>
/home/rex/devel/optee/optee_os/lib/libmpa/mpa_div.c:163
    9620:	f94033a0 	ldr	x0, [x29,#96]
    9624:	b9409ba1 	ldr	w1, [x29,#152]
    9628:	94000958 	bl	bb88 <__mpa_shift_words_left>
/home/rex/devel/optee/optee_os/lib/libmpa/mpa_div.c:165
    962c:	f94033a0 	ldr	x0, [x29,#96]
    9630:	b9400400 	ldr	w0, [x0,#4]
    9634:	7100001f 	cmp	w0, #0x0
    9638:	5a80a400 	cneg	w0, w0, lt
    963c:	b90097a0 	str	w0, [x29,#148]
/home/rex/devel/optee/optee_os/lib/libmpa/mpa_div.c:166
    9640:	52800020 	mov	w0, #0x1                   	// #1
    9644:	b90093a0 	str	w0, [x29,#144]
/home/rex/devel/optee/optee_os/lib/libmpa/mpa_div.c:167
    9648:	14000024 	b	96d8 <__mpa_div_q_r_internal+0x210>
/home/rex/devel/optee/optee_os/lib/libmpa/mpa_div.c:168
    964c:	b94097a0 	ldr	w0, [x29,#148]
    9650:	51000400 	sub	w0, w0, #0x1
    9654:	b90097a0 	str	w0, [x29,#148]
/home/rex/devel/optee/optee_os/lib/libmpa/mpa_div.c:169
    9658:	f9402fa0 	ldr	x0, [x29,#88]
    965c:	b9400400 	ldr	w0, [x0,#4]
    9660:	7100001f 	cmp	w0, #0x0
    9664:	5a80a401 	cneg	w1, w0, lt
    9668:	b94097a0 	ldr	w0, [x29,#148]
    966c:	6b00003f 	cmp	w1, w0
    9670:	540000ed 	b.le	968c <__mpa_div_q_r_internal+0x1c4>
/home/rex/devel/optee/optee_os/lib/libmpa/mpa_div.c:169 (discriminator 1)
    9674:	f9402fa1 	ldr	x1, [x29,#88]
    9678:	b98097a0 	ldrsw	x0, [x29,#148]
    967c:	d37ef400 	lsl	x0, x0, #2
    9680:	8b000020 	add	x0, x1, x0
    9684:	b9400801 	ldr	w1, [x0,#8]
    9688:	14000002 	b	9690 <__mpa_div_q_r_internal+0x1c8>
/home/rex/devel/optee/optee_os/lib/libmpa/mpa_div.c:169 (discriminator 2)
    968c:	52800001 	mov	w1, #0x0                   	// #0
/home/rex/devel/optee/optee_os/lib/libmpa/mpa_div.c:169 (discriminator 4)
    9690:	f94033a0 	ldr	x0, [x29,#96]
    9694:	b9400400 	ldr	w0, [x0,#4]
    9698:	7100001f 	cmp	w0, #0x0
    969c:	5a80a402 	cneg	w2, w0, lt
    96a0:	b94097a0 	ldr	w0, [x29,#148]
    96a4:	6b00005f 	cmp	w2, w0
    96a8:	540000ed 	b.le	96c4 <__mpa_div_q_r_internal+0x1fc>
/home/rex/devel/optee/optee_os/lib/libmpa/mpa_div.c:169 (discriminator 5)
    96ac:	f94033a2 	ldr	x2, [x29,#96]
    96b0:	b98097a0 	ldrsw	x0, [x29,#148]
    96b4:	d37ef400 	lsl	x0, x0, #2
    96b8:	8b000040 	add	x0, x2, x0
    96bc:	b9400800 	ldr	w0, [x0,#8]
    96c0:	14000002 	b	96c8 <__mpa_div_q_r_internal+0x200>
/home/rex/devel/optee/optee_os/lib/libmpa/mpa_div.c:169 (discriminator 6)
    96c4:	52800000 	mov	w0, #0x0                   	// #0
/home/rex/devel/optee/optee_os/lib/libmpa/mpa_div.c:169 (discriminator 8)
    96c8:	6b00003f 	cmp	w1, w0
    96cc:	1a9f17e0 	cset	w0, eq
    96d0:	12001c00 	and	w0, w0, #0xff
    96d4:	b90093a0 	str	w0, [x29,#144]
/home/rex/devel/optee/optee_os/lib/libmpa/mpa_div.c:167
    96d8:	b94093a0 	ldr	w0, [x29,#144]
    96dc:	7100001f 	cmp	w0, #0x0
    96e0:	54000080 	b.eq	96f0 <__mpa_div_q_r_internal+0x228>
/home/rex/devel/optee/optee_os/lib/libmpa/mpa_div.c:167 (discriminator 1)
    96e4:	b94097a0 	ldr	w0, [x29,#148]
    96e8:	7100001f 	cmp	w0, #0x0
    96ec:	54fffb0c 	b.gt	964c <__mpa_div_q_r_internal+0x184>
/home/rex/devel/optee/optee_os/lib/libmpa/mpa_div.c:171
    96f0:	b94093a0 	ldr	w0, [x29,#144]
    96f4:	7100001f 	cmp	w0, #0x0
    96f8:	54000541 	b.ne	97a0 <__mpa_div_q_r_internal+0x2d8>
/home/rex/devel/optee/optee_os/lib/libmpa/mpa_div.c:171 (discriminator 1)
    96fc:	f9402fa0 	ldr	x0, [x29,#88]
    9700:	b9400400 	ldr	w0, [x0,#4]
    9704:	7100001f 	cmp	w0, #0x0
    9708:	5a80a401 	cneg	w1, w0, lt
    970c:	b94097a0 	ldr	w0, [x29,#148]
    9710:	6b00003f 	cmp	w1, w0
    9714:	540000ed 	b.le	9730 <__mpa_div_q_r_internal+0x268>
/home/rex/devel/optee/optee_os/lib/libmpa/mpa_div.c:171 (discriminator 2)
    9718:	f9402fa1 	ldr	x1, [x29,#88]
    971c:	b98097a0 	ldrsw	x0, [x29,#148]
    9720:	d37ef400 	lsl	x0, x0, #2
    9724:	8b000020 	add	x0, x1, x0
    9728:	b9400801 	ldr	w1, [x0,#8]
    972c:	14000002 	b	9734 <__mpa_div_q_r_internal+0x26c>
/home/rex/devel/optee/optee_os/lib/libmpa/mpa_div.c:171 (discriminator 3)
    9730:	52800001 	mov	w1, #0x0                   	// #0
/home/rex/devel/optee/optee_os/lib/libmpa/mpa_div.c:171 (discriminator 5)
    9734:	f94033a0 	ldr	x0, [x29,#96]
    9738:	b9400400 	ldr	w0, [x0,#4]
    973c:	7100001f 	cmp	w0, #0x0
    9740:	5a80a402 	cneg	w2, w0, lt
    9744:	b94097a0 	ldr	w0, [x29,#148]
    9748:	6b00005f 	cmp	w2, w0
    974c:	540000ed 	b.le	9768 <__mpa_div_q_r_internal+0x2a0>
/home/rex/devel/optee/optee_os/lib/libmpa/mpa_div.c:171 (discriminator 6)
    9750:	f94033a2 	ldr	x2, [x29,#96]
    9754:	b98097a0 	ldrsw	x0, [x29,#148]
    9758:	d37ef400 	lsl	x0, x0, #2
    975c:	8b000040 	add	x0, x2, x0
    9760:	b9400800 	ldr	w0, [x0,#8]
    9764:	14000002 	b	976c <__mpa_div_q_r_internal+0x2a4>
/home/rex/devel/optee/optee_os/lib/libmpa/mpa_div.c:171 (discriminator 7)
    9768:	52800000 	mov	w0, #0x0                   	// #0
/home/rex/devel/optee/optee_os/lib/libmpa/mpa_div.c:171 (discriminator 9)
    976c:	6b00003f 	cmp	w1, w0
    9770:	54000189 	b.ls	97a0 <__mpa_div_q_r_internal+0x2d8>
/home/rex/devel/optee/optee_os/lib/libmpa/mpa_div.c:172
    9774:	f94027a1 	ldr	x1, [x29,#72]
    9778:	b9809ba0 	ldrsw	x0, [x29,#152]
    977c:	d37ef400 	lsl	x0, x0, #2
    9780:	8b000020 	add	x0, x1, x0
    9784:	52800021 	mov	w1, #0x1                   	// #1
    9788:	b9000801 	str	w1, [x0,#8]
/home/rex/devel/optee/optee_os/lib/libmpa/mpa_div.c:173
    978c:	f9402fa0 	ldr	x0, [x29,#88]
    9790:	f9402fa1 	ldr	x1, [x29,#88]
    9794:	f94033a2 	ldr	x2, [x29,#96]
    9798:	f94017a3 	ldr	x3, [x29,#40]
    979c:	94000d6b 	bl	cd48 <mpa_sub>
/home/rex/devel/optee/optee_os/lib/libmpa/mpa_div.c:177
    97a0:	f9402fa0 	ldr	x0, [x29,#88]
    97a4:	b9400400 	ldr	w0, [x0,#4]
    97a8:	51000400 	sub	w0, w0, #0x1
    97ac:	b90097a0 	str	w0, [x29,#148]
/home/rex/devel/optee/optee_os/lib/libmpa/mpa_div.c:178
    97b0:	14000186 	b	9dc8 <__mpa_div_q_r_internal+0x900>
/home/rex/devel/optee/optee_os/lib/libmpa/mpa_div.c:179
    97b4:	f9402fa0 	ldr	x0, [x29,#88]
    97b8:	b9400400 	ldr	w0, [x0,#4]
    97bc:	7100001f 	cmp	w0, #0x0
    97c0:	5a80a401 	cneg	w1, w0, lt
    97c4:	b94097a0 	ldr	w0, [x29,#148]
    97c8:	6b00003f 	cmp	w1, w0
    97cc:	540000ed 	b.le	97e8 <__mpa_div_q_r_internal+0x320>
/home/rex/devel/optee/optee_os/lib/libmpa/mpa_div.c:179 (discriminator 1)
    97d0:	f9402fa1 	ldr	x1, [x29,#88]
    97d4:	b98097a0 	ldrsw	x0, [x29,#148]
    97d8:	d37ef400 	lsl	x0, x0, #2
    97dc:	8b000020 	add	x0, x1, x0
    97e0:	b9400801 	ldr	w1, [x0,#8]
    97e4:	14000002 	b	97ec <__mpa_div_q_r_internal+0x324>
/home/rex/devel/optee/optee_os/lib/libmpa/mpa_div.c:179 (discriminator 2)
    97e8:	52800001 	mov	w1, #0x0                   	// #0
/home/rex/devel/optee/optee_os/lib/libmpa/mpa_div.c:180
    97ec:	b9408ba2 	ldr	w2, [x29,#136]
    97f0:	b9409ba0 	ldr	w0, [x29,#152]
    97f4:	0b000040 	add	w0, w2, w0
    97f8:	51000402 	sub	w2, w0, #0x1
    97fc:	f94033a0 	ldr	x0, [x29,#96]
    9800:	b9400400 	ldr	w0, [x0,#4]
    9804:	7100001f 	cmp	w0, #0x0
    9808:	5a80a400 	cneg	w0, w0, lt
    980c:	6b00005f 	cmp	w2, w0
    9810:	5400016a 	b.ge	983c <__mpa_div_q_r_internal+0x374>
/home/rex/devel/optee/optee_os/lib/libmpa/mpa_div.c:180 (discriminator 1)
    9814:	f94033a2 	ldr	x2, [x29,#96]
    9818:	b9408ba3 	ldr	w3, [x29,#136]
    981c:	b9409ba0 	ldr	w0, [x29,#152]
    9820:	0b000060 	add	w0, w3, w0
    9824:	51000400 	sub	w0, w0, #0x1
    9828:	93407c00 	sxtw	x0, w0
    982c:	d37ef400 	lsl	x0, x0, #2
    9830:	8b000040 	add	x0, x2, x0
    9834:	b9400800 	ldr	w0, [x0,#8]
    9838:	14000002 	b	9840 <__mpa_div_q_r_internal+0x378>
/home/rex/devel/optee/optee_os/lib/libmpa/mpa_div.c:180 (discriminator 2)
    983c:	52800000 	mov	w0, #0x0                   	// #0
/home/rex/devel/optee/optee_os/lib/libmpa/mpa_div.c:179
    9840:	6b00003f 	cmp	w1, w0
    9844:	54000161 	b.ne	9870 <__mpa_div_q_r_internal+0x3a8>
/home/rex/devel/optee/optee_os/lib/libmpa/mpa_div.c:181
    9848:	b94097a1 	ldr	w1, [x29,#148]
    984c:	b9408ba0 	ldr	w0, [x29,#136]
    9850:	4b000020 	sub	w0, w1, w0
    9854:	f94027a1 	ldr	x1, [x29,#72]
    9858:	93407c00 	sxtw	x0, w0
    985c:	d37ef400 	lsl	x0, x0, #2
    9860:	8b000020 	add	x0, x1, x0
    9864:	12800001 	mov	w1, #0xffffffff            	// #-1
    9868:	b9000801 	str	w1, [x0,#8]
    986c:	14000043 	b	9978 <__mpa_div_q_r_internal+0x4b0>
/home/rex/devel/optee/optee_os/lib/libmpa/mpa_div.c:183
    9870:	b94097a1 	ldr	w1, [x29,#148]
    9874:	b9408ba0 	ldr	w0, [x29,#136]
    9878:	4b000033 	sub	w19, w1, w0
/home/rex/devel/optee/optee_os/lib/libmpa/mpa_div.c:184
    987c:	b94097a0 	ldr	w0, [x29,#148]
    9880:	51000401 	sub	w1, w0, #0x1
    9884:	f9402fa0 	ldr	x0, [x29,#88]
    9888:	b9400400 	ldr	w0, [x0,#4]
    988c:	7100001f 	cmp	w0, #0x0
    9890:	5a80a400 	cneg	w0, w0, lt
    9894:	6b00003f 	cmp	w1, w0
    9898:	5400012a 	b.ge	98bc <__mpa_div_q_r_internal+0x3f4>
/home/rex/devel/optee/optee_os/lib/libmpa/mpa_div.c:184 (discriminator 1)
    989c:	f9402fa1 	ldr	x1, [x29,#88]
    98a0:	b94097a0 	ldr	w0, [x29,#148]
    98a4:	51000400 	sub	w0, w0, #0x1
    98a8:	93407c00 	sxtw	x0, w0
    98ac:	d37ef400 	lsl	x0, x0, #2
    98b0:	8b000020 	add	x0, x1, x0
    98b4:	b9400804 	ldr	w4, [x0,#8]
    98b8:	14000002 	b	98c0 <__mpa_div_q_r_internal+0x3f8>
/home/rex/devel/optee/optee_os/lib/libmpa/mpa_div.c:184 (discriminator 2)
    98bc:	52800004 	mov	w4, #0x0                   	// #0
/home/rex/devel/optee/optee_os/lib/libmpa/mpa_div.c:185 (discriminator 4)
    98c0:	f9402fa0 	ldr	x0, [x29,#88]
    98c4:	b9400400 	ldr	w0, [x0,#4]
    98c8:	7100001f 	cmp	w0, #0x0
    98cc:	5a80a401 	cneg	w1, w0, lt
/home/rex/devel/optee/optee_os/lib/libmpa/mpa_div.c:184 (discriminator 4)
    98d0:	b94097a0 	ldr	w0, [x29,#148]
    98d4:	6b00003f 	cmp	w1, w0
    98d8:	540000ed 	b.le	98f4 <__mpa_div_q_r_internal+0x42c>
/home/rex/devel/optee/optee_os/lib/libmpa/mpa_div.c:185 (discriminator 5)
    98dc:	f9402fa1 	ldr	x1, [x29,#88]
/home/rex/devel/optee/optee_os/lib/libmpa/mpa_div.c:184 (discriminator 5)
    98e0:	b98097a0 	ldrsw	x0, [x29,#148]
    98e4:	d37ef400 	lsl	x0, x0, #2
    98e8:	8b000020 	add	x0, x1, x0
    98ec:	b9400805 	ldr	w5, [x0,#8]
    98f0:	14000002 	b	98f8 <__mpa_div_q_r_internal+0x430>
/home/rex/devel/optee/optee_os/lib/libmpa/mpa_div.c:184 (discriminator 6)
    98f4:	52800005 	mov	w5, #0x0                   	// #0
/home/rex/devel/optee/optee_os/lib/libmpa/mpa_div.c:186 (discriminator 8)
    98f8:	b9408ba1 	ldr	w1, [x29,#136]
    98fc:	b9409ba0 	ldr	w0, [x29,#152]
    9900:	0b000020 	add	w0, w1, w0
    9904:	51000401 	sub	w1, w0, #0x1
    9908:	f94033a0 	ldr	x0, [x29,#96]
    990c:	b9400400 	ldr	w0, [x0,#4]
    9910:	7100001f 	cmp	w0, #0x0
    9914:	5a80a400 	cneg	w0, w0, lt
/home/rex/devel/optee/optee_os/lib/libmpa/mpa_div.c:184 (discriminator 8)
    9918:	6b00003f 	cmp	w1, w0
    991c:	5400016a 	b.ge	9948 <__mpa_div_q_r_internal+0x480>
/home/rex/devel/optee/optee_os/lib/libmpa/mpa_div.c:186 (discriminator 9)
    9920:	f94033a1 	ldr	x1, [x29,#96]
    9924:	b9408ba2 	ldr	w2, [x29,#136]
    9928:	b9409ba0 	ldr	w0, [x29,#152]
    992c:	0b000040 	add	w0, w2, w0
    9930:	51000400 	sub	w0, w0, #0x1
/home/rex/devel/optee/optee_os/lib/libmpa/mpa_div.c:184 (discriminator 9)
    9934:	93407c00 	sxtw	x0, w0
    9938:	d37ef400 	lsl	x0, x0, #2
    993c:	8b000020 	add	x0, x1, x0
    9940:	b9400800 	ldr	w0, [x0,#8]
    9944:	14000002 	b	994c <__mpa_div_q_r_internal+0x484>
/home/rex/devel/optee/optee_os/lib/libmpa/mpa_div.c:184 (discriminator 10)
    9948:	52800000 	mov	w0, #0x0                   	// #0
/home/rex/devel/optee/optee_os/lib/libmpa/mpa_div.c:184 (discriminator 12)
    994c:	d2800003 	mov	x3, #0x0                   	// #0
    9950:	2a0003e2 	mov	w2, w0
    9954:	2a0503e1 	mov	w1, w5
    9958:	2a0403e0 	mov	w0, w4
    995c:	97fffeca 	bl	9484 <__mpa_div_dword>
    9960:	2a0003e2 	mov	w2, w0
/home/rex/devel/optee/optee_os/lib/libmpa/mpa_div.c:183 (discriminator 12)
    9964:	f94027a1 	ldr	x1, [x29,#72]
    9968:	93407e60 	sxtw	x0, w19
    996c:	d37ef400 	lsl	x0, x0, #2
    9970:	8b000020 	add	x0, x1, x0
    9974:	b9000802 	str	w2, [x0,#8]
/home/rex/devel/optee/optee_os/lib/libmpa/mpa_div.c:192
    9978:	b90087bf 	str	wzr, [x29,#132]
/home/rex/devel/optee/optee_os/lib/libmpa/mpa_div.c:193
    997c:	b9007fbf 	str	wzr, [x29,#124]
/home/rex/devel/optee/optee_os/lib/libmpa/mpa_div.c:194
    9980:	b90077bf 	str	wzr, [x29,#116]
/home/rex/devel/optee/optee_os/lib/libmpa/mpa_div.c:195
    9984:	b94097a1 	ldr	w1, [x29,#148]
    9988:	b9408ba0 	ldr	w0, [x29,#136]
    998c:	4b000020 	sub	w0, w1, w0
    9990:	f94027a1 	ldr	x1, [x29,#72]
    9994:	93407c00 	sxtw	x0, w0
    9998:	d37ef400 	lsl	x0, x0, #2
    999c:	8b000020 	add	x0, x1, x0
    99a0:	b9400804 	ldr	w4, [x0,#8]
/home/rex/devel/optee/optee_os/lib/libmpa/mpa_div.c:196
    99a4:	b9408ba1 	ldr	w1, [x29,#136]
    99a8:	b9409ba0 	ldr	w0, [x29,#152]
    99ac:	0b000020 	add	w0, w1, w0
    99b0:	51000401 	sub	w1, w0, #0x1
    99b4:	f94033a0 	ldr	x0, [x29,#96]
    99b8:	b9400400 	ldr	w0, [x0,#4]
    99bc:	7100001f 	cmp	w0, #0x0
    99c0:	5a80a400 	cneg	w0, w0, lt
/home/rex/devel/optee/optee_os/lib/libmpa/mpa_div.c:195
    99c4:	6b00003f 	cmp	w1, w0
    99c8:	5400016a 	b.ge	99f4 <__mpa_div_q_r_internal+0x52c>
/home/rex/devel/optee/optee_os/lib/libmpa/mpa_div.c:196 (discriminator 1)
    99cc:	f94033a1 	ldr	x1, [x29,#96]
    99d0:	b9408ba2 	ldr	w2, [x29,#136]
    99d4:	b9409ba0 	ldr	w0, [x29,#152]
    99d8:	0b000040 	add	w0, w2, w0
    99dc:	51000400 	sub	w0, w0, #0x1
/home/rex/devel/optee/optee_os/lib/libmpa/mpa_div.c:195 (discriminator 1)
    99e0:	93407c00 	sxtw	x0, w0
    99e4:	d37ef400 	lsl	x0, x0, #2
    99e8:	8b000020 	add	x0, x1, x0
    99ec:	b9400800 	ldr	w0, [x0,#8]
    99f0:	14000002 	b	99f8 <__mpa_div_q_r_internal+0x530>
/home/rex/devel/optee/optee_os/lib/libmpa/mpa_div.c:195 (discriminator 2)
    99f4:	52800000 	mov	w0, #0x0                   	// #0
/home/rex/devel/optee/optee_os/lib/libmpa/mpa_div.c:195 (discriminator 4)
    99f8:	910213a2 	add	x2, x29, #0x84
    99fc:	910203a1 	add	x1, x29, #0x80
    9a00:	aa0203e3 	mov	x3, x2
    9a04:	aa0103e2 	mov	x2, x1
    9a08:	2a0003e1 	mov	w1, w0
    9a0c:	2a0403e0 	mov	w0, w4
    9a10:	9400063a 	bl	b2f8 <__mpa_mul_add_word>
/home/rex/devel/optee/optee_os/lib/libmpa/mpa_div.c:199 (discriminator 4)
    9a14:	f9402fa0 	ldr	x0, [x29,#88]
    9a18:	b9400400 	ldr	w0, [x0,#4]
    9a1c:	7100001f 	cmp	w0, #0x0
    9a20:	5a80a401 	cneg	w1, w0, lt
    9a24:	b94097a0 	ldr	w0, [x29,#148]
    9a28:	6b00003f 	cmp	w1, w0
    9a2c:	540000ed 	b.le	9a48 <__mpa_div_q_r_internal+0x580>
/home/rex/devel/optee/optee_os/lib/libmpa/mpa_div.c:199 (discriminator 1)
    9a30:	f9402fa1 	ldr	x1, [x29,#88]
    9a34:	b98097a0 	ldrsw	x0, [x29,#148]
    9a38:	d37ef400 	lsl	x0, x0, #2
    9a3c:	8b000020 	add	x0, x1, x0
    9a40:	b9400800 	ldr	w0, [x0,#8]
    9a44:	14000002 	b	9a4c <__mpa_div_q_r_internal+0x584>
/home/rex/devel/optee/optee_os/lib/libmpa/mpa_div.c:199 (discriminator 2)
    9a48:	52800000 	mov	w0, #0x0                   	// #0
/home/rex/devel/optee/optee_os/lib/libmpa/mpa_div.c:199 (discriminator 4)
    9a4c:	b94087a1 	ldr	w1, [x29,#132]
    9a50:	6b01001f 	cmp	w0, w1
    9a54:	54001243 	b.cc	9c9c <__mpa_div_q_r_internal+0x7d4>
/home/rex/devel/optee/optee_os/lib/libmpa/mpa_div.c:202
    9a58:	b94097a1 	ldr	w1, [x29,#148]
    9a5c:	b9408ba0 	ldr	w0, [x29,#136]
    9a60:	4b000020 	sub	w0, w1, w0
    9a64:	f94027a1 	ldr	x1, [x29,#72]
    9a68:	93407c00 	sxtw	x0, w0
    9a6c:	d37ef400 	lsl	x0, x0, #2
    9a70:	8b000020 	add	x0, x1, x0
    9a74:	b9400804 	ldr	w4, [x0,#8]
/home/rex/devel/optee/optee_os/lib/libmpa/mpa_div.c:203
    9a78:	b9408ba1 	ldr	w1, [x29,#136]
    9a7c:	b9409ba0 	ldr	w0, [x29,#152]
    9a80:	0b000020 	add	w0, w1, w0
    9a84:	51000801 	sub	w1, w0, #0x2
    9a88:	f94033a0 	ldr	x0, [x29,#96]
    9a8c:	b9400400 	ldr	w0, [x0,#4]
    9a90:	7100001f 	cmp	w0, #0x0
    9a94:	5a80a400 	cneg	w0, w0, lt
/home/rex/devel/optee/optee_os/lib/libmpa/mpa_div.c:202
    9a98:	6b00003f 	cmp	w1, w0
    9a9c:	5400016a 	b.ge	9ac8 <__mpa_div_q_r_internal+0x600>
/home/rex/devel/optee/optee_os/lib/libmpa/mpa_div.c:203 (discriminator 1)
    9aa0:	f94033a1 	ldr	x1, [x29,#96]
    9aa4:	b9408ba2 	ldr	w2, [x29,#136]
    9aa8:	b9409ba0 	ldr	w0, [x29,#152]
    9aac:	0b000040 	add	w0, w2, w0
    9ab0:	51000800 	sub	w0, w0, #0x2
/home/rex/devel/optee/optee_os/lib/libmpa/mpa_div.c:202 (discriminator 1)
    9ab4:	93407c00 	sxtw	x0, w0
    9ab8:	d37ef400 	lsl	x0, x0, #2
    9abc:	8b000020 	add	x0, x1, x0
    9ac0:	b9400800 	ldr	w0, [x0,#8]
    9ac4:	14000002 	b	9acc <__mpa_div_q_r_internal+0x604>
/home/rex/devel/optee/optee_os/lib/libmpa/mpa_div.c:202 (discriminator 2)
    9ac8:	52800000 	mov	w0, #0x0                   	// #0
/home/rex/devel/optee/optee_os/lib/libmpa/mpa_div.c:202 (discriminator 4)
    9acc:	9101f3a2 	add	x2, x29, #0x7c
    9ad0:	9101e3a1 	add	x1, x29, #0x78
    9ad4:	aa0203e3 	mov	x3, x2
    9ad8:	aa0103e2 	mov	x2, x1
    9adc:	2a0003e1 	mov	w1, w0
    9ae0:	2a0403e0 	mov	w0, w4
    9ae4:	94000605 	bl	b2f8 <__mpa_mul_add_word>
/home/rex/devel/optee/optee_os/lib/libmpa/mpa_div.c:206 (discriminator 4)
    9ae8:	b94083a0 	ldr	w0, [x29,#128]
    9aec:	b9407fa1 	ldr	w1, [x29,#124]
    9af0:	9101d3a3 	add	x3, x29, #0x74
    9af4:	9101f3a2 	add	x2, x29, #0x7c
    9af8:	94000a62 	bl	c480 <__mpa_full_adder>
/home/rex/devel/optee/optee_os/lib/libmpa/mpa_div.c:207 (discriminator 4)
    9afc:	b90083bf 	str	wzr, [x29,#128]
/home/rex/devel/optee/optee_os/lib/libmpa/mpa_div.c:208 (discriminator 4)
    9b00:	b94087a0 	ldr	w0, [x29,#132]
    9b04:	b94077a1 	ldr	w1, [x29,#116]
    9b08:	910203a3 	add	x3, x29, #0x80
    9b0c:	9101d3a2 	add	x2, x29, #0x74
    9b10:	94000a5c 	bl	c480 <__mpa_full_adder>
/home/rex/devel/optee/optee_os/lib/libmpa/mpa_div.c:209 (discriminator 4)
    9b14:	b94083a0 	ldr	w0, [x29,#128]
    9b18:	7100001f 	cmp	w0, #0x0
    9b1c:	54000c61 	b.ne	9ca8 <__mpa_div_q_r_internal+0x7e0>
/home/rex/devel/optee/optee_os/lib/libmpa/mpa_div.c:209 (discriminator 1)
    9b20:	f9402fa0 	ldr	x0, [x29,#88]
    9b24:	b9400400 	ldr	w0, [x0,#4]
    9b28:	7100001f 	cmp	w0, #0x0
    9b2c:	5a80a401 	cneg	w1, w0, lt
    9b30:	b94097a0 	ldr	w0, [x29,#148]
    9b34:	6b00003f 	cmp	w1, w0
    9b38:	540000ed 	b.le	9b54 <__mpa_div_q_r_internal+0x68c>
/home/rex/devel/optee/optee_os/lib/libmpa/mpa_div.c:209 (discriminator 2)
    9b3c:	f9402fa1 	ldr	x1, [x29,#88]
    9b40:	b98097a0 	ldrsw	x0, [x29,#148]
    9b44:	d37ef400 	lsl	x0, x0, #2
    9b48:	8b000020 	add	x0, x1, x0
    9b4c:	b9400800 	ldr	w0, [x0,#8]
    9b50:	14000002 	b	9b58 <__mpa_div_q_r_internal+0x690>
/home/rex/devel/optee/optee_os/lib/libmpa/mpa_div.c:209 (discriminator 3)
    9b54:	52800000 	mov	w0, #0x0                   	// #0
/home/rex/devel/optee/optee_os/lib/libmpa/mpa_div.c:209 (discriminator 5)
    9b58:	b94077a1 	ldr	w1, [x29,#116]
    9b5c:	6b01001f 	cmp	w0, w1
    9b60:	54000a43 	b.cc	9ca8 <__mpa_div_q_r_internal+0x7e0>
/home/rex/devel/optee/optee_os/lib/libmpa/mpa_div.c:211
    9b64:	f9402fa0 	ldr	x0, [x29,#88]
    9b68:	b9400400 	ldr	w0, [x0,#4]
    9b6c:	7100001f 	cmp	w0, #0x0
    9b70:	5a80a401 	cneg	w1, w0, lt
    9b74:	b94097a0 	ldr	w0, [x29,#148]
    9b78:	6b00003f 	cmp	w1, w0
    9b7c:	540000ed 	b.le	9b98 <__mpa_div_q_r_internal+0x6d0>
/home/rex/devel/optee/optee_os/lib/libmpa/mpa_div.c:211 (discriminator 1)
    9b80:	f9402fa1 	ldr	x1, [x29,#88]
    9b84:	b98097a0 	ldrsw	x0, [x29,#148]
    9b88:	d37ef400 	lsl	x0, x0, #2
    9b8c:	8b000020 	add	x0, x1, x0
    9b90:	b9400800 	ldr	w0, [x0,#8]
    9b94:	14000002 	b	9b9c <__mpa_div_q_r_internal+0x6d4>
/home/rex/devel/optee/optee_os/lib/libmpa/mpa_div.c:211 (discriminator 2)
    9b98:	52800000 	mov	w0, #0x0                   	// #0
/home/rex/devel/optee/optee_os/lib/libmpa/mpa_div.c:211 (discriminator 4)
    9b9c:	b94077a1 	ldr	w1, [x29,#116]
    9ba0:	6b01001f 	cmp	w0, w1
    9ba4:	54000a08 	b.hi	9ce4 <__mpa_div_q_r_internal+0x81c>
/home/rex/devel/optee/optee_os/lib/libmpa/mpa_div.c:213
    9ba8:	b94097a0 	ldr	w0, [x29,#148]
    9bac:	51000401 	sub	w1, w0, #0x1
    9bb0:	f9402fa0 	ldr	x0, [x29,#88]
    9bb4:	b9400400 	ldr	w0, [x0,#4]
    9bb8:	7100001f 	cmp	w0, #0x0
    9bbc:	5a80a400 	cneg	w0, w0, lt
    9bc0:	6b00003f 	cmp	w1, w0
    9bc4:	5400012a 	b.ge	9be8 <__mpa_div_q_r_internal+0x720>
/home/rex/devel/optee/optee_os/lib/libmpa/mpa_div.c:213 (discriminator 1)
    9bc8:	f9402fa1 	ldr	x1, [x29,#88]
    9bcc:	b94097a0 	ldr	w0, [x29,#148]
    9bd0:	51000400 	sub	w0, w0, #0x1
    9bd4:	93407c00 	sxtw	x0, w0
    9bd8:	d37ef400 	lsl	x0, x0, #2
    9bdc:	8b000020 	add	x0, x1, x0
    9be0:	b9400800 	ldr	w0, [x0,#8]
    9be4:	14000002 	b	9bec <__mpa_div_q_r_internal+0x724>
/home/rex/devel/optee/optee_os/lib/libmpa/mpa_div.c:213 (discriminator 2)
    9be8:	52800000 	mov	w0, #0x0                   	// #0
/home/rex/devel/optee/optee_os/lib/libmpa/mpa_div.c:213 (discriminator 4)
    9bec:	b9407fa1 	ldr	w1, [x29,#124]
    9bf0:	6b01001f 	cmp	w0, w1
    9bf4:	54000583 	b.cc	9ca4 <__mpa_div_q_r_internal+0x7dc>
/home/rex/devel/optee/optee_os/lib/libmpa/mpa_div.c:215
    9bf8:	b94097a0 	ldr	w0, [x29,#148]
    9bfc:	51000401 	sub	w1, w0, #0x1
    9c00:	f9402fa0 	ldr	x0, [x29,#88]
    9c04:	b9400400 	ldr	w0, [x0,#4]
    9c08:	7100001f 	cmp	w0, #0x0
    9c0c:	5a80a400 	cneg	w0, w0, lt
    9c10:	6b00003f 	cmp	w1, w0
    9c14:	5400012a 	b.ge	9c38 <__mpa_div_q_r_internal+0x770>
/home/rex/devel/optee/optee_os/lib/libmpa/mpa_div.c:215 (discriminator 1)
    9c18:	f9402fa1 	ldr	x1, [x29,#88]
    9c1c:	b94097a0 	ldr	w0, [x29,#148]
    9c20:	51000400 	sub	w0, w0, #0x1
    9c24:	93407c00 	sxtw	x0, w0
    9c28:	d37ef400 	lsl	x0, x0, #2
    9c2c:	8b000020 	add	x0, x1, x0
    9c30:	b9400800 	ldr	w0, [x0,#8]
    9c34:	14000002 	b	9c3c <__mpa_div_q_r_internal+0x774>
/home/rex/devel/optee/optee_os/lib/libmpa/mpa_div.c:215 (discriminator 2)
    9c38:	52800000 	mov	w0, #0x0                   	// #0
/home/rex/devel/optee/optee_os/lib/libmpa/mpa_div.c:215 (discriminator 4)
    9c3c:	b9407fa1 	ldr	w1, [x29,#124]
    9c40:	6b01001f 	cmp	w0, w1
    9c44:	54000548 	b.hi	9cec <__mpa_div_q_r_internal+0x824>
/home/rex/devel/optee/optee_os/lib/libmpa/mpa_div.c:217
    9c48:	b94097a0 	ldr	w0, [x29,#148]
    9c4c:	51000801 	sub	w1, w0, #0x2
    9c50:	f9402fa0 	ldr	x0, [x29,#88]
    9c54:	b9400400 	ldr	w0, [x0,#4]
    9c58:	7100001f 	cmp	w0, #0x0
    9c5c:	5a80a400 	cneg	w0, w0, lt
    9c60:	6b00003f 	cmp	w1, w0
    9c64:	5400012a 	b.ge	9c88 <__mpa_div_q_r_internal+0x7c0>
/home/rex/devel/optee/optee_os/lib/libmpa/mpa_div.c:217 (discriminator 1)
    9c68:	f9402fa1 	ldr	x1, [x29,#88]
    9c6c:	b94097a0 	ldr	w0, [x29,#148]
    9c70:	51000800 	sub	w0, w0, #0x2
    9c74:	93407c00 	sxtw	x0, w0
    9c78:	d37ef400 	lsl	x0, x0, #2
    9c7c:	8b000020 	add	x0, x1, x0
    9c80:	b9400800 	ldr	w0, [x0,#8]
    9c84:	14000002 	b	9c8c <__mpa_div_q_r_internal+0x7c4>
/home/rex/devel/optee/optee_os/lib/libmpa/mpa_div.c:217 (discriminator 2)
    9c88:	52800000 	mov	w0, #0x0                   	// #0
/home/rex/devel/optee/optee_os/lib/libmpa/mpa_div.c:217 (discriminator 4)
    9c8c:	b9407ba1 	ldr	w1, [x29,#120]
    9c90:	6b01001f 	cmp	w0, w1
    9c94:	54000302 	b.cs	9cf4 <__mpa_div_q_r_internal+0x82c>
/home/rex/devel/optee/optee_os/lib/libmpa/mpa_div.c:218
    9c98:	14000004 	b	9ca8 <__mpa_div_q_r_internal+0x7e0>
/home/rex/devel/optee/optee_os/lib/libmpa/mpa_div.c:200
    9c9c:	d503201f 	nop
    9ca0:	14000002 	b	9ca8 <__mpa_div_q_r_internal+0x7e0>
/home/rex/devel/optee/optee_os/lib/libmpa/mpa_div.c:214
    9ca4:	d503201f 	nop
/home/rex/devel/optee/optee_os/lib/libmpa/mpa_div.c:221
    9ca8:	b94097a1 	ldr	w1, [x29,#148]
    9cac:	b9408ba0 	ldr	w0, [x29,#136]
    9cb0:	4b000023 	sub	w3, w1, w0
    9cb4:	f94027a1 	ldr	x1, [x29,#72]
    9cb8:	93407c60 	sxtw	x0, w3
    9cbc:	d37ef400 	lsl	x0, x0, #2
    9cc0:	8b000020 	add	x0, x1, x0
    9cc4:	b9400800 	ldr	w0, [x0,#8]
    9cc8:	51000401 	sub	w1, w0, #0x1
    9ccc:	f94027a2 	ldr	x2, [x29,#72]
    9cd0:	93407c60 	sxtw	x0, w3
    9cd4:	d37ef400 	lsl	x0, x0, #2
    9cd8:	8b000040 	add	x0, x2, x0
    9cdc:	b9000801 	str	w1, [x0,#8]
/home/rex/devel/optee/optee_os/lib/libmpa/mpa_div.c:192
    9ce0:	17ffff26 	b	9978 <__mpa_div_q_r_internal+0x4b0>
/home/rex/devel/optee/optee_os/lib/libmpa/mpa_div.c:212
    9ce4:	d503201f 	nop
    9ce8:	14000004 	b	9cf8 <__mpa_div_q_r_internal+0x830>
/home/rex/devel/optee/optee_os/lib/libmpa/mpa_div.c:216
    9cec:	d503201f 	nop
    9cf0:	14000002 	b	9cf8 <__mpa_div_q_r_internal+0x830>
/home/rex/devel/optee/optee_os/lib/libmpa/mpa_div.c:219
    9cf4:	d503201f 	nop
/home/rex/devel/optee/optee_os/lib/libmpa/mpa_div.c:225
    9cf8:	f94033a0 	ldr	x0, [x29,#96]
    9cfc:	52800021 	mov	w1, #0x1                   	// #1
    9d00:	940007ee 	bl	bcb8 <__mpa_shift_words_right>
/home/rex/devel/optee/optee_os/lib/libmpa/mpa_div.c:226
    9d04:	b9409ba0 	ldr	w0, [x29,#152]
    9d08:	51000400 	sub	w0, w0, #0x1
    9d0c:	b9009ba0 	str	w0, [x29,#152]
/home/rex/devel/optee/optee_os/lib/libmpa/mpa_div.c:227
    9d10:	f94037a4 	ldr	x4, [x29,#104]
    9d14:	f94033a5 	ldr	x5, [x29,#96]
    9d18:	b94097a1 	ldr	w1, [x29,#148]
    9d1c:	b9408ba0 	ldr	w0, [x29,#136]
    9d20:	4b000020 	sub	w0, w1, w0
    9d24:	f94027a1 	ldr	x1, [x29,#72]
    9d28:	93407c00 	sxtw	x0, w0
    9d2c:	d37ef400 	lsl	x0, x0, #2
    9d30:	8b000020 	add	x0, x1, x0
    9d34:	b9400800 	ldr	w0, [x0,#8]
    9d38:	f94017a3 	ldr	x3, [x29,#40]
    9d3c:	2a0003e2 	mov	w2, w0
    9d40:	aa0503e1 	mov	x1, x5
    9d44:	aa0403e0 	mov	x0, x4
    9d48:	9400069c 	bl	b7b8 <mpa_mul_word>
/home/rex/devel/optee/optee_os/lib/libmpa/mpa_div.c:228
    9d4c:	f9402fa0 	ldr	x0, [x29,#88]
    9d50:	f9402fa1 	ldr	x1, [x29,#88]
    9d54:	f94037a2 	ldr	x2, [x29,#104]
    9d58:	f94017a3 	ldr	x3, [x29,#40]
    9d5c:	94000bfb 	bl	cd48 <mpa_sub>
/home/rex/devel/optee/optee_os/lib/libmpa/mpa_div.c:229
    9d60:	f9402fa0 	ldr	x0, [x29,#88]
    9d64:	b9400400 	ldr	w0, [x0,#4]
    9d68:	7100001f 	cmp	w0, #0x0
    9d6c:	5400028a 	b.ge	9dbc <__mpa_div_q_r_internal+0x8f4>
/home/rex/devel/optee/optee_os/lib/libmpa/mpa_div.c:230
    9d70:	f9402fa0 	ldr	x0, [x29,#88]
    9d74:	f9402fa1 	ldr	x1, [x29,#88]
    9d78:	f94033a2 	ldr	x2, [x29,#96]
    9d7c:	f94017a3 	ldr	x3, [x29,#40]
    9d80:	94000b43 	bl	ca8c <mpa_add>
/home/rex/devel/optee/optee_os/lib/libmpa/mpa_div.c:231
    9d84:	b94097a1 	ldr	w1, [x29,#148]
    9d88:	b9408ba0 	ldr	w0, [x29,#136]
    9d8c:	4b000023 	sub	w3, w1, w0
    9d90:	f94027a1 	ldr	x1, [x29,#72]
    9d94:	93407c60 	sxtw	x0, w3
    9d98:	d37ef400 	lsl	x0, x0, #2
    9d9c:	8b000020 	add	x0, x1, x0
    9da0:	b9400800 	ldr	w0, [x0,#8]
    9da4:	51000401 	sub	w1, w0, #0x1
    9da8:	f94027a2 	ldr	x2, [x29,#72]
    9dac:	93407c60 	sxtw	x0, w3
    9db0:	d37ef400 	lsl	x0, x0, #2
    9db4:	8b000040 	add	x0, x2, x0
    9db8:	b9000801 	str	w1, [x0,#8]
/home/rex/devel/optee/optee_os/lib/libmpa/mpa_div.c:233
    9dbc:	b94097a0 	ldr	w0, [x29,#148]
    9dc0:	51000400 	sub	w0, w0, #0x1
    9dc4:	b90097a0 	str	w0, [x29,#148]
/home/rex/devel/optee/optee_os/lib/libmpa/mpa_div.c:178
    9dc8:	b94097a1 	ldr	w1, [x29,#148]
    9dcc:	b9408ba0 	ldr	w0, [x29,#136]
    9dd0:	6b00003f 	cmp	w1, w0
    9dd4:	54ffcf0a 	b.ge	97b4 <__mpa_div_q_r_internal+0x2ec>
/home/rex/devel/optee/optee_os/lib/libmpa/mpa_div.c:238
    9dd8:	b9408fa1 	ldr	w1, [x29,#140]
    9ddc:	b9408ba0 	ldr	w0, [x29,#136]
    9de0:	4b000020 	sub	w0, w1, w0
    9de4:	b90097a0 	str	w0, [x29,#148]
/home/rex/devel/optee/optee_os/lib/libmpa/mpa_div.c:239
    9de8:	14000004 	b	9df8 <__mpa_div_q_r_internal+0x930>
/home/rex/devel/optee/optee_os/lib/libmpa/mpa_div.c:240
    9dec:	b94097a0 	ldr	w0, [x29,#148]
    9df0:	51000400 	sub	w0, w0, #0x1
    9df4:	b90097a0 	str	w0, [x29,#148]
/home/rex/devel/optee/optee_os/lib/libmpa/mpa_div.c:239
    9df8:	b94097a0 	ldr	w0, [x29,#148]
    9dfc:	7100001f 	cmp	w0, #0x0
    9e00:	5400010b 	b.lt	9e20 <__mpa_div_q_r_internal+0x958>
/home/rex/devel/optee/optee_os/lib/libmpa/mpa_div.c:239 (discriminator 1)
    9e04:	f94027a1 	ldr	x1, [x29,#72]
    9e08:	b98097a0 	ldrsw	x0, [x29,#148]
    9e0c:	d37ef400 	lsl	x0, x0, #2
    9e10:	8b000020 	add	x0, x1, x0
    9e14:	b9400800 	ldr	w0, [x0,#8]
    9e18:	7100001f 	cmp	w0, #0x0
    9e1c:	54fffe80 	b.eq	9dec <__mpa_div_q_r_internal+0x924>
/home/rex/devel/optee/optee_os/lib/libmpa/mpa_div.c:241
    9e20:	b94097a0 	ldr	w0, [x29,#148]
    9e24:	11000401 	add	w1, w0, #0x1
    9e28:	f94027a0 	ldr	x0, [x29,#72]
    9e2c:	b9000401 	str	w1, [x0,#4]
/home/rex/devel/optee/optee_os/lib/libmpa/mpa_div.c:245
    9e30:	f9402fa0 	ldr	x0, [x29,#88]
    9e34:	f9402fa1 	ldr	x1, [x29,#88]
    9e38:	b9409fa2 	ldr	w2, [x29,#156]
    9e3c:	940008cd 	bl	c170 <mpa_shift_right>
/home/rex/devel/optee/optee_os/lib/libmpa/mpa_div.c:246
    9e40:	f9402fa0 	ldr	x0, [x29,#88]
    9e44:	aa0003e1 	mov	x1, x0
    9e48:	f94023a0 	ldr	x0, [x29,#64]
    9e4c:	97fff953 	bl	8398 <mpa_copy>
/home/rex/devel/optee/optee_os/lib/libmpa/mpa_div.c:251
    9e50:	9101a3a0 	add	x0, x29, #0x68
    9e54:	f94017a1 	ldr	x1, [x29,#40]
    9e58:	940004e6 	bl	b1f0 <mpa_free_static_temp_var>
/home/rex/devel/optee/optee_os/lib/libmpa/mpa_div.c:252
    9e5c:	910183a0 	add	x0, x29, #0x60
    9e60:	f94017a1 	ldr	x1, [x29,#40]
    9e64:	940004e3 	bl	b1f0 <mpa_free_static_temp_var>
/home/rex/devel/optee/optee_os/lib/libmpa/mpa_div.c:253
    9e68:	910163a0 	add	x0, x29, #0x58
    9e6c:	f94017a1 	ldr	x1, [x29,#40]
    9e70:	940004e0 	bl	b1f0 <mpa_free_static_temp_var>
/home/rex/devel/optee/optee_os/lib/libmpa/mpa_div.c:254
    9e74:	d503201f 	nop
    9e78:	f9400bf3 	ldr	x19, [sp,#16]
    9e7c:	a8ca7bfd 	ldp	x29, x30, [sp],#160
    9e80:	d65f03c0 	ret

0000000000009e84 <__mpa_div_q_r_internal_word>:
__mpa_div_q_r_internal_word():
/home/rex/devel/optee/optee_os/lib/libmpa/mpa_div.c:269
    9e84:	a9bb7bfd 	stp	x29, x30, [sp,#-80]!
    9e88:	910003fd 	mov	x29, sp
    9e8c:	f90017a0 	str	x0, [x29,#40]
    9e90:	f90013a1 	str	x1, [x29,#32]
    9e94:	f9000fa2 	str	x2, [x29,#24]
    9e98:	b90017a3 	str	w3, [x29,#20]
/home/rex/devel/optee/optee_os/lib/libmpa/mpa_div.c:277
    9e9c:	f9400fa0 	ldr	x0, [x29,#24]
    9ea0:	b9400400 	ldr	w0, [x0,#4]
    9ea4:	7100001f 	cmp	w0, #0x0
    9ea8:	5a80a400 	cneg	w0, w0, lt
    9eac:	7100041f 	cmp	w0, #0x1
    9eb0:	54000261 	b.ne	9efc <__mpa_div_q_r_internal_word+0x78>
/home/rex/devel/optee/optee_os/lib/libmpa/mpa_div.c:278
    9eb4:	f9400fa0 	ldr	x0, [x29,#24]
    9eb8:	b9400801 	ldr	w1, [x0,#8]
    9ebc:	b94017a0 	ldr	w0, [x29,#20]
    9ec0:	1ac00820 	udiv	w0, w1, w0
    9ec4:	2a0003e1 	mov	w1, w0
    9ec8:	f94017a0 	ldr	x0, [x29,#40]
    9ecc:	97fffd1b 	bl	9338 <mpa_set_word>
/home/rex/devel/optee/optee_os/lib/libmpa/mpa_div.c:279
    9ed0:	f9400fa0 	ldr	x0, [x29,#24]
    9ed4:	b9400800 	ldr	w0, [x0,#8]
    9ed8:	b94017a1 	ldr	w1, [x29,#20]
    9edc:	1ac10802 	udiv	w2, w0, w1
    9ee0:	b94017a1 	ldr	w1, [x29,#20]
    9ee4:	1b017c41 	mul	w1, w2, w1
    9ee8:	4b010000 	sub	w0, w0, w1
    9eec:	2a0003e1 	mov	w1, w0
    9ef0:	f94013a0 	ldr	x0, [x29,#32]
    9ef4:	97fffd11 	bl	9338 <mpa_set_word>
    9ef8:	1400005a 	b	a060 <__mpa_div_q_r_internal_word+0x1dc>
/home/rex/devel/optee/optee_os/lib/libmpa/mpa_div.c:282
    9efc:	f9400fa1 	ldr	x1, [x29,#24]
    9f00:	f94013a0 	ldr	x0, [x29,#32]
    9f04:	97fff925 	bl	8398 <mpa_copy>
/home/rex/devel/optee/optee_os/lib/libmpa/mpa_div.c:283
    9f08:	52800001 	mov	w1, #0x0                   	// #0
    9f0c:	f94017a0 	ldr	x0, [x29,#40]
    9f10:	97fffd0a 	bl	9338 <mpa_set_word>
/home/rex/devel/optee/optee_os/lib/libmpa/mpa_div.c:285
    9f14:	f94013a0 	ldr	x0, [x29,#32]
    9f18:	b9400400 	ldr	w0, [x0,#4]
    9f1c:	7100001f 	cmp	w0, #0x0
    9f20:	5a80a400 	cneg	w0, w0, lt
    9f24:	51000400 	sub	w0, w0, #0x1
    9f28:	b9004fa0 	str	w0, [x29,#76]
/home/rex/devel/optee/optee_os/lib/libmpa/mpa_div.c:286
    9f2c:	b9004bbf 	str	wzr, [x29,#72]
/home/rex/devel/optee/optee_os/lib/libmpa/mpa_div.c:287
    9f30:	f94013a1 	ldr	x1, [x29,#32]
    9f34:	b9804fa0 	ldrsw	x0, [x29,#76]
    9f38:	d37ef400 	lsl	x0, x0, #2
    9f3c:	8b000020 	add	x0, x1, x0
    9f40:	b9400800 	ldr	w0, [x0,#8]
    9f44:	b90047a0 	str	w0, [x29,#68]
/home/rex/devel/optee/optee_os/lib/libmpa/mpa_div.c:288
    9f48:	14000023 	b	9fd4 <__mpa_div_q_r_internal_word+0x150>
/home/rex/devel/optee/optee_os/lib/libmpa/mpa_div.c:289
    9f4c:	9100e3a0 	add	x0, x29, #0x38
    9f50:	aa0003e3 	mov	x3, x0
    9f54:	b94017a2 	ldr	w2, [x29,#20]
    9f58:	b9404ba1 	ldr	w1, [x29,#72]
    9f5c:	b94047a0 	ldr	w0, [x29,#68]
    9f60:	97fffd49 	bl	9484 <__mpa_div_dword>
    9f64:	b9003fa0 	str	w0, [x29,#60]
/home/rex/devel/optee/optee_os/lib/libmpa/mpa_div.c:290
    9f68:	f94017a1 	ldr	x1, [x29,#40]
    9f6c:	b9804fa0 	ldrsw	x0, [x29,#76]
    9f70:	d37ef400 	lsl	x0, x0, #2
    9f74:	8b000020 	add	x0, x1, x0
    9f78:	b9403fa1 	ldr	w1, [x29,#60]
    9f7c:	b9000801 	str	w1, [x0,#8]
/home/rex/devel/optee/optee_os/lib/libmpa/mpa_div.c:291
    9f80:	b9403ba1 	ldr	w1, [x29,#56]
    9f84:	f94013a2 	ldr	x2, [x29,#32]
    9f88:	b9804fa0 	ldrsw	x0, [x29,#76]
    9f8c:	d37ef400 	lsl	x0, x0, #2
    9f90:	8b000040 	add	x0, x2, x0
    9f94:	b9000801 	str	w1, [x0,#8]
/home/rex/devel/optee/optee_os/lib/libmpa/mpa_div.c:292
    9f98:	f94013a1 	ldr	x1, [x29,#32]
    9f9c:	b9804fa0 	ldrsw	x0, [x29,#76]
    9fa0:	d37ef400 	lsl	x0, x0, #2
    9fa4:	8b000020 	add	x0, x1, x0
    9fa8:	b9400800 	ldr	w0, [x0,#8]
    9fac:	b9004ba0 	str	w0, [x29,#72]
/home/rex/devel/optee/optee_os/lib/libmpa/mpa_div.c:293
    9fb0:	b9404fa0 	ldr	w0, [x29,#76]
    9fb4:	51000400 	sub	w0, w0, #0x1
    9fb8:	b9004fa0 	str	w0, [x29,#76]
    9fbc:	f94013a1 	ldr	x1, [x29,#32]
    9fc0:	b9804fa0 	ldrsw	x0, [x29,#76]
    9fc4:	d37ef400 	lsl	x0, x0, #2
    9fc8:	8b000020 	add	x0, x1, x0
    9fcc:	b9400800 	ldr	w0, [x0,#8]
    9fd0:	b90047a0 	str	w0, [x29,#68]
/home/rex/devel/optee/optee_os/lib/libmpa/mpa_div.c:288
    9fd4:	b9404fa0 	ldr	w0, [x29,#76]
    9fd8:	7100001f 	cmp	w0, #0x0
    9fdc:	54fffb8a 	b.ge	9f4c <__mpa_div_q_r_internal_word+0xc8>
/home/rex/devel/optee/optee_os/lib/libmpa/mpa_div.c:296
    9fe0:	f94013a0 	ldr	x0, [x29,#32]
    9fe4:	b9400800 	ldr	w0, [x0,#8]
    9fe8:	7100001f 	cmp	w0, #0x0
    9fec:	1a9f07e0 	cset	w0, ne
    9ff0:	12001c00 	and	w0, w0, #0xff
    9ff4:	2a0003e1 	mov	w1, w0
    9ff8:	f94013a0 	ldr	x0, [x29,#32]
    9ffc:	b9000401 	str	w1, [x0,#4]
/home/rex/devel/optee/optee_os/lib/libmpa/mpa_div.c:297
    a000:	f9400fa0 	ldr	x0, [x29,#24]
    a004:	b9400400 	ldr	w0, [x0,#4]
    a008:	7100001f 	cmp	w0, #0x0
    a00c:	5a80a400 	cneg	w0, w0, lt
    a010:	51000400 	sub	w0, w0, #0x1
    a014:	b90043a0 	str	w0, [x29,#64]
/home/rex/devel/optee/optee_os/lib/libmpa/mpa_div.c:298
    a018:	14000004 	b	a028 <__mpa_div_q_r_internal_word+0x1a4>
/home/rex/devel/optee/optee_os/lib/libmpa/mpa_div.c:299
    a01c:	b94043a0 	ldr	w0, [x29,#64]
    a020:	51000400 	sub	w0, w0, #0x1
    a024:	b90043a0 	str	w0, [x29,#64]
/home/rex/devel/optee/optee_os/lib/libmpa/mpa_div.c:298
    a028:	b94043a0 	ldr	w0, [x29,#64]
    a02c:	7100001f 	cmp	w0, #0x0
    a030:	5400010b 	b.lt	a050 <__mpa_div_q_r_internal_word+0x1cc>
/home/rex/devel/optee/optee_os/lib/libmpa/mpa_div.c:298 (discriminator 1)
    a034:	f94017a1 	ldr	x1, [x29,#40]
    a038:	b98043a0 	ldrsw	x0, [x29,#64]
    a03c:	d37ef400 	lsl	x0, x0, #2
    a040:	8b000020 	add	x0, x1, x0
    a044:	b9400800 	ldr	w0, [x0,#8]
    a048:	7100001f 	cmp	w0, #0x0
    a04c:	54fffe80 	b.eq	a01c <__mpa_div_q_r_internal_word+0x198>
/home/rex/devel/optee/optee_os/lib/libmpa/mpa_div.c:300
    a050:	b94043a0 	ldr	w0, [x29,#64]
    a054:	11000401 	add	w1, w0, #0x1
    a058:	f94017a0 	ldr	x0, [x29,#40]
    a05c:	b9000401 	str	w1, [x0,#4]
/home/rex/devel/optee/optee_os/lib/libmpa/mpa_div.c:301
    a060:	a8c57bfd 	ldp	x29, x30, [sp],#80
    a064:	d65f03c0 	ret

000000000000a068 <__mpa_div_q_r>:
__mpa_div_q_r():
/home/rex/devel/optee/optee_os/lib/libmpa/mpa_div.c:324
    a068:	a9bb7bfd 	stp	x29, x30, [sp,#-80]!
    a06c:	910003fd 	mov	x29, sp
    a070:	f9001fa0 	str	x0, [x29,#56]
    a074:	f9001ba1 	str	x1, [x29,#48]
    a078:	f90017a2 	str	x2, [x29,#40]
    a07c:	f90013a3 	str	x3, [x29,#32]
    a080:	f9000fa4 	str	x4, [x29,#24]
/home/rex/devel/optee/optee_os/lib/libmpa/mpa_div.c:328
    a084:	f94017a0 	ldr	x0, [x29,#40]
    a088:	b9400400 	ldr	w0, [x0,#4]
    a08c:	7100001f 	cmp	w0, #0x0
    a090:	54000101 	b.ne	a0b0 <__mpa_div_q_r+0x48>
/home/rex/devel/optee/optee_os/lib/libmpa/mpa_div.c:329
    a094:	52800001 	mov	w1, #0x0                   	// #0
    a098:	f9401fa0 	ldr	x0, [x29,#56]
    a09c:	97fffca7 	bl	9338 <mpa_set_word>
/home/rex/devel/optee/optee_os/lib/libmpa/mpa_div.c:330
    a0a0:	52800001 	mov	w1, #0x0                   	// #0
    a0a4:	f9401ba0 	ldr	x0, [x29,#48]
    a0a8:	97fffca4 	bl	9338 <mpa_set_word>
/home/rex/devel/optee/optee_os/lib/libmpa/mpa_div.c:331
    a0ac:	14000070 	b	a26c <__mpa_div_q_r+0x204>
/home/rex/devel/optee/optee_os/lib/libmpa/mpa_div.c:333
    a0b0:	f94013a0 	ldr	x0, [x29,#32]
    a0b4:	b9400400 	ldr	w0, [x0,#4]
    a0b8:	7100001f 	cmp	w0, #0x0
    a0bc:	540000e1 	b.ne	a0d8 <__mpa_div_q_r+0x70>
/home/rex/devel/optee/optee_os/lib/libmpa/mpa_div.c:335
    a0c0:	f94013a0 	ldr	x0, [x29,#32]
    a0c4:	b9400400 	ldr	w0, [x0,#4]
    a0c8:	52800541 	mov	w1, #0x2a                  	// #42
    a0cc:	1ac00c20 	sdiv	w0, w1, w0
    a0d0:	b9004fa0 	str	w0, [x29,#76]
/home/rex/devel/optee/optee_os/lib/libmpa/mpa_div.c:336
    a0d4:	14000066 	b	a26c <__mpa_div_q_r+0x204>
/home/rex/devel/optee/optee_os/lib/libmpa/mpa_div.c:340
    a0d8:	f94017a0 	ldr	x0, [x29,#40]
    a0dc:	b9400400 	ldr	w0, [x0,#4]
    a0e0:	7100001f 	cmp	w0, #0x0
    a0e4:	5400006b 	b.lt	a0f0 <__mpa_div_q_r+0x88>
/home/rex/devel/optee/optee_os/lib/libmpa/mpa_div.c:340 (discriminator 1)
    a0e8:	52800021 	mov	w1, #0x1                   	// #1
    a0ec:	14000002 	b	a0f4 <__mpa_div_q_r+0x8c>
/home/rex/devel/optee/optee_os/lib/libmpa/mpa_div.c:340 (discriminator 2)
    a0f0:	12800001 	mov	w1, #0xffffffff            	// #-1
/home/rex/devel/optee/optee_os/lib/libmpa/mpa_div.c:341
    a0f4:	f94013a0 	ldr	x0, [x29,#32]
    a0f8:	b9400400 	ldr	w0, [x0,#4]
    a0fc:	7100001f 	cmp	w0, #0x0
    a100:	5400006b 	b.lt	a10c <__mpa_div_q_r+0xa4>
/home/rex/devel/optee/optee_os/lib/libmpa/mpa_div.c:341 (discriminator 1)
    a104:	52800020 	mov	w0, #0x1                   	// #1
    a108:	14000002 	b	a110 <__mpa_div_q_r+0xa8>
/home/rex/devel/optee/optee_os/lib/libmpa/mpa_div.c:341 (discriminator 2)
    a10c:	12800000 	mov	w0, #0xffffffff            	// #-1
/home/rex/devel/optee/optee_os/lib/libmpa/mpa_div.c:341 (discriminator 4)
    a110:	6b00003f 	cmp	w1, w0
    a114:	54000060 	b.eq	a120 <__mpa_div_q_r+0xb8>
/home/rex/devel/optee/optee_os/lib/libmpa/mpa_div.c:341 (discriminator 5)
    a118:	12800000 	mov	w0, #0xffffffff            	// #-1
    a11c:	14000002 	b	a124 <__mpa_div_q_r+0xbc>
/home/rex/devel/optee/optee_os/lib/libmpa/mpa_div.c:341 (discriminator 6)
    a120:	52800020 	mov	w0, #0x1                   	// #1
/home/rex/devel/optee/optee_os/lib/libmpa/mpa_div.c:339
    a124:	b9004fa0 	str	w0, [x29,#76]
/home/rex/devel/optee/optee_os/lib/libmpa/mpa_div.c:342
    a128:	f94013a1 	ldr	x1, [x29,#32]
    a12c:	f94017a0 	ldr	x0, [x29,#40]
    a130:	94000cd1 	bl	d474 <__mpa_abs_cmp>
    a134:	b9004ba0 	str	w0, [x29,#72]
/home/rex/devel/optee/optee_os/lib/libmpa/mpa_div.c:343
    a138:	b9404ba0 	ldr	w0, [x29,#72]
    a13c:	7100001f 	cmp	w0, #0x0
    a140:	54000101 	b.ne	a160 <__mpa_div_q_r+0xf8>
/home/rex/devel/optee/optee_os/lib/libmpa/mpa_div.c:344
    a144:	52800021 	mov	w1, #0x1                   	// #1
    a148:	f9401fa0 	ldr	x0, [x29,#56]
    a14c:	97fffc7b 	bl	9338 <mpa_set_word>
/home/rex/devel/optee/optee_os/lib/libmpa/mpa_div.c:345
    a150:	52800001 	mov	w1, #0x0                   	// #0
    a154:	f9401ba0 	ldr	x0, [x29,#48]
    a158:	97fffc78 	bl	9338 <mpa_set_word>
/home/rex/devel/optee/optee_os/lib/libmpa/mpa_div.c:346
    a15c:	14000044 	b	a26c <__mpa_div_q_r+0x204>
/home/rex/devel/optee/optee_os/lib/libmpa/mpa_div.c:348
    a160:	b9404ba0 	ldr	w0, [x29,#72]
    a164:	7100001f 	cmp	w0, #0x0
    a168:	540002cd 	b.le	a1c0 <__mpa_div_q_r+0x158>
/home/rex/devel/optee/optee_os/lib/libmpa/mpa_div.c:349
    a16c:	f94013a0 	ldr	x0, [x29,#32]
    a170:	b9400400 	ldr	w0, [x0,#4]
    a174:	7100001f 	cmp	w0, #0x0
    a178:	5a80a400 	cneg	w0, w0, lt
    a17c:	7100041f 	cmp	w0, #0x1
    a180:	5400010d 	b.le	a1a0 <__mpa_div_q_r+0x138>
/home/rex/devel/optee/optee_os/lib/libmpa/mpa_div.c:350
    a184:	f9400fa4 	ldr	x4, [x29,#24]
    a188:	f94013a3 	ldr	x3, [x29,#32]
    a18c:	f94017a2 	ldr	x2, [x29,#40]
    a190:	f9401ba1 	ldr	x1, [x29,#48]
    a194:	f9401fa0 	ldr	x0, [x29,#56]
    a198:	97fffccc 	bl	94c8 <__mpa_div_q_r_internal>
    a19c:	14000010 	b	a1dc <__mpa_div_q_r+0x174>
/home/rex/devel/optee/optee_os/lib/libmpa/mpa_div.c:352
    a1a0:	f94013a0 	ldr	x0, [x29,#32]
    a1a4:	b9400800 	ldr	w0, [x0,#8]
    a1a8:	2a0003e3 	mov	w3, w0
    a1ac:	f94017a2 	ldr	x2, [x29,#40]
    a1b0:	f9401ba1 	ldr	x1, [x29,#48]
    a1b4:	f9401fa0 	ldr	x0, [x29,#56]
    a1b8:	97ffff33 	bl	9e84 <__mpa_div_q_r_internal_word>
    a1bc:	14000008 	b	a1dc <__mpa_div_q_r+0x174>
/home/rex/devel/optee/optee_os/lib/libmpa/mpa_div.c:354
    a1c0:	52800001 	mov	w1, #0x0                   	// #0
    a1c4:	f9401fa0 	ldr	x0, [x29,#56]
    a1c8:	97fffc5c 	bl	9338 <mpa_set_word>
/home/rex/devel/optee/optee_os/lib/libmpa/mpa_div.c:355
    a1cc:	f94017a1 	ldr	x1, [x29,#40]
    a1d0:	f9401ba0 	ldr	x0, [x29,#48]
    a1d4:	97fff871 	bl	8398 <mpa_copy>
/home/rex/devel/optee/optee_os/lib/libmpa/mpa_div.c:356
    a1d8:	14000025 	b	a26c <__mpa_div_q_r+0x204>
/home/rex/devel/optee/optee_os/lib/libmpa/mpa_div.c:358
    a1dc:	f9401fa0 	ldr	x0, [x29,#56]
    a1e0:	b9400400 	ldr	w0, [x0,#4]
    a1e4:	7100001f 	cmp	w0, #0x0
    a1e8:	5400006b 	b.lt	a1f4 <__mpa_div_q_r+0x18c>
/home/rex/devel/optee/optee_os/lib/libmpa/mpa_div.c:358 (discriminator 1)
    a1ec:	52800020 	mov	w0, #0x1                   	// #1
    a1f0:	14000002 	b	a1f8 <__mpa_div_q_r+0x190>
/home/rex/devel/optee/optee_os/lib/libmpa/mpa_div.c:358 (discriminator 2)
    a1f4:	12800000 	mov	w0, #0xffffffff            	// #-1
/home/rex/devel/optee/optee_os/lib/libmpa/mpa_div.c:358 (discriminator 4)
    a1f8:	b9404fa1 	ldr	w1, [x29,#76]
    a1fc:	6b01001f 	cmp	w0, w1
    a200:	540000c0 	b.eq	a218 <__mpa_div_q_r+0x1b0>
/home/rex/devel/optee/optee_os/lib/libmpa/mpa_div.c:358 (discriminator 5)
    a204:	f9401fa0 	ldr	x0, [x29,#56]
    a208:	b9400400 	ldr	w0, [x0,#4]
    a20c:	4b0003e1 	neg	w1, w0
    a210:	f9401fa0 	ldr	x0, [x29,#56]
    a214:	b9000401 	str	w1, [x0,#4]
/home/rex/devel/optee/optee_os/lib/libmpa/mpa_div.c:359
    a218:	f9401ba0 	ldr	x0, [x29,#48]
    a21c:	b9400400 	ldr	w0, [x0,#4]
    a220:	7100001f 	cmp	w0, #0x0
    a224:	5400006b 	b.lt	a230 <__mpa_div_q_r+0x1c8>
/home/rex/devel/optee/optee_os/lib/libmpa/mpa_div.c:359 (discriminator 1)
    a228:	52800021 	mov	w1, #0x1                   	// #1
    a22c:	14000002 	b	a234 <__mpa_div_q_r+0x1cc>
/home/rex/devel/optee/optee_os/lib/libmpa/mpa_div.c:359 (discriminator 2)
    a230:	12800001 	mov	w1, #0xffffffff            	// #-1
/home/rex/devel/optee/optee_os/lib/libmpa/mpa_div.c:359 (discriminator 4)
    a234:	f94017a0 	ldr	x0, [x29,#40]
    a238:	b9400400 	ldr	w0, [x0,#4]
    a23c:	7100001f 	cmp	w0, #0x0
    a240:	5400006b 	b.lt	a24c <__mpa_div_q_r+0x1e4>
/home/rex/devel/optee/optee_os/lib/libmpa/mpa_div.c:359 (discriminator 5)
    a244:	52800020 	mov	w0, #0x1                   	// #1
    a248:	14000002 	b	a250 <__mpa_div_q_r+0x1e8>
/home/rex/devel/optee/optee_os/lib/libmpa/mpa_div.c:359 (discriminator 6)
    a24c:	12800000 	mov	w0, #0xffffffff            	// #-1
/home/rex/devel/optee/optee_os/lib/libmpa/mpa_div.c:359 (discriminator 8)
    a250:	6b00003f 	cmp	w1, w0
    a254:	540000c0 	b.eq	a26c <__mpa_div_q_r+0x204>
/home/rex/devel/optee/optee_os/lib/libmpa/mpa_div.c:359 (discriminator 9)
    a258:	f9401ba0 	ldr	x0, [x29,#48]
    a25c:	b9400400 	ldr	w0, [x0,#4]
    a260:	4b0003e1 	neg	w1, w0
    a264:	f9401ba0 	ldr	x0, [x29,#48]
    a268:	b9000401 	str	w1, [x0,#4]
/home/rex/devel/optee/optee_os/lib/libmpa/mpa_div.c:360
    a26c:	a8c57bfd 	ldp	x29, x30, [sp],#80
    a270:	d65f03c0 	ret

000000000000a274 <mpa_div>:
mpa_div():
/home/rex/devel/optee/optee_os/lib/libmpa/mpa_div.c:379
    a274:	a9ba7bfd 	stp	x29, x30, [sp,#-96]!
    a278:	910003fd 	mov	x29, sp
    a27c:	f9001fa0 	str	x0, [x29,#56]
    a280:	f9001ba1 	str	x1, [x29,#48]
    a284:	f90017a2 	str	x2, [x29,#40]
    a288:	f90013a3 	str	x3, [x29,#32]
    a28c:	f9000fa4 	str	x4, [x29,#24]
/home/rex/devel/optee/optee_os/lib/libmpa/mpa_div.c:386
    a290:	f9401fa1 	ldr	x1, [x29,#56]
    a294:	f94017a0 	ldr	x0, [x29,#40]
    a298:	eb00003f 	cmp	x1, x0
    a29c:	54000100 	b.eq	a2bc <mpa_div+0x48>
/home/rex/devel/optee/optee_os/lib/libmpa/mpa_div.c:386 (discriminator 1)
    a2a0:	f9401fa1 	ldr	x1, [x29,#56]
    a2a4:	f94013a0 	ldr	x0, [x29,#32]
    a2a8:	eb00003f 	cmp	x1, x0
    a2ac:	54000080 	b.eq	a2bc <mpa_div+0x48>
/home/rex/devel/optee/optee_os/lib/libmpa/mpa_div.c:386 (discriminator 2)
    a2b0:	f9401fa0 	ldr	x0, [x29,#56]
    a2b4:	f100001f 	cmp	x0, #0x0
    a2b8:	540000e1 	b.ne	a2d4 <mpa_div+0x60>
/home/rex/devel/optee/optee_os/lib/libmpa/mpa_div.c:387
    a2bc:	910143a0 	add	x0, x29, #0x50
    a2c0:	f9400fa1 	ldr	x1, [x29,#24]
    a2c4:	940003c0 	bl	b1c4 <mpa_alloc_static_temp_var>
/home/rex/devel/optee/optee_os/lib/libmpa/mpa_div.c:388
    a2c8:	52800020 	mov	w0, #0x1                   	// #1
    a2cc:	39017fa0 	strb	w0, [x29,#95]
    a2d0:	14000004 	b	a2e0 <mpa_div+0x6c>
/home/rex/devel/optee/optee_os/lib/libmpa/mpa_div.c:390
    a2d4:	f9401fa0 	ldr	x0, [x29,#56]
    a2d8:	f9002ba0 	str	x0, [x29,#80]
/home/rex/devel/optee/optee_os/lib/libmpa/mpa_div.c:391
    a2dc:	39017fbf 	strb	wzr, [x29,#95]
/home/rex/devel/optee/optee_os/lib/libmpa/mpa_div.c:395
    a2e0:	f9401ba1 	ldr	x1, [x29,#48]
    a2e4:	f94017a0 	ldr	x0, [x29,#40]
    a2e8:	eb00003f 	cmp	x1, x0
    a2ec:	54000100 	b.eq	a30c <mpa_div+0x98>
/home/rex/devel/optee/optee_os/lib/libmpa/mpa_div.c:395 (discriminator 1)
    a2f0:	f9401ba1 	ldr	x1, [x29,#48]
    a2f4:	f94013a0 	ldr	x0, [x29,#32]
    a2f8:	eb00003f 	cmp	x1, x0
    a2fc:	54000080 	b.eq	a30c <mpa_div+0x98>
/home/rex/devel/optee/optee_os/lib/libmpa/mpa_div.c:395 (discriminator 2)
    a300:	f9401ba0 	ldr	x0, [x29,#48]
    a304:	f100001f 	cmp	x0, #0x0
    a308:	540000e1 	b.ne	a324 <mpa_div+0xb0>
/home/rex/devel/optee/optee_os/lib/libmpa/mpa_div.c:396
    a30c:	910123a0 	add	x0, x29, #0x48
    a310:	f9400fa1 	ldr	x1, [x29,#24]
    a314:	940003ac 	bl	b1c4 <mpa_alloc_static_temp_var>
/home/rex/devel/optee/optee_os/lib/libmpa/mpa_div.c:397
    a318:	52800020 	mov	w0, #0x1                   	// #1
    a31c:	39017ba0 	strb	w0, [x29,#94]
    a320:	14000004 	b	a330 <mpa_div+0xbc>
/home/rex/devel/optee/optee_os/lib/libmpa/mpa_div.c:399
    a324:	f9401ba0 	ldr	x0, [x29,#48]
    a328:	f90027a0 	str	x0, [x29,#72]
/home/rex/devel/optee/optee_os/lib/libmpa/mpa_div.c:400
    a32c:	39017bbf 	strb	wzr, [x29,#94]
/home/rex/devel/optee/optee_os/lib/libmpa/mpa_div.c:403
    a330:	f9402ba0 	ldr	x0, [x29,#80]
    a334:	f94027a1 	ldr	x1, [x29,#72]
    a338:	f9400fa4 	ldr	x4, [x29,#24]
    a33c:	f94013a3 	ldr	x3, [x29,#32]
    a340:	f94017a2 	ldr	x2, [x29,#40]
    a344:	97ffff49 	bl	a068 <__mpa_div_q_r>
/home/rex/devel/optee/optee_os/lib/libmpa/mpa_div.c:405
    a348:	f9401fa0 	ldr	x0, [x29,#56]
    a34c:	f100001f 	cmp	x0, #0x0
    a350:	540000a0 	b.eq	a364 <mpa_div+0xf0>
/home/rex/devel/optee/optee_os/lib/libmpa/mpa_div.c:406
    a354:	f9402ba0 	ldr	x0, [x29,#80]
    a358:	aa0003e1 	mov	x1, x0
    a35c:	f9401fa0 	ldr	x0, [x29,#56]
    a360:	97fff80e 	bl	8398 <mpa_copy>
/home/rex/devel/optee/optee_os/lib/libmpa/mpa_div.c:407
    a364:	39417fa0 	ldrb	w0, [x29,#95]
    a368:	7100001f 	cmp	w0, #0x0
    a36c:	54000080 	b.eq	a37c <mpa_div+0x108>
/home/rex/devel/optee/optee_os/lib/libmpa/mpa_div.c:408
    a370:	910143a0 	add	x0, x29, #0x50
    a374:	f9400fa1 	ldr	x1, [x29,#24]
    a378:	9400039e 	bl	b1f0 <mpa_free_static_temp_var>
/home/rex/devel/optee/optee_os/lib/libmpa/mpa_div.c:409
    a37c:	f9401ba0 	ldr	x0, [x29,#48]
    a380:	f100001f 	cmp	x0, #0x0
    a384:	540000a0 	b.eq	a398 <mpa_div+0x124>
/home/rex/devel/optee/optee_os/lib/libmpa/mpa_div.c:410
    a388:	f94027a0 	ldr	x0, [x29,#72]
    a38c:	aa0003e1 	mov	x1, x0
    a390:	f9401ba0 	ldr	x0, [x29,#48]
    a394:	97fff801 	bl	8398 <mpa_copy>
/home/rex/devel/optee/optee_os/lib/libmpa/mpa_div.c:411
    a398:	39417ba0 	ldrb	w0, [x29,#94]
    a39c:	7100001f 	cmp	w0, #0x0
    a3a0:	54000080 	b.eq	a3b0 <mpa_div+0x13c>
/home/rex/devel/optee/optee_os/lib/libmpa/mpa_div.c:412
    a3a4:	910123a0 	add	x0, x29, #0x48
    a3a8:	f9400fa1 	ldr	x1, [x29,#24]
    a3ac:	94000391 	bl	b1f0 <mpa_free_static_temp_var>
/home/rex/devel/optee/optee_os/lib/libmpa/mpa_div.c:413
    a3b0:	d503201f 	nop
    a3b4:	a8c67bfd 	ldp	x29, x30, [sp],#96
    a3b8:	d65f03c0 	ret

000000000000a3bc <__mpa_divby2>:
__mpa_divby2():
/home/rex/devel/optee/optee_os/lib/libmpa/mpa_gcd.c:41
    a3bc:	d10083ff 	sub	sp, sp, #0x20
    a3c0:	f90007e0 	str	x0, [sp,#8]
/home/rex/devel/optee/optee_os/lib/libmpa/mpa_gcd.c:47
    a3c4:	f94007e0 	ldr	x0, [sp,#8]
    a3c8:	b9400400 	ldr	w0, [x0,#4]
    a3cc:	7100001f 	cmp	w0, #0x0
    a3d0:	54000b00 	b.eq	a530 <__mpa_divby2+0x174>
/home/rex/devel/optee/optee_os/lib/libmpa/mpa_gcd.c:50
    a3d4:	f94007e0 	ldr	x0, [sp,#8]
    a3d8:	b9400400 	ldr	w0, [x0,#4]
    a3dc:	7100001f 	cmp	w0, #0x0
    a3e0:	5a80a400 	cneg	w0, w0, lt
    a3e4:	51000400 	sub	w0, w0, #0x1
    a3e8:	f94007e1 	ldr	x1, [sp,#8]
    a3ec:	93407c00 	sxtw	x0, w0
    a3f0:	d37ef400 	lsl	x0, x0, #2
    a3f4:	8b000020 	add	x0, x1, x0
    a3f8:	b9400800 	ldr	w0, [x0,#8]
    a3fc:	53017c00 	lsr	w0, w0, #1
    a400:	7100001f 	cmp	w0, #0x0
    a404:	1a9f17e0 	cset	w0, eq
    a408:	12001c00 	and	w0, w0, #0xff
    a40c:	b9001be0 	str	w0, [sp,#24]
/home/rex/devel/optee/optee_os/lib/libmpa/mpa_gcd.c:52
    a410:	f94007e0 	ldr	x0, [sp,#8]
    a414:	b9400800 	ldr	w0, [x0,#8]
    a418:	53017c01 	lsr	w1, w0, #1
    a41c:	f94007e0 	ldr	x0, [sp,#8]
    a420:	b9000801 	str	w1, [x0,#8]
/home/rex/devel/optee/optee_os/lib/libmpa/mpa_gcd.c:53
    a424:	52800020 	mov	w0, #0x1                   	// #1
    a428:	b9001fe0 	str	w0, [sp,#28]
    a42c:	14000027 	b	a4c8 <__mpa_divby2+0x10c>
/home/rex/devel/optee/optee_os/lib/libmpa/mpa_gcd.c:54 (discriminator 3)
    a430:	f94007e1 	ldr	x1, [sp,#8]
    a434:	b9401fe0 	ldr	w0, [sp,#28]
    a438:	d37ef400 	lsl	x0, x0, #2
    a43c:	8b000020 	add	x0, x1, x0
    a440:	b9400800 	ldr	w0, [x0,#8]
    a444:	12000000 	and	w0, w0, #0x1
    a448:	b90017e0 	str	w0, [sp,#20]
/home/rex/devel/optee/optee_os/lib/libmpa/mpa_gcd.c:55 (discriminator 3)
    a44c:	f94007e1 	ldr	x1, [sp,#8]
    a450:	b9401fe0 	ldr	w0, [sp,#28]
    a454:	d37ef400 	lsl	x0, x0, #2
    a458:	8b000020 	add	x0, x1, x0
    a45c:	b9400800 	ldr	w0, [x0,#8]
    a460:	53017c01 	lsr	w1, w0, #1
    a464:	f94007e2 	ldr	x2, [sp,#8]
    a468:	b9401fe0 	ldr	w0, [sp,#28]
    a46c:	d37ef400 	lsl	x0, x0, #2
    a470:	8b000040 	add	x0, x2, x0
    a474:	b9000801 	str	w1, [x0,#8]
/home/rex/devel/optee/optee_os/lib/libmpa/mpa_gcd.c:56 (discriminator 3)
    a478:	b9401fe0 	ldr	w0, [sp,#28]
    a47c:	51000403 	sub	w3, w0, #0x1
    a480:	b9401fe0 	ldr	w0, [sp,#28]
    a484:	51000400 	sub	w0, w0, #0x1
    a488:	f94007e1 	ldr	x1, [sp,#8]
    a48c:	2a0003e0 	mov	w0, w0
    a490:	d37ef400 	lsl	x0, x0, #2
    a494:	8b000020 	add	x0, x1, x0
    a498:	b9400801 	ldr	w1, [x0,#8]
    a49c:	b94017e0 	ldr	w0, [sp,#20]
    a4a0:	53010000 	lsl	w0, w0, #31
    a4a4:	4a000021 	eor	w1, w1, w0
    a4a8:	f94007e2 	ldr	x2, [sp,#8]
    a4ac:	2a0303e0 	mov	w0, w3
    a4b0:	d37ef400 	lsl	x0, x0, #2
    a4b4:	8b000040 	add	x0, x2, x0
    a4b8:	b9000801 	str	w1, [x0,#8]
/home/rex/devel/optee/optee_os/lib/libmpa/mpa_gcd.c:53 (discriminator 3)
    a4bc:	b9401fe0 	ldr	w0, [sp,#28]
    a4c0:	11000400 	add	w0, w0, #0x1
    a4c4:	b9001fe0 	str	w0, [sp,#28]
/home/rex/devel/optee/optee_os/lib/libmpa/mpa_gcd.c:53 (discriminator 1)
    a4c8:	f94007e0 	ldr	x0, [sp,#8]
    a4cc:	b9400400 	ldr	w0, [x0,#4]
    a4d0:	7100001f 	cmp	w0, #0x0
    a4d4:	5a80a400 	cneg	w0, w0, lt
    a4d8:	2a0003e1 	mov	w1, w0
    a4dc:	b9401fe0 	ldr	w0, [sp,#28]
    a4e0:	6b00003f 	cmp	w1, w0
    a4e4:	54fffa68 	b.hi	a430 <__mpa_divby2+0x74>
/home/rex/devel/optee/optee_os/lib/libmpa/mpa_gcd.c:59
    a4e8:	f94007e0 	ldr	x0, [sp,#8]
    a4ec:	b9400400 	ldr	w0, [x0,#4]
    a4f0:	7100001f 	cmp	w0, #0x0
    a4f4:	5400010a 	b.ge	a514 <__mpa_divby2+0x158>
/home/rex/devel/optee/optee_os/lib/libmpa/mpa_gcd.c:60
    a4f8:	f94007e0 	ldr	x0, [sp,#8]
    a4fc:	b9400401 	ldr	w1, [x0,#4]
    a500:	b9401be0 	ldr	w0, [sp,#24]
    a504:	0b000021 	add	w1, w1, w0
    a508:	f94007e0 	ldr	x0, [sp,#8]
    a50c:	b9000401 	str	w1, [x0,#4]
    a510:	14000009 	b	a534 <__mpa_divby2+0x178>
/home/rex/devel/optee/optee_os/lib/libmpa/mpa_gcd.c:62
    a514:	f94007e0 	ldr	x0, [sp,#8]
    a518:	b9400401 	ldr	w1, [x0,#4]
    a51c:	b9401be0 	ldr	w0, [sp,#24]
    a520:	4b000021 	sub	w1, w1, w0
    a524:	f94007e0 	ldr	x0, [sp,#8]
    a528:	b9000401 	str	w1, [x0,#4]
    a52c:	14000002 	b	a534 <__mpa_divby2+0x178>
/home/rex/devel/optee/optee_os/lib/libmpa/mpa_gcd.c:48
    a530:	d503201f 	nop
/home/rex/devel/optee/optee_os/lib/libmpa/mpa_gcd.c:63
    a534:	910083ff 	add	sp, sp, #0x20
    a538:	d65f03c0 	ret

000000000000a53c <__mpa_egcd>:
__mpa_egcd():
/home/rex/devel/optee/optee_os/lib/libmpa/mpa_gcd.c:116
    a53c:	a9b87bfd 	stp	x29, x30, [sp,#-128]!
    a540:	910003fd 	mov	x29, sp
    a544:	f9001fa0 	str	x0, [x29,#56]
    a548:	f9001ba1 	str	x1, [x29,#48]
    a54c:	f90017a2 	str	x2, [x29,#40]
    a550:	f90013a3 	str	x3, [x29,#32]
    a554:	f9000fa4 	str	x4, [x29,#24]
    a558:	f9000ba5 	str	x5, [x29,#16]
/home/rex/devel/optee/optee_os/lib/libmpa/mpa_gcd.c:127
    a55c:	f9400fa0 	ldr	x0, [x29,#24]
    a560:	b9400400 	ldr	w0, [x0,#4]
    a564:	7100001f 	cmp	w0, #0x0
    a568:	54000221 	b.ne	a5ac <__mpa_egcd+0x70>
/home/rex/devel/optee/optee_os/lib/libmpa/mpa_gcd.c:128
    a56c:	f9401ba0 	ldr	x0, [x29,#48]
    a570:	f100001f 	cmp	x0, #0x0
    a574:	54000080 	b.eq	a584 <__mpa_egcd+0x48>
/home/rex/devel/optee/optee_os/lib/libmpa/mpa_gcd.c:129
    a578:	52800021 	mov	w1, #0x1                   	// #1
    a57c:	f9401ba0 	ldr	x0, [x29,#48]
    a580:	97fffb6e 	bl	9338 <mpa_set_word>
/home/rex/devel/optee/optee_os/lib/libmpa/mpa_gcd.c:130
    a584:	f94017a0 	ldr	x0, [x29,#40]
    a588:	f100001f 	cmp	x0, #0x0
    a58c:	54000080 	b.eq	a59c <__mpa_egcd+0x60>
/home/rex/devel/optee/optee_os/lib/libmpa/mpa_gcd.c:131
    a590:	52800001 	mov	w1, #0x0                   	// #0
    a594:	f94017a0 	ldr	x0, [x29,#40]
    a598:	97fffb68 	bl	9338 <mpa_set_word>
/home/rex/devel/optee/optee_os/lib/libmpa/mpa_gcd.c:132
    a59c:	f94013a1 	ldr	x1, [x29,#32]
    a5a0:	f9401fa0 	ldr	x0, [x29,#56]
    a5a4:	97fff77d 	bl	8398 <mpa_copy>
    a5a8:	140000ca 	b	a8d0 <__mpa_egcd+0x394>
/home/rex/devel/optee/optee_os/lib/libmpa/mpa_gcd.c:135
    a5ac:	910143a0 	add	x0, x29, #0x50
    a5b0:	f9400ba1 	ldr	x1, [x29,#16]
    a5b4:	94000304 	bl	b1c4 <mpa_alloc_static_temp_var>
/home/rex/devel/optee/optee_os/lib/libmpa/mpa_gcd.c:136
    a5b8:	f9402ba0 	ldr	x0, [x29,#80]
    a5bc:	f94013a1 	ldr	x1, [x29,#32]
    a5c0:	97fff776 	bl	8398 <mpa_copy>
/home/rex/devel/optee/optee_os/lib/libmpa/mpa_gcd.c:137
    a5c4:	910123a0 	add	x0, x29, #0x48
    a5c8:	f9400ba1 	ldr	x1, [x29,#16]
    a5cc:	940002fe 	bl	b1c4 <mpa_alloc_static_temp_var>
/home/rex/devel/optee/optee_os/lib/libmpa/mpa_gcd.c:138
    a5d0:	f94027a0 	ldr	x0, [x29,#72]
    a5d4:	f9400fa1 	ldr	x1, [x29,#24]
    a5d8:	97fff770 	bl	8398 <mpa_copy>
/home/rex/devel/optee/optee_os/lib/libmpa/mpa_gcd.c:140
    a5dc:	b9007fbf 	str	wzr, [x29,#124]
/home/rex/devel/optee/optee_os/lib/libmpa/mpa_gcd.c:141
    a5e0:	14000008 	b	a600 <__mpa_egcd+0xc4>
/home/rex/devel/optee/optee_os/lib/libmpa/mpa_gcd.c:142
    a5e4:	b9407fa0 	ldr	w0, [x29,#124]
    a5e8:	11000400 	add	w0, w0, #0x1
    a5ec:	b9007fa0 	str	w0, [x29,#124]
/home/rex/devel/optee/optee_os/lib/libmpa/mpa_gcd.c:143
    a5f0:	f9402ba0 	ldr	x0, [x29,#80]
    a5f4:	97ffff72 	bl	a3bc <__mpa_divby2>
/home/rex/devel/optee/optee_os/lib/libmpa/mpa_gcd.c:144
    a5f8:	f94027a0 	ldr	x0, [x29,#72]
    a5fc:	97ffff70 	bl	a3bc <__mpa_divby2>
/home/rex/devel/optee/optee_os/lib/libmpa/mpa_gcd.c:141
    a600:	f9402ba0 	ldr	x0, [x29,#80]
    a604:	97fff7f6 	bl	85dc <mpa_parity>
    a608:	7100001f 	cmp	w0, #0x0
    a60c:	540000a1 	b.ne	a620 <__mpa_egcd+0xe4>
/home/rex/devel/optee/optee_os/lib/libmpa/mpa_gcd.c:141 (discriminator 1)
    a610:	f94027a0 	ldr	x0, [x29,#72]
    a614:	97fff7f2 	bl	85dc <mpa_parity>
    a618:	7100001f 	cmp	w0, #0x0
    a61c:	54fffe40 	b.eq	a5e4 <__mpa_egcd+0xa8>
/home/rex/devel/optee/optee_os/lib/libmpa/mpa_gcd.c:147
    a620:	910103a0 	add	x0, x29, #0x40
    a624:	f9400ba1 	ldr	x1, [x29,#16]
    a628:	940002e7 	bl	b1c4 <mpa_alloc_static_temp_var>
/home/rex/devel/optee/optee_os/lib/libmpa/mpa_gcd.c:148
    a62c:	f94023a0 	ldr	x0, [x29,#64]
    a630:	f9402ba1 	ldr	x1, [x29,#80]
    a634:	97fff759 	bl	8398 <mpa_copy>
/home/rex/devel/optee/optee_os/lib/libmpa/mpa_gcd.c:149
    a638:	f94027a0 	ldr	x0, [x29,#72]
    a63c:	aa0003e1 	mov	x1, x0
    a640:	f9401fa0 	ldr	x0, [x29,#56]
    a644:	97fff755 	bl	8398 <mpa_copy>
/home/rex/devel/optee/optee_os/lib/libmpa/mpa_gcd.c:150
    a648:	9101c3a0 	add	x0, x29, #0x70
    a64c:	f9400ba1 	ldr	x1, [x29,#16]
    a650:	940002dd 	bl	b1c4 <mpa_alloc_static_temp_var>
/home/rex/devel/optee/optee_os/lib/libmpa/mpa_gcd.c:151
    a654:	f9403ba0 	ldr	x0, [x29,#112]
    a658:	52800021 	mov	w1, #0x1                   	// #1
    a65c:	97fffb37 	bl	9338 <mpa_set_word>
/home/rex/devel/optee/optee_os/lib/libmpa/mpa_gcd.c:152
    a660:	9101a3a0 	add	x0, x29, #0x68
    a664:	f9400ba1 	ldr	x1, [x29,#16]
    a668:	940002d7 	bl	b1c4 <mpa_alloc_static_temp_var>
/home/rex/devel/optee/optee_os/lib/libmpa/mpa_gcd.c:153
    a66c:	f94037a0 	ldr	x0, [x29,#104]
    a670:	52800001 	mov	w1, #0x0                   	// #0
    a674:	97fffb31 	bl	9338 <mpa_set_word>
/home/rex/devel/optee/optee_os/lib/libmpa/mpa_gcd.c:154
    a678:	910183a0 	add	x0, x29, #0x60
    a67c:	f9400ba1 	ldr	x1, [x29,#16]
    a680:	940002d1 	bl	b1c4 <mpa_alloc_static_temp_var>
/home/rex/devel/optee/optee_os/lib/libmpa/mpa_gcd.c:155
    a684:	f94033a0 	ldr	x0, [x29,#96]
    a688:	52800001 	mov	w1, #0x0                   	// #0
    a68c:	97fffb2b 	bl	9338 <mpa_set_word>
/home/rex/devel/optee/optee_os/lib/libmpa/mpa_gcd.c:156
    a690:	910163a0 	add	x0, x29, #0x58
    a694:	f9400ba1 	ldr	x1, [x29,#16]
    a698:	940002cb 	bl	b1c4 <mpa_alloc_static_temp_var>
/home/rex/devel/optee/optee_os/lib/libmpa/mpa_gcd.c:157
    a69c:	f9402fa0 	ldr	x0, [x29,#88]
    a6a0:	52800021 	mov	w1, #0x1                   	// #1
    a6a4:	97fffb25 	bl	9338 <mpa_set_word>
/home/rex/devel/optee/optee_os/lib/libmpa/mpa_gcd.c:159
    a6a8:	1400005f 	b	a824 <__mpa_egcd+0x2e8>
/home/rex/devel/optee/optee_os/lib/libmpa/mpa_gcd.c:161
    a6ac:	f94023a0 	ldr	x0, [x29,#64]
    a6b0:	97ffff43 	bl	a3bc <__mpa_divby2>
/home/rex/devel/optee/optee_os/lib/libmpa/mpa_gcd.c:162
    a6b4:	f9403ba0 	ldr	x0, [x29,#112]
    a6b8:	97fff7c9 	bl	85dc <mpa_parity>
    a6bc:	7100041f 	cmp	w0, #0x1
    a6c0:	540000a0 	b.eq	a6d4 <__mpa_egcd+0x198>
/home/rex/devel/optee/optee_os/lib/libmpa/mpa_gcd.c:162 (discriminator 1)
    a6c4:	f94037a0 	ldr	x0, [x29,#104]
    a6c8:	97fff7c5 	bl	85dc <mpa_parity>
    a6cc:	7100041f 	cmp	w0, #0x1
    a6d0:	54000161 	b.ne	a6fc <__mpa_egcd+0x1c0>
/home/rex/devel/optee/optee_os/lib/libmpa/mpa_gcd.c:163
    a6d4:	f9403ba0 	ldr	x0, [x29,#112]
    a6d8:	f9403ba1 	ldr	x1, [x29,#112]
    a6dc:	f94027a2 	ldr	x2, [x29,#72]
    a6e0:	f9400ba3 	ldr	x3, [x29,#16]
    a6e4:	940008ea 	bl	ca8c <mpa_add>
/home/rex/devel/optee/optee_os/lib/libmpa/mpa_gcd.c:164
    a6e8:	f94037a0 	ldr	x0, [x29,#104]
    a6ec:	f94037a1 	ldr	x1, [x29,#104]
    a6f0:	f9402ba2 	ldr	x2, [x29,#80]
    a6f4:	f9400ba3 	ldr	x3, [x29,#16]
    a6f8:	94000994 	bl	cd48 <mpa_sub>
/home/rex/devel/optee/optee_os/lib/libmpa/mpa_gcd.c:166
    a6fc:	f9403ba0 	ldr	x0, [x29,#112]
    a700:	97ffff2f 	bl	a3bc <__mpa_divby2>
/home/rex/devel/optee/optee_os/lib/libmpa/mpa_gcd.c:167
    a704:	f94037a0 	ldr	x0, [x29,#104]
    a708:	97ffff2d 	bl	a3bc <__mpa_divby2>
/home/rex/devel/optee/optee_os/lib/libmpa/mpa_gcd.c:160
    a70c:	f94023a0 	ldr	x0, [x29,#64]
    a710:	97fff7b3 	bl	85dc <mpa_parity>
    a714:	7100001f 	cmp	w0, #0x0
    a718:	54fffca0 	b.eq	a6ac <__mpa_egcd+0x170>
/home/rex/devel/optee/optee_os/lib/libmpa/mpa_gcd.c:170
    a71c:	14000019 	b	a780 <__mpa_egcd+0x244>
/home/rex/devel/optee/optee_os/lib/libmpa/mpa_gcd.c:171
    a720:	f9401fa0 	ldr	x0, [x29,#56]
    a724:	97ffff26 	bl	a3bc <__mpa_divby2>
/home/rex/devel/optee/optee_os/lib/libmpa/mpa_gcd.c:172
    a728:	f94033a0 	ldr	x0, [x29,#96]
    a72c:	97fff7ac 	bl	85dc <mpa_parity>
    a730:	7100041f 	cmp	w0, #0x1
    a734:	540000a0 	b.eq	a748 <__mpa_egcd+0x20c>
/home/rex/devel/optee/optee_os/lib/libmpa/mpa_gcd.c:172 (discriminator 1)
    a738:	f9402fa0 	ldr	x0, [x29,#88]
    a73c:	97fff7a8 	bl	85dc <mpa_parity>
    a740:	7100041f 	cmp	w0, #0x1
    a744:	54000161 	b.ne	a770 <__mpa_egcd+0x234>
/home/rex/devel/optee/optee_os/lib/libmpa/mpa_gcd.c:173
    a748:	f94033a0 	ldr	x0, [x29,#96]
    a74c:	f94033a1 	ldr	x1, [x29,#96]
    a750:	f94027a2 	ldr	x2, [x29,#72]
    a754:	f9400ba3 	ldr	x3, [x29,#16]
    a758:	940008cd 	bl	ca8c <mpa_add>
/home/rex/devel/optee/optee_os/lib/libmpa/mpa_gcd.c:174
    a75c:	f9402fa0 	ldr	x0, [x29,#88]
    a760:	f9402fa1 	ldr	x1, [x29,#88]
    a764:	f9402ba2 	ldr	x2, [x29,#80]
    a768:	f9400ba3 	ldr	x3, [x29,#16]
    a76c:	94000977 	bl	cd48 <mpa_sub>
/home/rex/devel/optee/optee_os/lib/libmpa/mpa_gcd.c:176
    a770:	f94033a0 	ldr	x0, [x29,#96]
    a774:	97ffff12 	bl	a3bc <__mpa_divby2>
/home/rex/devel/optee/optee_os/lib/libmpa/mpa_gcd.c:177
    a778:	f9402fa0 	ldr	x0, [x29,#88]
    a77c:	97ffff10 	bl	a3bc <__mpa_divby2>
/home/rex/devel/optee/optee_os/lib/libmpa/mpa_gcd.c:170
    a780:	f9401fa0 	ldr	x0, [x29,#56]
    a784:	97fff796 	bl	85dc <mpa_parity>
    a788:	7100001f 	cmp	w0, #0x0
    a78c:	54fffca0 	b.eq	a720 <__mpa_egcd+0x1e4>
/home/rex/devel/optee/optee_os/lib/libmpa/mpa_gcd.c:180
    a790:	f94023a0 	ldr	x0, [x29,#64]
    a794:	f9401fa1 	ldr	x1, [x29,#56]
    a798:	94000bae 	bl	d650 <mpa_cmp>
    a79c:	7100001f 	cmp	w0, #0x0
    a7a0:	5400022b 	b.lt	a7e4 <__mpa_egcd+0x2a8>
/home/rex/devel/optee/optee_os/lib/libmpa/mpa_gcd.c:181
    a7a4:	f94023a0 	ldr	x0, [x29,#64]
    a7a8:	f94023a1 	ldr	x1, [x29,#64]
    a7ac:	f9400ba3 	ldr	x3, [x29,#16]
    a7b0:	f9401fa2 	ldr	x2, [x29,#56]
    a7b4:	94000965 	bl	cd48 <mpa_sub>
/home/rex/devel/optee/optee_os/lib/libmpa/mpa_gcd.c:182
    a7b8:	f9403ba0 	ldr	x0, [x29,#112]
    a7bc:	f9403ba1 	ldr	x1, [x29,#112]
    a7c0:	f94033a2 	ldr	x2, [x29,#96]
    a7c4:	f9400ba3 	ldr	x3, [x29,#16]
    a7c8:	94000960 	bl	cd48 <mpa_sub>
/home/rex/devel/optee/optee_os/lib/libmpa/mpa_gcd.c:183
    a7cc:	f94037a0 	ldr	x0, [x29,#104]
    a7d0:	f94037a1 	ldr	x1, [x29,#104]
    a7d4:	f9402fa2 	ldr	x2, [x29,#88]
    a7d8:	f9400ba3 	ldr	x3, [x29,#16]
    a7dc:	9400095b 	bl	cd48 <mpa_sub>
    a7e0:	14000011 	b	a824 <__mpa_egcd+0x2e8>
/home/rex/devel/optee/optee_os/lib/libmpa/mpa_gcd.c:185
    a7e4:	f94023a0 	ldr	x0, [x29,#64]
    a7e8:	f9400ba3 	ldr	x3, [x29,#16]
    a7ec:	aa0003e2 	mov	x2, x0
    a7f0:	f9401fa1 	ldr	x1, [x29,#56]
    a7f4:	f9401fa0 	ldr	x0, [x29,#56]
    a7f8:	94000954 	bl	cd48 <mpa_sub>
/home/rex/devel/optee/optee_os/lib/libmpa/mpa_gcd.c:186
    a7fc:	f94033a0 	ldr	x0, [x29,#96]
    a800:	f94033a1 	ldr	x1, [x29,#96]
    a804:	f9403ba2 	ldr	x2, [x29,#112]
    a808:	f9400ba3 	ldr	x3, [x29,#16]
    a80c:	9400094f 	bl	cd48 <mpa_sub>
/home/rex/devel/optee/optee_os/lib/libmpa/mpa_gcd.c:187
    a810:	f9402fa0 	ldr	x0, [x29,#88]
    a814:	f9402fa1 	ldr	x1, [x29,#88]
    a818:	f94037a2 	ldr	x2, [x29,#104]
    a81c:	f9400ba3 	ldr	x3, [x29,#16]
    a820:	9400094a 	bl	cd48 <mpa_sub>
/home/rex/devel/optee/optee_os/lib/libmpa/mpa_gcd.c:159
    a824:	f94023a0 	ldr	x0, [x29,#64]
    a828:	b9400400 	ldr	w0, [x0,#4]
    a82c:	7100001f 	cmp	w0, #0x0
    a830:	54fff6e1 	b.ne	a70c <__mpa_egcd+0x1d0>
/home/rex/devel/optee/optee_os/lib/libmpa/mpa_gcd.c:192
    a834:	f9401ba0 	ldr	x0, [x29,#48]
    a838:	f100001f 	cmp	x0, #0x0
    a83c:	540000a0 	b.eq	a850 <__mpa_egcd+0x314>
/home/rex/devel/optee/optee_os/lib/libmpa/mpa_gcd.c:193
    a840:	f94033a0 	ldr	x0, [x29,#96]
    a844:	aa0003e1 	mov	x1, x0
    a848:	f9401ba0 	ldr	x0, [x29,#48]
    a84c:	97fff6d3 	bl	8398 <mpa_copy>
/home/rex/devel/optee/optee_os/lib/libmpa/mpa_gcd.c:194
    a850:	f94017a0 	ldr	x0, [x29,#40]
    a854:	f100001f 	cmp	x0, #0x0
    a858:	540000a0 	b.eq	a86c <__mpa_egcd+0x330>
/home/rex/devel/optee/optee_os/lib/libmpa/mpa_gcd.c:195
    a85c:	f9402fa0 	ldr	x0, [x29,#88]
    a860:	aa0003e1 	mov	x1, x0
    a864:	f94017a0 	ldr	x0, [x29,#40]
    a868:	97fff6cc 	bl	8398 <mpa_copy>
/home/rex/devel/optee/optee_os/lib/libmpa/mpa_gcd.c:196
    a86c:	b9407fa2 	ldr	w2, [x29,#124]
    a870:	f9401fa1 	ldr	x1, [x29,#56]
    a874:	f9401fa0 	ldr	x0, [x29,#56]
    a878:	9400055c 	bl	bde8 <mpa_shift_left>
/home/rex/devel/optee/optee_os/lib/libmpa/mpa_gcd.c:198
    a87c:	9101c3a0 	add	x0, x29, #0x70
    a880:	f9400ba1 	ldr	x1, [x29,#16]
    a884:	9400025b 	bl	b1f0 <mpa_free_static_temp_var>
/home/rex/devel/optee/optee_os/lib/libmpa/mpa_gcd.c:199
    a888:	9101a3a0 	add	x0, x29, #0x68
    a88c:	f9400ba1 	ldr	x1, [x29,#16]
    a890:	94000258 	bl	b1f0 <mpa_free_static_temp_var>
/home/rex/devel/optee/optee_os/lib/libmpa/mpa_gcd.c:200
    a894:	910183a0 	add	x0, x29, #0x60
    a898:	f9400ba1 	ldr	x1, [x29,#16]
    a89c:	94000255 	bl	b1f0 <mpa_free_static_temp_var>
/home/rex/devel/optee/optee_os/lib/libmpa/mpa_gcd.c:201
    a8a0:	910163a0 	add	x0, x29, #0x58
    a8a4:	f9400ba1 	ldr	x1, [x29,#16]
    a8a8:	94000252 	bl	b1f0 <mpa_free_static_temp_var>
/home/rex/devel/optee/optee_os/lib/libmpa/mpa_gcd.c:202
    a8ac:	910143a0 	add	x0, x29, #0x50
    a8b0:	f9400ba1 	ldr	x1, [x29,#16]
    a8b4:	9400024f 	bl	b1f0 <mpa_free_static_temp_var>
/home/rex/devel/optee/optee_os/lib/libmpa/mpa_gcd.c:203
    a8b8:	910123a0 	add	x0, x29, #0x48
    a8bc:	f9400ba1 	ldr	x1, [x29,#16]
    a8c0:	9400024c 	bl	b1f0 <mpa_free_static_temp_var>
/home/rex/devel/optee/optee_os/lib/libmpa/mpa_gcd.c:204
    a8c4:	910103a0 	add	x0, x29, #0x40
    a8c8:	f9400ba1 	ldr	x1, [x29,#16]
    a8cc:	94000249 	bl	b1f0 <mpa_free_static_temp_var>
/home/rex/devel/optee/optee_os/lib/libmpa/mpa_gcd.c:205
    a8d0:	a8c87bfd 	ldp	x29, x30, [sp],#128
    a8d4:	d65f03c0 	ret

000000000000a8d8 <__mpa_gcd>:
__mpa_gcd():
/home/rex/devel/optee/optee_os/lib/libmpa/mpa_gcd.c:215
    a8d8:	a9bb7bfd 	stp	x29, x30, [sp,#-80]!
    a8dc:	910003fd 	mov	x29, sp
    a8e0:	f90017a0 	str	x0, [x29,#40]
    a8e4:	f90013a1 	str	x1, [x29,#32]
    a8e8:	f9000fa2 	str	x2, [x29,#24]
    a8ec:	f9000ba3 	str	x3, [x29,#16]
/home/rex/devel/optee/optee_os/lib/libmpa/mpa_gcd.c:222
    a8f0:	f9400fa0 	ldr	x0, [x29,#24]
    a8f4:	b9400400 	ldr	w0, [x0,#4]
    a8f8:	7100001f 	cmp	w0, #0x0
    a8fc:	540000a1 	b.ne	a910 <__mpa_gcd+0x38>
/home/rex/devel/optee/optee_os/lib/libmpa/mpa_gcd.c:223
    a900:	f94013a1 	ldr	x1, [x29,#32]
    a904:	f94017a0 	ldr	x0, [x29,#40]
    a908:	97fff6a4 	bl	8398 <mpa_copy>
    a90c:	1400005d 	b	aa80 <__mpa_gcd+0x1a8>
/home/rex/devel/optee/optee_os/lib/libmpa/mpa_gcd.c:226
    a910:	910103a0 	add	x0, x29, #0x40
    a914:	f9400ba1 	ldr	x1, [x29,#16]
    a918:	9400022b 	bl	b1c4 <mpa_alloc_static_temp_var>
/home/rex/devel/optee/optee_os/lib/libmpa/mpa_gcd.c:227
    a91c:	f94023a0 	ldr	x0, [x29,#64]
    a920:	f94013a1 	ldr	x1, [x29,#32]
    a924:	97fff69d 	bl	8398 <mpa_copy>
/home/rex/devel/optee/optee_os/lib/libmpa/mpa_gcd.c:228
    a928:	9100e3a0 	add	x0, x29, #0x38
    a92c:	f9400ba1 	ldr	x1, [x29,#16]
    a930:	94000225 	bl	b1c4 <mpa_alloc_static_temp_var>
/home/rex/devel/optee/optee_os/lib/libmpa/mpa_gcd.c:229
    a934:	f9401fa0 	ldr	x0, [x29,#56]
    a938:	f9400fa1 	ldr	x1, [x29,#24]
    a93c:	97fff697 	bl	8398 <mpa_copy>
/home/rex/devel/optee/optee_os/lib/libmpa/mpa_gcd.c:231
    a940:	b9004fbf 	str	wzr, [x29,#76]
/home/rex/devel/optee/optee_os/lib/libmpa/mpa_gcd.c:232
    a944:	14000008 	b	a964 <__mpa_gcd+0x8c>
/home/rex/devel/optee/optee_os/lib/libmpa/mpa_gcd.c:233
    a948:	b9404fa0 	ldr	w0, [x29,#76]
    a94c:	11000400 	add	w0, w0, #0x1
    a950:	b9004fa0 	str	w0, [x29,#76]
/home/rex/devel/optee/optee_os/lib/libmpa/mpa_gcd.c:234
    a954:	f94023a0 	ldr	x0, [x29,#64]
    a958:	97fffe99 	bl	a3bc <__mpa_divby2>
/home/rex/devel/optee/optee_os/lib/libmpa/mpa_gcd.c:235
    a95c:	f9401fa0 	ldr	x0, [x29,#56]
    a960:	97fffe97 	bl	a3bc <__mpa_divby2>
/home/rex/devel/optee/optee_os/lib/libmpa/mpa_gcd.c:232
    a964:	f94023a0 	ldr	x0, [x29,#64]
    a968:	97fff71d 	bl	85dc <mpa_parity>
    a96c:	7100001f 	cmp	w0, #0x0
    a970:	540000a1 	b.ne	a984 <__mpa_gcd+0xac>
/home/rex/devel/optee/optee_os/lib/libmpa/mpa_gcd.c:232 (discriminator 1)
    a974:	f9401fa0 	ldr	x0, [x29,#56]
    a978:	97fff719 	bl	85dc <mpa_parity>
    a97c:	7100001f 	cmp	w0, #0x0
    a980:	54fffe40 	b.eq	a948 <__mpa_gcd+0x70>
/home/rex/devel/optee/optee_os/lib/libmpa/mpa_gcd.c:238
    a984:	9100c3a0 	add	x0, x29, #0x30
    a988:	f9400ba1 	ldr	x1, [x29,#16]
    a98c:	9400020e 	bl	b1c4 <mpa_alloc_static_temp_var>
/home/rex/devel/optee/optee_os/lib/libmpa/mpa_gcd.c:239
    a990:	1400002a 	b	aa38 <__mpa_gcd+0x160>
/home/rex/devel/optee/optee_os/lib/libmpa/mpa_gcd.c:241
    a994:	f94023a0 	ldr	x0, [x29,#64]
    a998:	97fffe89 	bl	a3bc <__mpa_divby2>
/home/rex/devel/optee/optee_os/lib/libmpa/mpa_gcd.c:240
    a99c:	f94023a0 	ldr	x0, [x29,#64]
    a9a0:	97fff70f 	bl	85dc <mpa_parity>
    a9a4:	7100001f 	cmp	w0, #0x0
    a9a8:	54ffff60 	b.eq	a994 <__mpa_gcd+0xbc>
/home/rex/devel/optee/optee_os/lib/libmpa/mpa_gcd.c:243
    a9ac:	14000003 	b	a9b8 <__mpa_gcd+0xe0>
/home/rex/devel/optee/optee_os/lib/libmpa/mpa_gcd.c:244
    a9b0:	f9401fa0 	ldr	x0, [x29,#56]
    a9b4:	97fffe82 	bl	a3bc <__mpa_divby2>
/home/rex/devel/optee/optee_os/lib/libmpa/mpa_gcd.c:243
    a9b8:	f9401fa0 	ldr	x0, [x29,#56]
    a9bc:	97fff708 	bl	85dc <mpa_parity>
    a9c0:	7100001f 	cmp	w0, #0x0
    a9c4:	54ffff60 	b.eq	a9b0 <__mpa_gcd+0xd8>
/home/rex/devel/optee/optee_os/lib/libmpa/mpa_gcd.c:246
    a9c8:	f9401ba0 	ldr	x0, [x29,#48]
    a9cc:	f94023a1 	ldr	x1, [x29,#64]
    a9d0:	f9401fa2 	ldr	x2, [x29,#56]
    a9d4:	f9400ba3 	ldr	x3, [x29,#16]
    a9d8:	940008dc 	bl	cd48 <mpa_sub>
/home/rex/devel/optee/optee_os/lib/libmpa/mpa_gcd.c:248
    a9dc:	f9401ba0 	ldr	x0, [x29,#48]
    a9e0:	b9400400 	ldr	w0, [x0,#4]
    a9e4:	7100001f 	cmp	w0, #0x0
    a9e8:	540000ca 	b.ge	aa00 <__mpa_gcd+0x128>
/home/rex/devel/optee/optee_os/lib/libmpa/mpa_gcd.c:248 (discriminator 1)
    a9ec:	f9401ba0 	ldr	x0, [x29,#48]
    a9f0:	f9401ba1 	ldr	x1, [x29,#48]
    a9f4:	b9400421 	ldr	w1, [x1,#4]
    a9f8:	4b0103e1 	neg	w1, w1
    a9fc:	b9000401 	str	w1, [x0,#4]
/home/rex/devel/optee/optee_os/lib/libmpa/mpa_gcd.c:249
    aa00:	f9401ba0 	ldr	x0, [x29,#48]
    aa04:	97fffe6e 	bl	a3bc <__mpa_divby2>
/home/rex/devel/optee/optee_os/lib/libmpa/mpa_gcd.c:250
    aa08:	f94023a0 	ldr	x0, [x29,#64]
    aa0c:	f9401fa1 	ldr	x1, [x29,#56]
    aa10:	94000b10 	bl	d650 <mpa_cmp>
    aa14:	7100001f 	cmp	w0, #0x0
    aa18:	540000ab 	b.lt	aa2c <__mpa_gcd+0x154>
/home/rex/devel/optee/optee_os/lib/libmpa/mpa_gcd.c:251
    aa1c:	f94023a0 	ldr	x0, [x29,#64]
    aa20:	f9401ba1 	ldr	x1, [x29,#48]
    aa24:	97fff65d 	bl	8398 <mpa_copy>
    aa28:	14000004 	b	aa38 <__mpa_gcd+0x160>
/home/rex/devel/optee/optee_os/lib/libmpa/mpa_gcd.c:253
    aa2c:	f9401fa0 	ldr	x0, [x29,#56]
    aa30:	f9401ba1 	ldr	x1, [x29,#48]
    aa34:	97fff659 	bl	8398 <mpa_copy>
/home/rex/devel/optee/optee_os/lib/libmpa/mpa_gcd.c:239
    aa38:	f94023a0 	ldr	x0, [x29,#64]
    aa3c:	b9400400 	ldr	w0, [x0,#4]
    aa40:	7100001f 	cmp	w0, #0x0
    aa44:	54fffac1 	b.ne	a99c <__mpa_gcd+0xc4>
/home/rex/devel/optee/optee_os/lib/libmpa/mpa_gcd.c:256
    aa48:	f9401fa0 	ldr	x0, [x29,#56]
    aa4c:	b9404fa2 	ldr	w2, [x29,#76]
    aa50:	aa0003e1 	mov	x1, x0
    aa54:	f94017a0 	ldr	x0, [x29,#40]
    aa58:	940004e4 	bl	bde8 <mpa_shift_left>
/home/rex/devel/optee/optee_os/lib/libmpa/mpa_gcd.c:257
    aa5c:	9100c3a0 	add	x0, x29, #0x30
    aa60:	f9400ba1 	ldr	x1, [x29,#16]
    aa64:	940001e3 	bl	b1f0 <mpa_free_static_temp_var>
/home/rex/devel/optee/optee_os/lib/libmpa/mpa_gcd.c:258
    aa68:	910103a0 	add	x0, x29, #0x40
    aa6c:	f9400ba1 	ldr	x1, [x29,#16]
    aa70:	940001e0 	bl	b1f0 <mpa_free_static_temp_var>
/home/rex/devel/optee/optee_os/lib/libmpa/mpa_gcd.c:259
    aa74:	9100e3a0 	add	x0, x29, #0x38
    aa78:	f9400ba1 	ldr	x1, [x29,#16]
    aa7c:	940001dd 	bl	b1f0 <mpa_free_static_temp_var>
/home/rex/devel/optee/optee_os/lib/libmpa/mpa_gcd.c:260
    aa80:	a8c57bfd 	ldp	x29, x30, [sp],#80
    aa84:	d65f03c0 	ret

000000000000aa88 <mpa_gcd>:
mpa_gcd():
/home/rex/devel/optee/optee_os/lib/libmpa/mpa_gcd.c:275
    aa88:	a9bc7bfd 	stp	x29, x30, [sp,#-64]!
    aa8c:	910003fd 	mov	x29, sp
    aa90:	f90017a0 	str	x0, [x29,#40]
    aa94:	f90013a1 	str	x1, [x29,#32]
    aa98:	f9000fa2 	str	x2, [x29,#24]
    aa9c:	f9000ba3 	str	x3, [x29,#16]
/home/rex/devel/optee/optee_os/lib/libmpa/mpa_gcd.c:281
    aaa0:	f94013a0 	ldr	x0, [x29,#32]
    aaa4:	b9400400 	ldr	w0, [x0,#4]
    aaa8:	7100001f 	cmp	w0, #0x0
    aaac:	5400006b 	b.lt	aab8 <mpa_gcd+0x30>
/home/rex/devel/optee/optee_os/lib/libmpa/mpa_gcd.c:281 (discriminator 1)
    aab0:	52800020 	mov	w0, #0x1                   	// #1
    aab4:	14000002 	b	aabc <mpa_gcd+0x34>
/home/rex/devel/optee/optee_os/lib/libmpa/mpa_gcd.c:281 (discriminator 2)
    aab8:	12800000 	mov	w0, #0xffffffff            	// #-1
/home/rex/devel/optee/optee_os/lib/libmpa/mpa_gcd.c:281 (discriminator 4)
    aabc:	b9003fa0 	str	w0, [x29,#60]
/home/rex/devel/optee/optee_os/lib/libmpa/mpa_gcd.c:282 (discriminator 4)
    aac0:	f9400fa0 	ldr	x0, [x29,#24]
    aac4:	b9400400 	ldr	w0, [x0,#4]
    aac8:	7100001f 	cmp	w0, #0x0
    aacc:	5400006b 	b.lt	aad8 <mpa_gcd+0x50>
/home/rex/devel/optee/optee_os/lib/libmpa/mpa_gcd.c:282 (discriminator 1)
    aad0:	52800020 	mov	w0, #0x1                   	// #1
    aad4:	14000002 	b	aadc <mpa_gcd+0x54>
/home/rex/devel/optee/optee_os/lib/libmpa/mpa_gcd.c:282 (discriminator 2)
    aad8:	12800000 	mov	w0, #0xffffffff            	// #-1
/home/rex/devel/optee/optee_os/lib/libmpa/mpa_gcd.c:282 (discriminator 4)
    aadc:	b9003ba0 	str	w0, [x29,#56]
/home/rex/devel/optee/optee_os/lib/libmpa/mpa_gcd.c:283 (discriminator 4)
    aae0:	f94013a0 	ldr	x0, [x29,#32]
    aae4:	b9400400 	ldr	w0, [x0,#4]
    aae8:	7100001f 	cmp	w0, #0x0
    aaec:	540000ca 	b.ge	ab04 <mpa_gcd+0x7c>
/home/rex/devel/optee/optee_os/lib/libmpa/mpa_gcd.c:283 (discriminator 1)
    aaf0:	f94013a0 	ldr	x0, [x29,#32]
    aaf4:	b9400400 	ldr	w0, [x0,#4]
    aaf8:	4b0003e1 	neg	w1, w0
    aafc:	f94013a0 	ldr	x0, [x29,#32]
    ab00:	b9000401 	str	w1, [x0,#4]
/home/rex/devel/optee/optee_os/lib/libmpa/mpa_gcd.c:284
    ab04:	f9400fa0 	ldr	x0, [x29,#24]
    ab08:	b9400400 	ldr	w0, [x0,#4]
    ab0c:	7100001f 	cmp	w0, #0x0
    ab10:	540000ca 	b.ge	ab28 <mpa_gcd+0xa0>
/home/rex/devel/optee/optee_os/lib/libmpa/mpa_gcd.c:284 (discriminator 1)
    ab14:	f9400fa0 	ldr	x0, [x29,#24]
    ab18:	b9400400 	ldr	w0, [x0,#4]
    ab1c:	4b0003e1 	neg	w1, w0
    ab20:	f9400fa0 	ldr	x0, [x29,#24]
    ab24:	b9000401 	str	w1, [x0,#4]
/home/rex/devel/optee/optee_os/lib/libmpa/mpa_gcd.c:286
    ab28:	f9400fa1 	ldr	x1, [x29,#24]
    ab2c:	f94013a0 	ldr	x0, [x29,#32]
    ab30:	94000ac8 	bl	d650 <mpa_cmp>
    ab34:	b90037a0 	str	w0, [x29,#52]
/home/rex/devel/optee/optee_os/lib/libmpa/mpa_gcd.c:287
    ab38:	b94037a0 	ldr	w0, [x29,#52]
    ab3c:	7100001f 	cmp	w0, #0x0
    ab40:	540000a1 	b.ne	ab54 <mpa_gcd+0xcc>
/home/rex/devel/optee/optee_os/lib/libmpa/mpa_gcd.c:288
    ab44:	f94013a1 	ldr	x1, [x29,#32]
    ab48:	f94017a0 	ldr	x0, [x29,#40]
    ab4c:	97fff613 	bl	8398 <mpa_copy>
/home/rex/devel/optee/optee_os/lib/libmpa/mpa_gcd.c:289
    ab50:	1400000f 	b	ab8c <mpa_gcd+0x104>
/home/rex/devel/optee/optee_os/lib/libmpa/mpa_gcd.c:291
    ab54:	b94037a0 	ldr	w0, [x29,#52]
    ab58:	7100001f 	cmp	w0, #0x0
    ab5c:	540000ea 	b.ge	ab78 <mpa_gcd+0xf0>
/home/rex/devel/optee/optee_os/lib/libmpa/mpa_gcd.c:292
    ab60:	f9400ba3 	ldr	x3, [x29,#16]
    ab64:	f94013a2 	ldr	x2, [x29,#32]
    ab68:	f9400fa1 	ldr	x1, [x29,#24]
    ab6c:	f94017a0 	ldr	x0, [x29,#40]
    ab70:	97ffff5a 	bl	a8d8 <__mpa_gcd>
    ab74:	14000006 	b	ab8c <mpa_gcd+0x104>
/home/rex/devel/optee/optee_os/lib/libmpa/mpa_gcd.c:294
    ab78:	f9400ba3 	ldr	x3, [x29,#16]
    ab7c:	f9400fa2 	ldr	x2, [x29,#24]
    ab80:	f94013a1 	ldr	x1, [x29,#32]
    ab84:	f94017a0 	ldr	x0, [x29,#40]
    ab88:	97ffff54 	bl	a8d8 <__mpa_gcd>
/home/rex/devel/optee/optee_os/lib/libmpa/mpa_gcd.c:299
    ab8c:	f94013a0 	ldr	x0, [x29,#32]
    ab90:	b9400400 	ldr	w0, [x0,#4]
    ab94:	7100001f 	cmp	w0, #0x0
    ab98:	5400006b 	b.lt	aba4 <mpa_gcd+0x11c>
/home/rex/devel/optee/optee_os/lib/libmpa/mpa_gcd.c:299 (discriminator 1)
    ab9c:	52800020 	mov	w0, #0x1                   	// #1
    aba0:	14000002 	b	aba8 <mpa_gcd+0x120>
/home/rex/devel/optee/optee_os/lib/libmpa/mpa_gcd.c:299 (discriminator 2)
    aba4:	12800000 	mov	w0, #0xffffffff            	// #-1
/home/rex/devel/optee/optee_os/lib/libmpa/mpa_gcd.c:299 (discriminator 4)
    aba8:	b9403fa1 	ldr	w1, [x29,#60]
    abac:	6b01001f 	cmp	w0, w1
    abb0:	540000c0 	b.eq	abc8 <mpa_gcd+0x140>
/home/rex/devel/optee/optee_os/lib/libmpa/mpa_gcd.c:299 (discriminator 5)
    abb4:	f94013a0 	ldr	x0, [x29,#32]
    abb8:	b9400400 	ldr	w0, [x0,#4]
    abbc:	4b0003e1 	neg	w1, w0
    abc0:	f94013a0 	ldr	x0, [x29,#32]
    abc4:	b9000401 	str	w1, [x0,#4]
/home/rex/devel/optee/optee_os/lib/libmpa/mpa_gcd.c:300
    abc8:	f9400fa0 	ldr	x0, [x29,#24]
    abcc:	b9400400 	ldr	w0, [x0,#4]
    abd0:	7100001f 	cmp	w0, #0x0
    abd4:	5400006b 	b.lt	abe0 <mpa_gcd+0x158>
/home/rex/devel/optee/optee_os/lib/libmpa/mpa_gcd.c:300 (discriminator 1)
    abd8:	52800020 	mov	w0, #0x1                   	// #1
    abdc:	14000002 	b	abe4 <mpa_gcd+0x15c>
/home/rex/devel/optee/optee_os/lib/libmpa/mpa_gcd.c:300 (discriminator 2)
    abe0:	12800000 	mov	w0, #0xffffffff            	// #-1
/home/rex/devel/optee/optee_os/lib/libmpa/mpa_gcd.c:300 (discriminator 4)
    abe4:	b9403ba1 	ldr	w1, [x29,#56]
    abe8:	6b01001f 	cmp	w0, w1
    abec:	540000c0 	b.eq	ac04 <mpa_gcd+0x17c>
/home/rex/devel/optee/optee_os/lib/libmpa/mpa_gcd.c:300 (discriminator 5)
    abf0:	f9400fa0 	ldr	x0, [x29,#24]
    abf4:	b9400400 	ldr	w0, [x0,#4]
    abf8:	4b0003e1 	neg	w1, w0
    abfc:	f9400fa0 	ldr	x0, [x29,#24]
    ac00:	b9000401 	str	w1, [x0,#4]
/home/rex/devel/optee/optee_os/lib/libmpa/mpa_gcd.c:301
    ac04:	d503201f 	nop
    ac08:	a8c47bfd 	ldp	x29, x30, [sp],#64
    ac0c:	d65f03c0 	ret

000000000000ac10 <mpa_extended_gcd>:
mpa_extended_gcd():
/home/rex/devel/optee/optee_os/lib/libmpa/mpa_gcd.c:317
    ac10:	a9ba7bfd 	stp	x29, x30, [sp,#-96]!
    ac14:	910003fd 	mov	x29, sp
    ac18:	f9001fa0 	str	x0, [x29,#56]
    ac1c:	f9001ba1 	str	x1, [x29,#48]
    ac20:	f90017a2 	str	x2, [x29,#40]
    ac24:	f90013a3 	str	x3, [x29,#32]
    ac28:	f9000fa4 	str	x4, [x29,#24]
    ac2c:	f9000ba5 	str	x5, [x29,#16]
/home/rex/devel/optee/optee_os/lib/libmpa/mpa_gcd.c:324
    ac30:	f9401ba0 	ldr	x0, [x29,#48]
    ac34:	f100001f 	cmp	x0, #0x0
    ac38:	540001a1 	b.ne	ac6c <mpa_extended_gcd+0x5c>
/home/rex/devel/optee/optee_os/lib/libmpa/mpa_gcd.c:324 (discriminator 1)
    ac3c:	f94017a0 	ldr	x0, [x29,#40]
    ac40:	f100001f 	cmp	x0, #0x0
    ac44:	54000141 	b.ne	ac6c <mpa_extended_gcd+0x5c>
/home/rex/devel/optee/optee_os/lib/libmpa/mpa_gcd.c:325
    ac48:	f9401fa0 	ldr	x0, [x29,#56]
    ac4c:	f100001f 	cmp	x0, #0x0
    ac50:	54001620 	b.eq	af14 <mpa_extended_gcd+0x304>
/home/rex/devel/optee/optee_os/lib/libmpa/mpa_gcd.c:326
    ac54:	f9400ba3 	ldr	x3, [x29,#16]
    ac58:	f9400fa2 	ldr	x2, [x29,#24]
    ac5c:	f94013a1 	ldr	x1, [x29,#32]
    ac60:	f9401fa0 	ldr	x0, [x29,#56]
    ac64:	97ffff89 	bl	aa88 <mpa_gcd>
    ac68:	140000ac 	b	af18 <mpa_extended_gcd+0x308>
/home/rex/devel/optee/optee_os/lib/libmpa/mpa_gcd.c:331
    ac6c:	f94013a0 	ldr	x0, [x29,#32]
    ac70:	b9400400 	ldr	w0, [x0,#4]
    ac74:	7100001f 	cmp	w0, #0x0
    ac78:	5400006b 	b.lt	ac84 <mpa_extended_gcd+0x74>
/home/rex/devel/optee/optee_os/lib/libmpa/mpa_gcd.c:331 (discriminator 1)
    ac7c:	52800020 	mov	w0, #0x1                   	// #1
    ac80:	14000002 	b	ac88 <mpa_extended_gcd+0x78>
/home/rex/devel/optee/optee_os/lib/libmpa/mpa_gcd.c:331 (discriminator 2)
    ac84:	12800000 	mov	w0, #0xffffffff            	// #-1
/home/rex/devel/optee/optee_os/lib/libmpa/mpa_gcd.c:331 (discriminator 4)
    ac88:	b9005fa0 	str	w0, [x29,#92]
/home/rex/devel/optee/optee_os/lib/libmpa/mpa_gcd.c:332 (discriminator 4)
    ac8c:	f9400fa0 	ldr	x0, [x29,#24]
    ac90:	b9400400 	ldr	w0, [x0,#4]
    ac94:	7100001f 	cmp	w0, #0x0
    ac98:	5400006b 	b.lt	aca4 <mpa_extended_gcd+0x94>
/home/rex/devel/optee/optee_os/lib/libmpa/mpa_gcd.c:332 (discriminator 1)
    ac9c:	52800020 	mov	w0, #0x1                   	// #1
    aca0:	14000002 	b	aca8 <mpa_extended_gcd+0x98>
/home/rex/devel/optee/optee_os/lib/libmpa/mpa_gcd.c:332 (discriminator 2)
    aca4:	12800000 	mov	w0, #0xffffffff            	// #-1
/home/rex/devel/optee/optee_os/lib/libmpa/mpa_gcd.c:332 (discriminator 4)
    aca8:	b9005ba0 	str	w0, [x29,#88]
/home/rex/devel/optee/optee_os/lib/libmpa/mpa_gcd.c:333 (discriminator 4)
    acac:	f94013a0 	ldr	x0, [x29,#32]
    acb0:	b9400400 	ldr	w0, [x0,#4]
    acb4:	7100001f 	cmp	w0, #0x0
    acb8:	540000ca 	b.ge	acd0 <mpa_extended_gcd+0xc0>
/home/rex/devel/optee/optee_os/lib/libmpa/mpa_gcd.c:333 (discriminator 1)
    acbc:	f94013a0 	ldr	x0, [x29,#32]
    acc0:	b9400400 	ldr	w0, [x0,#4]
    acc4:	4b0003e1 	neg	w1, w0
    acc8:	f94013a0 	ldr	x0, [x29,#32]
    accc:	b9000401 	str	w1, [x0,#4]
/home/rex/devel/optee/optee_os/lib/libmpa/mpa_gcd.c:334
    acd0:	f9400fa0 	ldr	x0, [x29,#24]
    acd4:	b9400400 	ldr	w0, [x0,#4]
    acd8:	7100001f 	cmp	w0, #0x0
    acdc:	540000ca 	b.ge	acf4 <mpa_extended_gcd+0xe4>
/home/rex/devel/optee/optee_os/lib/libmpa/mpa_gcd.c:334 (discriminator 1)
    ace0:	f9400fa0 	ldr	x0, [x29,#24]
    ace4:	b9400400 	ldr	w0, [x0,#4]
    ace8:	4b0003e1 	neg	w1, w0
    acec:	f9400fa0 	ldr	x0, [x29,#24]
    acf0:	b9000401 	str	w1, [x0,#4]
/home/rex/devel/optee/optee_os/lib/libmpa/mpa_gcd.c:336
    acf4:	f9400fa1 	ldr	x1, [x29,#24]
    acf8:	f94013a0 	ldr	x0, [x29,#32]
    acfc:	94000a55 	bl	d650 <mpa_cmp>
    ad00:	b90057a0 	str	w0, [x29,#84]
/home/rex/devel/optee/optee_os/lib/libmpa/mpa_gcd.c:337
    ad04:	b94057a0 	ldr	w0, [x29,#84]
    ad08:	7100001f 	cmp	w0, #0x0
    ad0c:	54000281 	b.ne	ad5c <mpa_extended_gcd+0x14c>
/home/rex/devel/optee/optee_os/lib/libmpa/mpa_gcd.c:338
    ad10:	f9401fa0 	ldr	x0, [x29,#56]
    ad14:	f100001f 	cmp	x0, #0x0
    ad18:	54000080 	b.eq	ad28 <mpa_extended_gcd+0x118>
/home/rex/devel/optee/optee_os/lib/libmpa/mpa_gcd.c:339
    ad1c:	f94013a1 	ldr	x1, [x29,#32]
    ad20:	f9401fa0 	ldr	x0, [x29,#56]
    ad24:	97fff59d 	bl	8398 <mpa_copy>
/home/rex/devel/optee/optee_os/lib/libmpa/mpa_gcd.c:340
    ad28:	f9401ba0 	ldr	x0, [x29,#48]
    ad2c:	f100001f 	cmp	x0, #0x0
    ad30:	54000080 	b.eq	ad40 <mpa_extended_gcd+0x130>
/home/rex/devel/optee/optee_os/lib/libmpa/mpa_gcd.c:341
    ad34:	52800021 	mov	w1, #0x1                   	// #1
    ad38:	f9401ba0 	ldr	x0, [x29,#48]
    ad3c:	97fff97f 	bl	9338 <mpa_set_word>
/home/rex/devel/optee/optee_os/lib/libmpa/mpa_gcd.c:342
    ad40:	f94017a0 	ldr	x0, [x29,#40]
    ad44:	f100001f 	cmp	x0, #0x0
    ad48:	540007a0 	b.eq	ae3c <mpa_extended_gcd+0x22c>
/home/rex/devel/optee/optee_os/lib/libmpa/mpa_gcd.c:343
    ad4c:	52800001 	mov	w1, #0x0                   	// #0
    ad50:	f94017a0 	ldr	x0, [x29,#40]
    ad54:	97fff979 	bl	9338 <mpa_set_word>
/home/rex/devel/optee/optee_os/lib/libmpa/mpa_gcd.c:344
    ad58:	14000039 	b	ae3c <mpa_extended_gcd+0x22c>
/home/rex/devel/optee/optee_os/lib/libmpa/mpa_gcd.c:347
    ad5c:	f9401fa0 	ldr	x0, [x29,#56]
    ad60:	f100001f 	cmp	x0, #0x0
    ad64:	54000120 	b.eq	ad88 <mpa_extended_gcd+0x178>
/home/rex/devel/optee/optee_os/lib/libmpa/mpa_gcd.c:347 (discriminator 2)
    ad68:	f9401fa1 	ldr	x1, [x29,#56]
    ad6c:	f94013a0 	ldr	x0, [x29,#32]
    ad70:	eb00003f 	cmp	x1, x0
    ad74:	540000a0 	b.eq	ad88 <mpa_extended_gcd+0x178>
/home/rex/devel/optee/optee_os/lib/libmpa/mpa_gcd.c:347 (discriminator 4)
    ad78:	f9401fa1 	ldr	x1, [x29,#56]
    ad7c:	f9400fa0 	ldr	x0, [x29,#24]
    ad80:	eb00003f 	cmp	x1, x0
    ad84:	54000061 	b.ne	ad90 <mpa_extended_gcd+0x180>
/home/rex/devel/optee/optee_os/lib/libmpa/mpa_gcd.c:347 (discriminator 5)
    ad88:	52800020 	mov	w0, #0x1                   	// #1
    ad8c:	14000002 	b	ad94 <mpa_extended_gcd+0x184>
/home/rex/devel/optee/optee_os/lib/libmpa/mpa_gcd.c:347 (discriminator 6)
    ad90:	52800000 	mov	w0, #0x0                   	// #0
/home/rex/devel/optee/optee_os/lib/libmpa/mpa_gcd.c:347 (discriminator 8)
    ad94:	b90053a0 	str	w0, [x29,#80]
/home/rex/devel/optee/optee_os/lib/libmpa/mpa_gcd.c:348 (discriminator 8)
    ad98:	b94053a0 	ldr	w0, [x29,#80]
    ad9c:	7100001f 	cmp	w0, #0x0
    ada0:	540000a0 	b.eq	adb4 <mpa_extended_gcd+0x1a4>
/home/rex/devel/optee/optee_os/lib/libmpa/mpa_gcd.c:349
    ada4:	910123a0 	add	x0, x29, #0x48
    ada8:	f9400ba1 	ldr	x1, [x29,#16]
    adac:	94000106 	bl	b1c4 <mpa_alloc_static_temp_var>
    adb0:	14000003 	b	adbc <mpa_extended_gcd+0x1ac>
/home/rex/devel/optee/optee_os/lib/libmpa/mpa_gcd.c:351
    adb4:	f9401fa0 	ldr	x0, [x29,#56]
    adb8:	f90027a0 	str	x0, [x29,#72]
/home/rex/devel/optee/optee_os/lib/libmpa/mpa_gcd.c:353
    adbc:	b94057a0 	ldr	w0, [x29,#84]
    adc0:	7100001f 	cmp	w0, #0x0
    adc4:	5400012a 	b.ge	ade8 <mpa_extended_gcd+0x1d8>
/home/rex/devel/optee/optee_os/lib/libmpa/mpa_gcd.c:354
    adc8:	f94027a0 	ldr	x0, [x29,#72]
    adcc:	f9400ba5 	ldr	x5, [x29,#16]
    add0:	f94013a4 	ldr	x4, [x29,#32]
    add4:	f9400fa3 	ldr	x3, [x29,#24]
    add8:	f9401ba2 	ldr	x2, [x29,#48]
    addc:	f94017a1 	ldr	x1, [x29,#40]
    ade0:	97fffdd7 	bl	a53c <__mpa_egcd>
    ade4:	14000008 	b	ae04 <mpa_extended_gcd+0x1f4>
/home/rex/devel/optee/optee_os/lib/libmpa/mpa_gcd.c:356
    ade8:	f94027a0 	ldr	x0, [x29,#72]
    adec:	f9400ba5 	ldr	x5, [x29,#16]
    adf0:	f9400fa4 	ldr	x4, [x29,#24]
    adf4:	f94013a3 	ldr	x3, [x29,#32]
    adf8:	f94017a2 	ldr	x2, [x29,#40]
    adfc:	f9401ba1 	ldr	x1, [x29,#48]
    ae00:	97fffdcf 	bl	a53c <__mpa_egcd>
/home/rex/devel/optee/optee_os/lib/libmpa/mpa_gcd.c:358
    ae04:	f9401fa0 	ldr	x0, [x29,#56]
    ae08:	f100001f 	cmp	x0, #0x0
    ae0c:	540000a0 	b.eq	ae20 <mpa_extended_gcd+0x210>
/home/rex/devel/optee/optee_os/lib/libmpa/mpa_gcd.c:359
    ae10:	f94027a0 	ldr	x0, [x29,#72]
    ae14:	aa0003e1 	mov	x1, x0
    ae18:	f9401fa0 	ldr	x0, [x29,#56]
    ae1c:	97fff55f 	bl	8398 <mpa_copy>
/home/rex/devel/optee/optee_os/lib/libmpa/mpa_gcd.c:360
    ae20:	b94053a0 	ldr	w0, [x29,#80]
    ae24:	7100001f 	cmp	w0, #0x0
    ae28:	540000c0 	b.eq	ae40 <mpa_extended_gcd+0x230>
/home/rex/devel/optee/optee_os/lib/libmpa/mpa_gcd.c:361
    ae2c:	910123a0 	add	x0, x29, #0x48
    ae30:	f9400ba1 	ldr	x1, [x29,#16]
    ae34:	940000ef 	bl	b1f0 <mpa_free_static_temp_var>
    ae38:	14000002 	b	ae40 <mpa_extended_gcd+0x230>
/home/rex/devel/optee/optee_os/lib/libmpa/mpa_gcd.c:344
    ae3c:	d503201f 	nop
/home/rex/devel/optee/optee_os/lib/libmpa/mpa_gcd.c:365
    ae40:	f94013a0 	ldr	x0, [x29,#32]
    ae44:	b9400400 	ldr	w0, [x0,#4]
    ae48:	7100001f 	cmp	w0, #0x0
    ae4c:	5400006b 	b.lt	ae58 <mpa_extended_gcd+0x248>
/home/rex/devel/optee/optee_os/lib/libmpa/mpa_gcd.c:365 (discriminator 1)
    ae50:	52800020 	mov	w0, #0x1                   	// #1
    ae54:	14000002 	b	ae5c <mpa_extended_gcd+0x24c>
/home/rex/devel/optee/optee_os/lib/libmpa/mpa_gcd.c:365 (discriminator 2)
    ae58:	12800000 	mov	w0, #0xffffffff            	// #-1
/home/rex/devel/optee/optee_os/lib/libmpa/mpa_gcd.c:365 (discriminator 4)
    ae5c:	b9405fa1 	ldr	w1, [x29,#92]
    ae60:	6b01001f 	cmp	w0, w1
    ae64:	540000c0 	b.eq	ae7c <mpa_extended_gcd+0x26c>
/home/rex/devel/optee/optee_os/lib/libmpa/mpa_gcd.c:365 (discriminator 5)
    ae68:	f94013a0 	ldr	x0, [x29,#32]
    ae6c:	b9400400 	ldr	w0, [x0,#4]
    ae70:	4b0003e1 	neg	w1, w0
    ae74:	f94013a0 	ldr	x0, [x29,#32]
    ae78:	b9000401 	str	w1, [x0,#4]
/home/rex/devel/optee/optee_os/lib/libmpa/mpa_gcd.c:366
    ae7c:	f9400fa0 	ldr	x0, [x29,#24]
    ae80:	b9400400 	ldr	w0, [x0,#4]
    ae84:	7100001f 	cmp	w0, #0x0
    ae88:	5400006b 	b.lt	ae94 <mpa_extended_gcd+0x284>
/home/rex/devel/optee/optee_os/lib/libmpa/mpa_gcd.c:366 (discriminator 1)
    ae8c:	52800020 	mov	w0, #0x1                   	// #1
    ae90:	14000002 	b	ae98 <mpa_extended_gcd+0x288>
/home/rex/devel/optee/optee_os/lib/libmpa/mpa_gcd.c:366 (discriminator 2)
    ae94:	12800000 	mov	w0, #0xffffffff            	// #-1
/home/rex/devel/optee/optee_os/lib/libmpa/mpa_gcd.c:366 (discriminator 4)
    ae98:	b9405ba1 	ldr	w1, [x29,#88]
    ae9c:	6b01001f 	cmp	w0, w1
    aea0:	540000c0 	b.eq	aeb8 <mpa_extended_gcd+0x2a8>
/home/rex/devel/optee/optee_os/lib/libmpa/mpa_gcd.c:366 (discriminator 5)
    aea4:	f9400fa0 	ldr	x0, [x29,#24]
    aea8:	b9400400 	ldr	w0, [x0,#4]
    aeac:	4b0003e1 	neg	w1, w0
    aeb0:	f9400fa0 	ldr	x0, [x29,#24]
    aeb4:	b9000401 	str	w1, [x0,#4]
/home/rex/devel/optee/optee_os/lib/libmpa/mpa_gcd.c:368
    aeb8:	b9405fa0 	ldr	w0, [x29,#92]
    aebc:	3100041f 	cmn	w0, #0x1
    aec0:	54000121 	b.ne	aee4 <mpa_extended_gcd+0x2d4>
/home/rex/devel/optee/optee_os/lib/libmpa/mpa_gcd.c:368 (discriminator 1)
    aec4:	f9401ba0 	ldr	x0, [x29,#48]
    aec8:	f100001f 	cmp	x0, #0x0
    aecc:	540000c0 	b.eq	aee4 <mpa_extended_gcd+0x2d4>
/home/rex/devel/optee/optee_os/lib/libmpa/mpa_gcd.c:369
    aed0:	f9401ba0 	ldr	x0, [x29,#48]
    aed4:	b9400400 	ldr	w0, [x0,#4]
    aed8:	4b0003e1 	neg	w1, w0
    aedc:	f9401ba0 	ldr	x0, [x29,#48]
    aee0:	b9000401 	str	w1, [x0,#4]
/home/rex/devel/optee/optee_os/lib/libmpa/mpa_gcd.c:370
    aee4:	b9405ba0 	ldr	w0, [x29,#88]
    aee8:	3100041f 	cmn	w0, #0x1
    aeec:	54000161 	b.ne	af18 <mpa_extended_gcd+0x308>
/home/rex/devel/optee/optee_os/lib/libmpa/mpa_gcd.c:370 (discriminator 1)
    aef0:	f94017a0 	ldr	x0, [x29,#40]
    aef4:	f100001f 	cmp	x0, #0x0
    aef8:	54000100 	b.eq	af18 <mpa_extended_gcd+0x308>
/home/rex/devel/optee/optee_os/lib/libmpa/mpa_gcd.c:371
    aefc:	f94017a0 	ldr	x0, [x29,#40]
    af00:	b9400400 	ldr	w0, [x0,#4]
    af04:	4b0003e1 	neg	w1, w0
    af08:	f94017a0 	ldr	x0, [x29,#40]
    af0c:	b9000401 	str	w1, [x0,#4]
    af10:	14000002 	b	af18 <mpa_extended_gcd+0x308>
/home/rex/devel/optee/optee_os/lib/libmpa/mpa_gcd.c:327
    af14:	d503201f 	nop
/home/rex/devel/optee/optee_os/lib/libmpa/mpa_gcd.c:372
    af18:	a8c67bfd 	ldp	x29, x30, [sp],#96
    af1c:	d65f03c0 	ret

000000000000af20 <mpa_init_scratch_mem_sync>:
mpa_init_scratch_mem_sync():
/home/rex/devel/optee/optee_os/lib/libmpa/mpa_mem_static.c:38
    af20:	d100c3ff 	sub	sp, sp, #0x30
    af24:	f90017e0 	str	x0, [sp,#40]
    af28:	f90013e1 	str	x1, [sp,#32]
    af2c:	b9001fe2 	str	w2, [sp,#28]
    af30:	f9000be3 	str	x3, [sp,#16]
    af34:	f90007e4 	str	x4, [sp,#8]
    af38:	f90003e5 	str	x5, [sp]
/home/rex/devel/optee/optee_os/lib/libmpa/mpa_mem_static.c:39
    af3c:	f94013e0 	ldr	x0, [sp,#32]
    af40:	2a0003e1 	mov	w1, w0
    af44:	f94017e0 	ldr	x0, [sp,#40]
    af48:	b9000001 	str	w1, [x0]
/home/rex/devel/optee/optee_os/lib/libmpa/mpa_mem_static.c:40
    af4c:	f94017e0 	ldr	x0, [sp,#40]
    af50:	b900081f 	str	wzr, [x0,#8]
/home/rex/devel/optee/optee_os/lib/libmpa/mpa_mem_static.c:41
    af54:	b9401fe0 	ldr	w0, [sp,#28]
    af58:	531f7801 	lsl	w1, w0, #1
    af5c:	f94017e0 	ldr	x0, [sp,#40]
    af60:	b9000401 	str	w1, [x0,#4]
/home/rex/devel/optee/optee_os/lib/libmpa/mpa_mem_static.c:42
    af64:	f94017e0 	ldr	x0, [sp,#40]
    af68:	f9400be1 	ldr	x1, [sp,#16]
    af6c:	f9000801 	str	x1, [x0,#16]
/home/rex/devel/optee/optee_os/lib/libmpa/mpa_mem_static.c:43
    af70:	f94017e0 	ldr	x0, [sp,#40]
    af74:	f94007e1 	ldr	x1, [sp,#8]
    af78:	f9000c01 	str	x1, [x0,#24]
/home/rex/devel/optee/optee_os/lib/libmpa/mpa_mem_static.c:44
    af7c:	f94017e0 	ldr	x0, [sp,#40]
    af80:	f94003e1 	ldr	x1, [sp]
    af84:	f9001001 	str	x1, [x0,#32]
/home/rex/devel/optee/optee_os/lib/libmpa/mpa_mem_static.c:45
    af88:	d503201f 	nop
    af8c:	9100c3ff 	add	sp, sp, #0x30
    af90:	d65f03c0 	ret

000000000000af94 <mpa_init_scratch_mem>:
mpa_init_scratch_mem():
/home/rex/devel/optee/optee_os/lib/libmpa/mpa_mem_static.c:48
    af94:	a9bd7bfd 	stp	x29, x30, [sp,#-48]!
    af98:	910003fd 	mov	x29, sp
    af9c:	f90017a0 	str	x0, [x29,#40]
    afa0:	f90013a1 	str	x1, [x29,#32]
    afa4:	b9001fa2 	str	w2, [x29,#28]
/home/rex/devel/optee/optee_os/lib/libmpa/mpa_mem_static.c:49
    afa8:	d2800005 	mov	x5, #0x0                   	// #0
    afac:	d2800004 	mov	x4, #0x0                   	// #0
    afb0:	d2800003 	mov	x3, #0x0                   	// #0
    afb4:	b9401fa2 	ldr	w2, [x29,#28]
    afb8:	f94013a1 	ldr	x1, [x29,#32]
    afbc:	f94017a0 	ldr	x0, [x29,#40]
    afc0:	97ffffd8 	bl	af20 <mpa_init_scratch_mem_sync>
/home/rex/devel/optee/optee_os/lib/libmpa/mpa_mem_static.c:50
    afc4:	d503201f 	nop
    afc8:	a8c37bfd 	ldp	x29, x30, [sp],#48
    afcc:	d65f03c0 	ret

000000000000afd0 <mpa_alloc_static_temp_var_size>:
mpa_alloc_static_temp_var_size():
/home/rex/devel/optee/optee_os/lib/libmpa/mpa_mem_static.c:89
    afd0:	a9bb7bfd 	stp	x29, x30, [sp,#-80]!
    afd4:	910003fd 	mov	x29, sp
    afd8:	b9002fa0 	str	w0, [x29,#44]
    afdc:	f90013a1 	str	x1, [x29,#32]
    afe0:	f9000fa2 	str	x2, [x29,#24]
/home/rex/devel/optee/optee_os/lib/libmpa/mpa_mem_static.c:93
    afe4:	f90023bf 	str	xzr, [x29,#64]
/home/rex/devel/optee/optee_os/lib/libmpa/mpa_mem_static.c:95
    afe8:	f9400fa0 	ldr	x0, [x29,#24]
    afec:	f9400800 	ldr	x0, [x0,#16]
    aff0:	f100001f 	cmp	x0, #0x0
    aff4:	540000c0 	b.eq	b00c <mpa_alloc_static_temp_var_size+0x3c>
/home/rex/devel/optee/optee_os/lib/libmpa/mpa_mem_static.c:96
    aff8:	f9400fa0 	ldr	x0, [x29,#24]
    affc:	f9400801 	ldr	x1, [x0,#16]
    b000:	f9400fa0 	ldr	x0, [x29,#24]
    b004:	f9401000 	ldr	x0, [x0,#32]
    b008:	d63f0020 	blr	x1
/home/rex/devel/optee/optee_os/lib/libmpa/mpa_mem_static.c:98
    b00c:	f9400fa0 	ldr	x0, [x29,#24]
    b010:	b9400800 	ldr	w0, [x0,#8]
    b014:	7100001f 	cmp	w0, #0x0
    b018:	54000081 	b.ne	b028 <mpa_alloc_static_temp_var_size+0x58>
/home/rex/devel/optee/optee_os/lib/libmpa/mpa_mem_static.c:99
    b01c:	52800500 	mov	w0, #0x28                  	// #40
    b020:	b9004fa0 	str	w0, [x29,#76]
    b024:	1400000d 	b	b058 <mpa_alloc_static_temp_var_size+0x88>
/home/rex/devel/optee/optee_os/lib/libmpa/mpa_mem_static.c:101
    b028:	f9400fa0 	ldr	x0, [x29,#24]
    b02c:	b9400800 	ldr	w0, [x0,#8]
    b030:	b9004fa0 	str	w0, [x29,#76]
/home/rex/devel/optee/optee_os/lib/libmpa/mpa_mem_static.c:103
    b034:	b9404fa1 	ldr	w1, [x29,#76]
    b038:	f9400fa0 	ldr	x0, [x29,#24]
    b03c:	8b000020 	add	x0, x1, x0
/home/rex/devel/optee/optee_os/lib/libmpa/mpa_mem_static.c:102
    b040:	f90023a0 	str	x0, [x29,#64]
/home/rex/devel/optee/optee_os/lib/libmpa/mpa_mem_static.c:104
    b044:	f94023a0 	ldr	x0, [x29,#64]
    b048:	b9400000 	ldr	w0, [x0]
    b04c:	b9404fa1 	ldr	w1, [x29,#76]
    b050:	0b000020 	add	w0, w1, w0
    b054:	b9004fa0 	str	w0, [x29,#76]
/home/rex/devel/optee/optee_os/lib/libmpa/mpa_mem_static.c:107
    b058:	b9404fa0 	ldr	w0, [x29,#76]
    b05c:	11000c00 	add	w0, w0, #0x3
    b060:	121e7400 	and	w0, w0, #0xfffffffc
    b064:	b9004fa0 	str	w0, [x29,#76]
/home/rex/devel/optee/optee_os/lib/libmpa/mpa_mem_static.c:108
    b068:	f9400fa0 	ldr	x0, [x29,#24]
    b06c:	b9400001 	ldr	w1, [x0]
    b070:	b9404fa0 	ldr	w0, [x29,#76]
    b074:	6b00003f 	cmp	w1, w0
    b078:	54000843 	b.cc	b180 <mpa_alloc_static_temp_var_size+0x1b0>
/home/rex/devel/optee/optee_os/lib/libmpa/mpa_mem_static.c:112
    b07c:	b9402fa0 	ldr	w0, [x29,#44]
    b080:	11007c00 	add	w0, w0, #0x1f
    b084:	11007c01 	add	w1, w0, #0x1f
    b088:	7100001f 	cmp	w0, #0x0
    b08c:	1a80b020 	csel	w0, w1, w0, lt
    b090:	13057c00 	asr	w0, w0, #5
    b094:	11000800 	add	w0, w0, #0x2
    b098:	93407c00 	sxtw	x0, w0
/home/rex/devel/optee/optee_os/lib/libmpa/mpa_mem_static.c:111
    b09c:	91000c00 	add	x0, x0, #0x3
    b0a0:	d37ef400 	lsl	x0, x0, #2
    b0a4:	f9001fa0 	str	x0, [x29,#56]
/home/rex/devel/optee/optee_os/lib/libmpa/mpa_mem_static.c:113
    b0a8:	f9401fa0 	ldr	x0, [x29,#56]
    b0ac:	91000c00 	add	x0, x0, #0x3
    b0b0:	927ef400 	and	x0, x0, #0xfffffffffffffffc
    b0b4:	f9001fa0 	str	x0, [x29,#56]
/home/rex/devel/optee/optee_os/lib/libmpa/mpa_mem_static.c:114
    b0b8:	b9404fa1 	ldr	w1, [x29,#76]
    b0bc:	f9401fa0 	ldr	x0, [x29,#56]
    b0c0:	8b000021 	add	x1, x1, x0
    b0c4:	f9400fa0 	ldr	x0, [x29,#24]
    b0c8:	b9400000 	ldr	w0, [x0]
    b0cc:	2a0003e0 	mov	w0, w0
    b0d0:	eb00003f 	cmp	x1, x0
    b0d4:	540005a8 	b.hi	b188 <mpa_alloc_static_temp_var_size+0x1b8>
/home/rex/devel/optee/optee_os/lib/libmpa/mpa_mem_static.c:117
    b0d8:	b9404fa1 	ldr	w1, [x29,#76]
    b0dc:	f9400fa0 	ldr	x0, [x29,#24]
    b0e0:	8b000020 	add	x0, x1, x0
    b0e4:	f9001ba0 	str	x0, [x29,#48]
/home/rex/devel/optee/optee_os/lib/libmpa/mpa_mem_static.c:118
    b0e8:	f9401fa0 	ldr	x0, [x29,#56]
    b0ec:	2a0003e1 	mov	w1, w0
    b0f0:	f9401ba0 	ldr	x0, [x29,#48]
    b0f4:	b9000001 	str	w1, [x0]
/home/rex/devel/optee/optee_os/lib/libmpa/mpa_mem_static.c:119
    b0f8:	f9400fa0 	ldr	x0, [x29,#24]
    b0fc:	b9400801 	ldr	w1, [x0,#8]
    b100:	f9401ba0 	ldr	x0, [x29,#48]
    b104:	b9000401 	str	w1, [x0,#4]
/home/rex/devel/optee/optee_os/lib/libmpa/mpa_mem_static.c:120
    b108:	f94023a0 	ldr	x0, [x29,#64]
    b10c:	f100001f 	cmp	x0, #0x0
    b110:	54000080 	b.eq	b120 <mpa_alloc_static_temp_var_size+0x150>
/home/rex/devel/optee/optee_os/lib/libmpa/mpa_mem_static.c:121
    b114:	f94023a0 	ldr	x0, [x29,#64]
    b118:	b9404fa1 	ldr	w1, [x29,#76]
    b11c:	b9000801 	str	w1, [x0,#8]
/home/rex/devel/optee/optee_os/lib/libmpa/mpa_mem_static.c:122
    b120:	f9401ba0 	ldr	x0, [x29,#48]
    b124:	b900081f 	str	wzr, [x0,#8]
/home/rex/devel/optee/optee_os/lib/libmpa/mpa_mem_static.c:123
    b128:	f9400fa0 	ldr	x0, [x29,#24]
    b12c:	b9404fa1 	ldr	w1, [x29,#76]
    b130:	b9000801 	str	w1, [x0,#8]
/home/rex/devel/optee/optee_os/lib/libmpa/mpa_mem_static.c:125
    b134:	f9401ba0 	ldr	x0, [x29,#48]
    b138:	91003001 	add	x1, x0, #0xc
    b13c:	f94013a0 	ldr	x0, [x29,#32]
    b140:	f9000001 	str	x1, [x0]
/home/rex/devel/optee/optee_os/lib/libmpa/mpa_mem_static.c:126
    b144:	f94013a0 	ldr	x0, [x29,#32]
    b148:	f9400002 	ldr	x2, [x0]
    b14c:	b9402fa0 	ldr	w0, [x29,#44]
    b150:	11007c00 	add	w0, w0, #0x1f
    b154:	11007c01 	add	w1, w0, #0x1f
    b158:	7100001f 	cmp	w0, #0x0
    b15c:	1a80b020 	csel	w0, w1, w0, lt
    b160:	13057c00 	asr	w0, w0, #5
    b164:	11000800 	add	w0, w0, #0x2
    b168:	2a0003e1 	mov	w1, w0
    b16c:	aa0203e0 	mov	x0, x2
    b170:	94000a45 	bl	da84 <mpa_init_static>
/home/rex/devel/optee/optee_os/lib/libmpa/mpa_mem_static.c:127
    b174:	f94013a0 	ldr	x0, [x29,#32]
    b178:	f9400000 	ldr	x0, [x0]
    b17c:	14000010 	b	b1bc <mpa_alloc_static_temp_var_size+0x1ec>
/home/rex/devel/optee/optee_os/lib/libmpa/mpa_mem_static.c:109
    b180:	d503201f 	nop
    b184:	14000002 	b	b18c <mpa_alloc_static_temp_var_size+0x1bc>
/home/rex/devel/optee/optee_os/lib/libmpa/mpa_mem_static.c:115
    b188:	d503201f 	nop
/home/rex/devel/optee/optee_os/lib/libmpa/mpa_mem_static.c:130
    b18c:	f94013a0 	ldr	x0, [x29,#32]
    b190:	f900001f 	str	xzr, [x0]
/home/rex/devel/optee/optee_os/lib/libmpa/mpa_mem_static.c:131
    b194:	f9400fa0 	ldr	x0, [x29,#24]
    b198:	f9400c00 	ldr	x0, [x0,#24]
    b19c:	f100001f 	cmp	x0, #0x0
    b1a0:	540000c0 	b.eq	b1b8 <mpa_alloc_static_temp_var_size+0x1e8>
/home/rex/devel/optee/optee_os/lib/libmpa/mpa_mem_static.c:132
    b1a4:	f9400fa0 	ldr	x0, [x29,#24]
    b1a8:	f9400c01 	ldr	x1, [x0,#24]
    b1ac:	f9400fa0 	ldr	x0, [x29,#24]
    b1b0:	f9401000 	ldr	x0, [x0,#32]
    b1b4:	d63f0020 	blr	x1
/home/rex/devel/optee/optee_os/lib/libmpa/mpa_mem_static.c:133
    b1b8:	d2800000 	mov	x0, #0x0                   	// #0
/home/rex/devel/optee/optee_os/lib/libmpa/mpa_mem_static.c:134
    b1bc:	a8c57bfd 	ldp	x29, x30, [sp],#80
    b1c0:	d65f03c0 	ret

000000000000b1c4 <mpa_alloc_static_temp_var>:
mpa_alloc_static_temp_var():
/home/rex/devel/optee/optee_os/lib/libmpa/mpa_mem_static.c:138
    b1c4:	a9be7bfd 	stp	x29, x30, [sp,#-32]!
    b1c8:	910003fd 	mov	x29, sp
    b1cc:	f9000fa0 	str	x0, [x29,#24]
    b1d0:	f9000ba1 	str	x1, [x29,#16]
/home/rex/devel/optee/optee_os/lib/libmpa/mpa_mem_static.c:139
    b1d4:	f9400ba0 	ldr	x0, [x29,#16]
    b1d8:	b9400400 	ldr	w0, [x0,#4]
    b1dc:	f9400ba2 	ldr	x2, [x29,#16]
    b1e0:	f9400fa1 	ldr	x1, [x29,#24]
    b1e4:	97ffff7b 	bl	afd0 <mpa_alloc_static_temp_var_size>
/home/rex/devel/optee/optee_os/lib/libmpa/mpa_mem_static.c:140
    b1e8:	a8c27bfd 	ldp	x29, x30, [sp],#32
    b1ec:	d65f03c0 	ret

000000000000b1f0 <mpa_free_static_temp_var>:
mpa_free_static_temp_var():
/home/rex/devel/optee/optee_os/lib/libmpa/mpa_mem_static.c:148
    b1f0:	a9bc7bfd 	stp	x29, x30, [sp,#-64]!
    b1f4:	910003fd 	mov	x29, sp
    b1f8:	f9000fa0 	str	x0, [x29,#24]
    b1fc:	f9000ba1 	str	x1, [x29,#16]
/home/rex/devel/optee/optee_os/lib/libmpa/mpa_mem_static.c:152
    b200:	b9003fbf 	str	wzr, [x29,#60]
/home/rex/devel/optee/optee_os/lib/libmpa/mpa_mem_static.c:154
    b204:	f9400fa0 	ldr	x0, [x29,#24]
    b208:	f100001f 	cmp	x0, #0x0
    b20c:	54000700 	b.eq	b2ec <mpa_free_static_temp_var+0xfc>
/home/rex/devel/optee/optee_os/lib/libmpa/mpa_mem_static.c:154 (discriminator 1)
    b210:	f9400fa0 	ldr	x0, [x29,#24]
    b214:	f9400000 	ldr	x0, [x0]
    b218:	f100001f 	cmp	x0, #0x0
    b21c:	54000680 	b.eq	b2ec <mpa_free_static_temp_var+0xfc>
/home/rex/devel/optee/optee_os/lib/libmpa/mpa_mem_static.c:157
    b220:	f9400fa0 	ldr	x0, [x29,#24]
    b224:	f9400000 	ldr	x0, [x0]
    b228:	d1003000 	sub	x0, x0, #0xc
    b22c:	f9001ba0 	str	x0, [x29,#48]
/home/rex/devel/optee/optee_os/lib/libmpa/mpa_mem_static.c:159
    b230:	f9401ba0 	ldr	x0, [x29,#48]
    b234:	b9400400 	ldr	w0, [x0,#4]
    b238:	7100001f 	cmp	w0, #0x0
    b23c:	540001c0 	b.eq	b274 <mpa_free_static_temp_var+0x84>
/home/rex/devel/optee/optee_os/lib/libmpa/mpa_mem_static.c:161
    b240:	f9401ba0 	ldr	x0, [x29,#48]
    b244:	b9400400 	ldr	w0, [x0,#4]
    b248:	2a0003e1 	mov	w1, w0
/home/rex/devel/optee/optee_os/lib/libmpa/mpa_mem_static.c:160
    b24c:	f9400ba0 	ldr	x0, [x29,#16]
    b250:	8b000020 	add	x0, x1, x0
    b254:	f90017a0 	str	x0, [x29,#40]
/home/rex/devel/optee/optee_os/lib/libmpa/mpa_mem_static.c:162
    b258:	f9401ba0 	ldr	x0, [x29,#48]
    b25c:	b9400801 	ldr	w1, [x0,#8]
    b260:	f94017a0 	ldr	x0, [x29,#40]
    b264:	b9000801 	str	w1, [x0,#8]
/home/rex/devel/optee/optee_os/lib/libmpa/mpa_mem_static.c:163
    b268:	f9401ba0 	ldr	x0, [x29,#48]
    b26c:	b9400400 	ldr	w0, [x0,#4]
    b270:	b9003fa0 	str	w0, [x29,#60]
/home/rex/devel/optee/optee_os/lib/libmpa/mpa_mem_static.c:166
    b274:	f9401ba0 	ldr	x0, [x29,#48]
    b278:	b9400800 	ldr	w0, [x0,#8]
    b27c:	7100001f 	cmp	w0, #0x0
    b280:	540001c0 	b.eq	b2b8 <mpa_free_static_temp_var+0xc8>
/home/rex/devel/optee/optee_os/lib/libmpa/mpa_mem_static.c:168
    b284:	f9401ba0 	ldr	x0, [x29,#48]
    b288:	b9400800 	ldr	w0, [x0,#8]
    b28c:	2a0003e1 	mov	w1, w0
/home/rex/devel/optee/optee_os/lib/libmpa/mpa_mem_static.c:167
    b290:	f9400ba0 	ldr	x0, [x29,#16]
    b294:	8b000020 	add	x0, x1, x0
    b298:	f90013a0 	str	x0, [x29,#32]
/home/rex/devel/optee/optee_os/lib/libmpa/mpa_mem_static.c:169
    b29c:	f9401ba0 	ldr	x0, [x29,#48]
    b2a0:	b9400401 	ldr	w1, [x0,#4]
    b2a4:	f94013a0 	ldr	x0, [x29,#32]
    b2a8:	b9000401 	str	w1, [x0,#4]
/home/rex/devel/optee/optee_os/lib/libmpa/mpa_mem_static.c:170
    b2ac:	f9400ba0 	ldr	x0, [x29,#16]
    b2b0:	b9400800 	ldr	w0, [x0,#8]
    b2b4:	b9003fa0 	str	w0, [x29,#60]
/home/rex/devel/optee/optee_os/lib/libmpa/mpa_mem_static.c:173
    b2b8:	f9400ba0 	ldr	x0, [x29,#16]
    b2bc:	b9403fa1 	ldr	w1, [x29,#60]
    b2c0:	b9000801 	str	w1, [x0,#8]
/home/rex/devel/optee/optee_os/lib/libmpa/mpa_mem_static.c:174
    b2c4:	f9400ba0 	ldr	x0, [x29,#16]
    b2c8:	f9400c00 	ldr	x0, [x0,#24]
    b2cc:	f100001f 	cmp	x0, #0x0
    b2d0:	54000100 	b.eq	b2f0 <mpa_free_static_temp_var+0x100>
/home/rex/devel/optee/optee_os/lib/libmpa/mpa_mem_static.c:175
    b2d4:	f9400ba0 	ldr	x0, [x29,#16]
    b2d8:	f9400c01 	ldr	x1, [x0,#24]
    b2dc:	f9400ba0 	ldr	x0, [x29,#16]
    b2e0:	f9401000 	ldr	x0, [x0,#32]
    b2e4:	d63f0020 	blr	x1
    b2e8:	14000002 	b	b2f0 <mpa_free_static_temp_var+0x100>
/home/rex/devel/optee/optee_os/lib/libmpa/mpa_mem_static.c:155
    b2ec:	d503201f 	nop
/home/rex/devel/optee/optee_os/lib/libmpa/mpa_mem_static.c:176
    b2f0:	a8c47bfd 	ldp	x29, x30, [sp],#64
    b2f4:	d65f03c0 	ret

000000000000b2f8 <__mpa_mul_add_word>:
__mpa_mul_add_word():
/home/rex/devel/optee/optee_os/lib/libmpa/mpa_mul.c:50
    b2f8:	d100c3ff 	sub	sp, sp, #0x30
    b2fc:	b9001fe0 	str	w0, [sp,#28]
    b300:	b9001be1 	str	w1, [sp,#24]
    b304:	f9000be2 	str	x2, [sp,#16]
    b308:	f90007e3 	str	x3, [sp,#8]
/home/rex/devel/optee/optee_os/lib/libmpa/mpa_mul.c:54
    b30c:	b9401fe1 	ldr	w1, [sp,#28]
    b310:	b9401be0 	ldr	w0, [sp,#24]
    b314:	9b007c21 	mul	x1, x1, x0
    b318:	f94007e0 	ldr	x0, [sp,#8]
    b31c:	b9400000 	ldr	w0, [x0]
    b320:	2a0003e0 	mov	w0, w0
    b324:	8b000020 	add	x0, x1, x0
    b328:	f90017e0 	str	x0, [sp,#40]
/home/rex/devel/optee/optee_os/lib/libmpa/mpa_mul.c:55
    b32c:	f94017e0 	ldr	x0, [sp,#40]
    b330:	2a0003e1 	mov	w1, w0
    b334:	f9400be0 	ldr	x0, [sp,#16]
    b338:	b9000001 	str	w1, [x0]
/home/rex/devel/optee/optee_os/lib/libmpa/mpa_mul.c:56
    b33c:	f94017e0 	ldr	x0, [sp,#40]
    b340:	d360fc00 	lsr	x0, x0, #32
    b344:	2a0003e1 	mov	w1, w0
    b348:	f94007e0 	ldr	x0, [sp,#8]
    b34c:	b9000001 	str	w1, [x0]
/home/rex/devel/optee/optee_os/lib/libmpa/mpa_mul.c:60
    b350:	d503201f 	nop
    b354:	9100c3ff 	add	sp, sp, #0x30
    b358:	d65f03c0 	ret

000000000000b35c <__mpa_mul_add_word_cum>:
__mpa_mul_add_word_cum():
/home/rex/devel/optee/optee_os/lib/libmpa/mpa_mul.c:71
    b35c:	d100c3ff 	sub	sp, sp, #0x30
    b360:	b9001fe0 	str	w0, [sp,#28]
    b364:	b9001be1 	str	w1, [sp,#24]
    b368:	f9000be2 	str	x2, [sp,#16]
    b36c:	f90007e3 	str	x3, [sp,#8]
/home/rex/devel/optee/optee_os/lib/libmpa/mpa_mul.c:76
    b370:	b9401fe1 	ldr	w1, [sp,#28]
    b374:	b9401be0 	ldr	w0, [sp,#24]
    b378:	9b007c21 	mul	x1, x1, x0
    b37c:	f9400be0 	ldr	x0, [sp,#16]
    b380:	b9400000 	ldr	w0, [x0]
    b384:	2a0003e0 	mov	w0, w0
    b388:	8b000021 	add	x1, x1, x0
/home/rex/devel/optee/optee_os/lib/libmpa/mpa_mul.c:77
    b38c:	f94007e0 	ldr	x0, [sp,#8]
    b390:	b9400000 	ldr	w0, [x0]
    b394:	2a0003e0 	mov	w0, w0
/home/rex/devel/optee/optee_os/lib/libmpa/mpa_mul.c:75
    b398:	8b000020 	add	x0, x1, x0
    b39c:	f90017e0 	str	x0, [sp,#40]
/home/rex/devel/optee/optee_os/lib/libmpa/mpa_mul.c:78
    b3a0:	f94017e0 	ldr	x0, [sp,#40]
    b3a4:	2a0003e1 	mov	w1, w0
    b3a8:	f9400be0 	ldr	x0, [sp,#16]
    b3ac:	b9000001 	str	w1, [x0]
/home/rex/devel/optee/optee_os/lib/libmpa/mpa_mul.c:79
    b3b0:	f94017e0 	ldr	x0, [sp,#40]
    b3b4:	d360fc00 	lsr	x0, x0, #32
    b3b8:	2a0003e1 	mov	w1, w0
    b3bc:	f94007e0 	ldr	x0, [sp,#8]
    b3c0:	b9000001 	str	w1, [x0]
/home/rex/devel/optee/optee_os/lib/libmpa/mpa_mul.c:83
    b3c4:	d503201f 	nop
    b3c8:	9100c3ff 	add	sp, sp, #0x30
    b3cc:	d65f03c0 	ret

000000000000b3d0 <__mpa_abs_mul_word>:
__mpa_abs_mul_word():
/home/rex/devel/optee/optee_os/lib/libmpa/mpa_mul.c:95
    b3d0:	a9bb7bfd 	stp	x29, x30, [sp,#-80]!
    b3d4:	910003fd 	mov	x29, sp
    b3d8:	f90017a0 	str	x0, [x29,#40]
    b3dc:	f90013a1 	str	x1, [x29,#32]
    b3e0:	b9001fa2 	str	w2, [x29,#28]
/home/rex/devel/optee/optee_os/lib/libmpa/mpa_mul.c:102
    b3e4:	f94017a0 	ldr	x0, [x29,#40]
    b3e8:	91002003 	add	x3, x0, #0x8
    b3ec:	f94017a0 	ldr	x0, [x29,#40]
    b3f0:	b9400000 	ldr	w0, [x0]
    b3f4:	531e7400 	lsl	w0, w0, #2
    b3f8:	2a0003e0 	mov	w0, w0
    b3fc:	aa0003e2 	mov	x2, x0
    b400:	52800001 	mov	w1, #0x0                   	// #0
    b404:	aa0303e0 	mov	x0, x3
    b408:	97ffe8de 	bl	5780 <memset>
/home/rex/devel/optee/optee_os/lib/libmpa/mpa_mul.c:104
    b40c:	f94013a0 	ldr	x0, [x29,#32]
    b410:	91002000 	add	x0, x0, #0x8
    b414:	f90023a0 	str	x0, [x29,#64]
/home/rex/devel/optee/optee_os/lib/libmpa/mpa_mul.c:105
    b418:	f94017a0 	ldr	x0, [x29,#40]
    b41c:	91002000 	add	x0, x0, #0x8
    b420:	f9001fa0 	str	x0, [x29,#56]
/home/rex/devel/optee/optee_os/lib/libmpa/mpa_mul.c:106
    b424:	b90037bf 	str	wzr, [x29,#52]
/home/rex/devel/optee/optee_os/lib/libmpa/mpa_mul.c:107
    b428:	b9004fbf 	str	wzr, [x29,#76]
    b42c:	14000013 	b	b478 <__mpa_abs_mul_word+0xa8>
/home/rex/devel/optee/optee_os/lib/libmpa/mpa_mul.c:108 (discriminator 3)
    b430:	f94023a0 	ldr	x0, [x29,#64]
    b434:	b9400004 	ldr	w4, [x0]
    b438:	b9404fa0 	ldr	w0, [x29,#76]
    b43c:	d37ef400 	lsl	x0, x0, #2
    b440:	f9401fa1 	ldr	x1, [x29,#56]
    b444:	8b000020 	add	x0, x1, x0
    b448:	9100d3a1 	add	x1, x29, #0x34
    b44c:	aa0103e3 	mov	x3, x1
    b450:	aa0003e2 	mov	x2, x0
    b454:	b9401fa1 	ldr	w1, [x29,#28]
    b458:	2a0403e0 	mov	w0, w4
    b45c:	97ffffa7 	bl	b2f8 <__mpa_mul_add_word>
/home/rex/devel/optee/optee_os/lib/libmpa/mpa_mul.c:109 (discriminator 3)
    b460:	f94023a0 	ldr	x0, [x29,#64]
    b464:	91001000 	add	x0, x0, #0x4
    b468:	f90023a0 	str	x0, [x29,#64]
/home/rex/devel/optee/optee_os/lib/libmpa/mpa_mul.c:107 (discriminator 3)
    b46c:	b9404fa0 	ldr	w0, [x29,#76]
    b470:	11000400 	add	w0, w0, #0x1
    b474:	b9004fa0 	str	w0, [x29,#76]
/home/rex/devel/optee/optee_os/lib/libmpa/mpa_mul.c:107 (discriminator 1)
    b478:	f94013a0 	ldr	x0, [x29,#32]
    b47c:	b9400400 	ldr	w0, [x0,#4]
    b480:	7100001f 	cmp	w0, #0x0
    b484:	5a80a400 	cneg	w0, w0, lt
    b488:	2a0003e1 	mov	w1, w0
    b48c:	b9404fa0 	ldr	w0, [x29,#76]
    b490:	6b00003f 	cmp	w1, w0
    b494:	54fffce8 	b.hi	b430 <__mpa_abs_mul_word+0x60>
/home/rex/devel/optee/optee_os/lib/libmpa/mpa_mul.c:111
    b498:	b9404fa1 	ldr	w1, [x29,#76]
    b49c:	f94017a0 	ldr	x0, [x29,#40]
    b4a0:	b9000401 	str	w1, [x0,#4]
/home/rex/devel/optee/optee_os/lib/libmpa/mpa_mul.c:112
    b4a4:	b94037a0 	ldr	w0, [x29,#52]
    b4a8:	7100001f 	cmp	w0, #0x0
    b4ac:	54000180 	b.eq	b4dc <__mpa_abs_mul_word+0x10c>
/home/rex/devel/optee/optee_os/lib/libmpa/mpa_mul.c:113
    b4b0:	b9404fa0 	ldr	w0, [x29,#76]
    b4b4:	d37ef400 	lsl	x0, x0, #2
    b4b8:	f9401fa1 	ldr	x1, [x29,#56]
    b4bc:	8b000020 	add	x0, x1, x0
    b4c0:	b94037a1 	ldr	w1, [x29,#52]
    b4c4:	b9000001 	str	w1, [x0]
/home/rex/devel/optee/optee_os/lib/libmpa/mpa_mul.c:114
    b4c8:	f94017a0 	ldr	x0, [x29,#40]
    b4cc:	b9400400 	ldr	w0, [x0,#4]
    b4d0:	11000401 	add	w1, w0, #0x1
    b4d4:	f94017a0 	ldr	x0, [x29,#40]
    b4d8:	b9000401 	str	w1, [x0,#4]
/home/rex/devel/optee/optee_os/lib/libmpa/mpa_mul.c:116
    b4dc:	d503201f 	nop
    b4e0:	a8c57bfd 	ldp	x29, x30, [sp],#80
    b4e4:	d65f03c0 	ret

000000000000b4e8 <__mpa_abs_mul>:
__mpa_abs_mul():
/home/rex/devel/optee/optee_os/lib/libmpa/mpa_mul.c:126
    b4e8:	a9ba7bfd 	stp	x29, x30, [sp,#-96]!
    b4ec:	910003fd 	mov	x29, sp
    b4f0:	f90017a0 	str	x0, [x29,#40]
    b4f4:	f90013a1 	str	x1, [x29,#32]
    b4f8:	f9000fa2 	str	x2, [x29,#24]
/home/rex/devel/optee/optee_os/lib/libmpa/mpa_mul.c:127
    b4fc:	b9005fbf 	str	wzr, [x29,#92]
/home/rex/devel/optee/optee_os/lib/libmpa/mpa_mul.c:128
    b500:	b9005bbf 	str	wzr, [x29,#88]
/home/rex/devel/optee/optee_os/lib/libmpa/mpa_mul.c:129
    b504:	b9003fbf 	str	wzr, [x29,#60]
/home/rex/devel/optee/optee_os/lib/libmpa/mpa_mul.c:135
    b508:	f94017a0 	ldr	x0, [x29,#40]
    b50c:	91002003 	add	x3, x0, #0x8
    b510:	f94017a0 	ldr	x0, [x29,#40]
    b514:	b9400000 	ldr	w0, [x0]
    b518:	531e7400 	lsl	w0, w0, #2
    b51c:	2a0003e0 	mov	w0, w0
    b520:	aa0003e2 	mov	x2, x0
    b524:	52800001 	mov	w1, #0x0                   	// #0
    b528:	aa0303e0 	mov	x0, x3
    b52c:	97ffe895 	bl	5780 <memset>
/home/rex/devel/optee/optee_os/lib/libmpa/mpa_mul.c:137
    b530:	f94013a0 	ldr	x0, [x29,#32]
    b534:	91002000 	add	x0, x0, #0x8
    b538:	f90027a0 	str	x0, [x29,#72]
/home/rex/devel/optee/optee_os/lib/libmpa/mpa_mul.c:138
    b53c:	f94017a0 	ldr	x0, [x29,#40]
    b540:	91002000 	add	x0, x0, #0x8
    b544:	f9002ba0 	str	x0, [x29,#80]
/home/rex/devel/optee/optee_os/lib/libmpa/mpa_mul.c:139
    b548:	b9005fbf 	str	wzr, [x29,#92]
    b54c:	14000035 	b	b620 <__mpa_abs_mul+0x138>
/home/rex/devel/optee/optee_os/lib/libmpa/mpa_mul.c:140
    b550:	f9400fa0 	ldr	x0, [x29,#24]
    b554:	91002000 	add	x0, x0, #0x8
    b558:	f90023a0 	str	x0, [x29,#64]
/home/rex/devel/optee/optee_os/lib/libmpa/mpa_mul.c:141
    b55c:	b9003fbf 	str	wzr, [x29,#60]
/home/rex/devel/optee/optee_os/lib/libmpa/mpa_mul.c:142
    b560:	b9005bbf 	str	wzr, [x29,#88]
    b564:	14000015 	b	b5b8 <__mpa_abs_mul+0xd0>
/home/rex/devel/optee/optee_os/lib/libmpa/mpa_mul.c:143 (discriminator 3)
    b568:	f94027a0 	ldr	x0, [x29,#72]
    b56c:	b9400004 	ldr	w4, [x0]
    b570:	f94023a0 	ldr	x0, [x29,#64]
    b574:	b9400005 	ldr	w5, [x0]
    b578:	b9405ba0 	ldr	w0, [x29,#88]
    b57c:	d37ef400 	lsl	x0, x0, #2
    b580:	f9402ba1 	ldr	x1, [x29,#80]
    b584:	8b000020 	add	x0, x1, x0
    b588:	9100f3a1 	add	x1, x29, #0x3c
    b58c:	aa0103e3 	mov	x3, x1
    b590:	aa0003e2 	mov	x2, x0
    b594:	2a0503e1 	mov	w1, w5
    b598:	2a0403e0 	mov	w0, w4
    b59c:	97ffff70 	bl	b35c <__mpa_mul_add_word_cum>
/home/rex/devel/optee/optee_os/lib/libmpa/mpa_mul.c:144 (discriminator 3)
    b5a0:	f94023a0 	ldr	x0, [x29,#64]
    b5a4:	91001000 	add	x0, x0, #0x4
    b5a8:	f90023a0 	str	x0, [x29,#64]
/home/rex/devel/optee/optee_os/lib/libmpa/mpa_mul.c:142 (discriminator 3)
    b5ac:	b9405ba0 	ldr	w0, [x29,#88]
    b5b0:	11000400 	add	w0, w0, #0x1
    b5b4:	b9005ba0 	str	w0, [x29,#88]
/home/rex/devel/optee/optee_os/lib/libmpa/mpa_mul.c:142 (discriminator 1)
    b5b8:	f9400fa0 	ldr	x0, [x29,#24]
    b5bc:	b9400400 	ldr	w0, [x0,#4]
    b5c0:	7100001f 	cmp	w0, #0x0
    b5c4:	5a80a400 	cneg	w0, w0, lt
    b5c8:	2a0003e1 	mov	w1, w0
    b5cc:	b9405ba0 	ldr	w0, [x29,#88]
    b5d0:	6b00003f 	cmp	w1, w0
    b5d4:	54fffca8 	b.hi	b568 <__mpa_abs_mul+0x80>
/home/rex/devel/optee/optee_os/lib/libmpa/mpa_mul.c:146
    b5d8:	b9403fa0 	ldr	w0, [x29,#60]
    b5dc:	7100001f 	cmp	w0, #0x0
    b5e0:	540000e0 	b.eq	b5fc <__mpa_abs_mul+0x114>
/home/rex/devel/optee/optee_os/lib/libmpa/mpa_mul.c:147
    b5e4:	b9405ba0 	ldr	w0, [x29,#88]
    b5e8:	d37ef400 	lsl	x0, x0, #2
    b5ec:	f9402ba1 	ldr	x1, [x29,#80]
    b5f0:	8b000020 	add	x0, x1, x0
    b5f4:	b9403fa1 	ldr	w1, [x29,#60]
    b5f8:	b9000001 	str	w1, [x0]
/home/rex/devel/optee/optee_os/lib/libmpa/mpa_mul.c:148 (discriminator 2)
    b5fc:	f94027a0 	ldr	x0, [x29,#72]
    b600:	91001000 	add	x0, x0, #0x4
    b604:	f90027a0 	str	x0, [x29,#72]
/home/rex/devel/optee/optee_os/lib/libmpa/mpa_mul.c:149 (discriminator 2)
    b608:	f9402ba0 	ldr	x0, [x29,#80]
    b60c:	91001000 	add	x0, x0, #0x4
    b610:	f9002ba0 	str	x0, [x29,#80]
/home/rex/devel/optee/optee_os/lib/libmpa/mpa_mul.c:139 (discriminator 2)
    b614:	b9405fa0 	ldr	w0, [x29,#92]
    b618:	11000400 	add	w0, w0, #0x1
    b61c:	b9005fa0 	str	w0, [x29,#92]
/home/rex/devel/optee/optee_os/lib/libmpa/mpa_mul.c:139 (discriminator 1)
    b620:	f94013a0 	ldr	x0, [x29,#32]
    b624:	b9400400 	ldr	w0, [x0,#4]
    b628:	7100001f 	cmp	w0, #0x0
    b62c:	5a80a400 	cneg	w0, w0, lt
    b630:	2a0003e1 	mov	w1, w0
    b634:	b9405fa0 	ldr	w0, [x29,#92]
    b638:	6b00003f 	cmp	w1, w0
    b63c:	54fff8a8 	b.hi	b550 <__mpa_abs_mul+0x68>
/home/rex/devel/optee/optee_os/lib/libmpa/mpa_mul.c:151
    b640:	b9405fa1 	ldr	w1, [x29,#92]
    b644:	b9405ba0 	ldr	w0, [x29,#88]
    b648:	0b000020 	add	w0, w1, w0
    b64c:	51000400 	sub	w0, w0, #0x1
    b650:	2a0003e1 	mov	w1, w0
    b654:	f94017a0 	ldr	x0, [x29,#40]
    b658:	b9000401 	str	w1, [x0,#4]
/home/rex/devel/optee/optee_os/lib/libmpa/mpa_mul.c:152
    b65c:	b9403fa0 	ldr	w0, [x29,#60]
    b660:	7100001f 	cmp	w0, #0x0
    b664:	540000c0 	b.eq	b67c <__mpa_abs_mul+0x194>
/home/rex/devel/optee/optee_os/lib/libmpa/mpa_mul.c:153
    b668:	f94017a0 	ldr	x0, [x29,#40]
    b66c:	b9400400 	ldr	w0, [x0,#4]
    b670:	11000401 	add	w1, w0, #0x1
    b674:	f94017a0 	ldr	x0, [x29,#40]
    b678:	b9000401 	str	w1, [x0,#4]
/home/rex/devel/optee/optee_os/lib/libmpa/mpa_mul.c:154
    b67c:	d503201f 	nop
    b680:	a8c67bfd 	ldp	x29, x30, [sp],#96
    b684:	d65f03c0 	ret

000000000000b688 <mpa_mul>:
mpa_mul():
/home/rex/devel/optee/optee_os/lib/libmpa/mpa_mul.c:169
    b688:	a9bc7bfd 	stp	x29, x30, [sp,#-64]!
    b68c:	910003fd 	mov	x29, sp
    b690:	f90017a0 	str	x0, [x29,#40]
    b694:	f90013a1 	str	x1, [x29,#32]
    b698:	f9000fa2 	str	x2, [x29,#24]
    b69c:	f9000ba3 	str	x3, [x29,#16]
/home/rex/devel/optee/optee_os/lib/libmpa/mpa_mul.c:173
    b6a0:	f94013a0 	ldr	x0, [x29,#32]
    b6a4:	b9400400 	ldr	w0, [x0,#4]
    b6a8:	7100001f 	cmp	w0, #0x0
    b6ac:	540000a0 	b.eq	b6c0 <mpa_mul+0x38>
/home/rex/devel/optee/optee_os/lib/libmpa/mpa_mul.c:173 (discriminator 1)
    b6b0:	f9400fa0 	ldr	x0, [x29,#24]
    b6b4:	b9400400 	ldr	w0, [x0,#4]
    b6b8:	7100001f 	cmp	w0, #0x0
    b6bc:	540000a1 	b.ne	b6d0 <mpa_mul+0x48>
/home/rex/devel/optee/optee_os/lib/libmpa/mpa_mul.c:174
    b6c0:	52800001 	mov	w1, #0x0                   	// #0
    b6c4:	f94017a0 	ldr	x0, [x29,#40]
    b6c8:	97fff71c 	bl	9338 <mpa_set_word>
    b6cc:	14000039 	b	b7b0 <mpa_mul+0x128>
/home/rex/devel/optee/optee_os/lib/libmpa/mpa_mul.c:179
    b6d0:	f94017a1 	ldr	x1, [x29,#40]
    b6d4:	f94013a0 	ldr	x0, [x29,#32]
    b6d8:	eb00003f 	cmp	x1, x0
    b6dc:	540000a0 	b.eq	b6f0 <mpa_mul+0x68>
/home/rex/devel/optee/optee_os/lib/libmpa/mpa_mul.c:179 (discriminator 2)
    b6e0:	f94017a1 	ldr	x1, [x29,#40]
    b6e4:	f9400fa0 	ldr	x0, [x29,#24]
    b6e8:	eb00003f 	cmp	x1, x0
    b6ec:	54000061 	b.ne	b6f8 <mpa_mul+0x70>
/home/rex/devel/optee/optee_os/lib/libmpa/mpa_mul.c:179 (discriminator 3)
    b6f0:	52800020 	mov	w0, #0x1                   	// #1
    b6f4:	14000002 	b	b6fc <mpa_mul+0x74>
/home/rex/devel/optee/optee_os/lib/libmpa/mpa_mul.c:179 (discriminator 4)
    b6f8:	52800000 	mov	w0, #0x0                   	// #0
/home/rex/devel/optee/optee_os/lib/libmpa/mpa_mul.c:179 (discriminator 6)
    b6fc:	3900ffa0 	strb	w0, [x29,#63]
/home/rex/devel/optee/optee_os/lib/libmpa/mpa_mul.c:180 (discriminator 6)
    b700:	3940ffa0 	ldrb	w0, [x29,#63]
    b704:	7100001f 	cmp	w0, #0x0
    b708:	540000a0 	b.eq	b71c <mpa_mul+0x94>
/home/rex/devel/optee/optee_os/lib/libmpa/mpa_mul.c:181
    b70c:	9100c3a0 	add	x0, x29, #0x30
    b710:	f9400ba1 	ldr	x1, [x29,#16]
    b714:	97fffeac 	bl	b1c4 <mpa_alloc_static_temp_var>
    b718:	14000003 	b	b724 <mpa_mul+0x9c>
/home/rex/devel/optee/optee_os/lib/libmpa/mpa_mul.c:183
    b71c:	f94017a0 	ldr	x0, [x29,#40]
    b720:	f9001ba0 	str	x0, [x29,#48]
/home/rex/devel/optee/optee_os/lib/libmpa/mpa_mul.c:185
    b724:	f9401ba0 	ldr	x0, [x29,#48]
    b728:	f9400fa2 	ldr	x2, [x29,#24]
    b72c:	f94013a1 	ldr	x1, [x29,#32]
    b730:	97ffff6e 	bl	b4e8 <__mpa_abs_mul>
/home/rex/devel/optee/optee_os/lib/libmpa/mpa_mul.c:187
    b734:	f94013a0 	ldr	x0, [x29,#32]
    b738:	b9400400 	ldr	w0, [x0,#4]
    b73c:	7100001f 	cmp	w0, #0x0
    b740:	5400006b 	b.lt	b74c <mpa_mul+0xc4>
/home/rex/devel/optee/optee_os/lib/libmpa/mpa_mul.c:187 (discriminator 1)
    b744:	52800021 	mov	w1, #0x1                   	// #1
    b748:	14000002 	b	b750 <mpa_mul+0xc8>
/home/rex/devel/optee/optee_os/lib/libmpa/mpa_mul.c:187 (discriminator 2)
    b74c:	12800001 	mov	w1, #0xffffffff            	// #-1
/home/rex/devel/optee/optee_os/lib/libmpa/mpa_mul.c:187 (discriminator 4)
    b750:	f9400fa0 	ldr	x0, [x29,#24]
    b754:	b9400400 	ldr	w0, [x0,#4]
    b758:	7100001f 	cmp	w0, #0x0
    b75c:	5400006b 	b.lt	b768 <mpa_mul+0xe0>
/home/rex/devel/optee/optee_os/lib/libmpa/mpa_mul.c:187 (discriminator 5)
    b760:	52800020 	mov	w0, #0x1                   	// #1
    b764:	14000002 	b	b76c <mpa_mul+0xe4>
/home/rex/devel/optee/optee_os/lib/libmpa/mpa_mul.c:187 (discriminator 6)
    b768:	12800000 	mov	w0, #0xffffffff            	// #-1
/home/rex/devel/optee/optee_os/lib/libmpa/mpa_mul.c:187 (discriminator 8)
    b76c:	6b00003f 	cmp	w1, w0
    b770:	540000c0 	b.eq	b788 <mpa_mul+0x100>
/home/rex/devel/optee/optee_os/lib/libmpa/mpa_mul.c:188
    b774:	f9401ba0 	ldr	x0, [x29,#48]
    b778:	f9401ba1 	ldr	x1, [x29,#48]
    b77c:	b9400421 	ldr	w1, [x1,#4]
    b780:	4b0103e1 	neg	w1, w1
    b784:	b9000401 	str	w1, [x0,#4]
/home/rex/devel/optee/optee_os/lib/libmpa/mpa_mul.c:190
    b788:	f9401ba0 	ldr	x0, [x29,#48]
    b78c:	aa0003e1 	mov	x1, x0
    b790:	f94017a0 	ldr	x0, [x29,#40]
    b794:	97fff301 	bl	8398 <mpa_copy>
/home/rex/devel/optee/optee_os/lib/libmpa/mpa_mul.c:191
    b798:	3940ffa0 	ldrb	w0, [x29,#63]
    b79c:	7100001f 	cmp	w0, #0x0
    b7a0:	54000080 	b.eq	b7b0 <mpa_mul+0x128>
/home/rex/devel/optee/optee_os/lib/libmpa/mpa_mul.c:192
    b7a4:	9100c3a0 	add	x0, x29, #0x30
    b7a8:	f9400ba1 	ldr	x1, [x29,#16]
    b7ac:	97fffe91 	bl	b1f0 <mpa_free_static_temp_var>
/home/rex/devel/optee/optee_os/lib/libmpa/mpa_mul.c:193
    b7b0:	a8c47bfd 	ldp	x29, x30, [sp],#64
    b7b4:	d65f03c0 	ret

000000000000b7b8 <mpa_mul_word>:
mpa_mul_word():
/home/rex/devel/optee/optee_os/lib/libmpa/mpa_mul.c:202
    b7b8:	a9bc7bfd 	stp	x29, x30, [sp,#-64]!
    b7bc:	910003fd 	mov	x29, sp
    b7c0:	f90017a0 	str	x0, [x29,#40]
    b7c4:	f90013a1 	str	x1, [x29,#32]
    b7c8:	b9001fa2 	str	w2, [x29,#28]
    b7cc:	f9000ba3 	str	x3, [x29,#16]
/home/rex/devel/optee/optee_os/lib/libmpa/mpa_mul.c:207
    b7d0:	f94013a0 	ldr	x0, [x29,#32]
    b7d4:	b9400400 	ldr	w0, [x0,#4]
    b7d8:	7100001f 	cmp	w0, #0x0
    b7dc:	54000080 	b.eq	b7ec <mpa_mul_word+0x34>
/home/rex/devel/optee/optee_os/lib/libmpa/mpa_mul.c:207 (discriminator 1)
    b7e0:	b9401fa0 	ldr	w0, [x29,#28]
    b7e4:	7100001f 	cmp	w0, #0x0
    b7e8:	540000a1 	b.ne	b7fc <mpa_mul_word+0x44>
/home/rex/devel/optee/optee_os/lib/libmpa/mpa_mul.c:208
    b7ec:	52800001 	mov	w1, #0x0                   	// #0
    b7f0:	f94017a0 	ldr	x0, [x29,#40]
    b7f4:	97fff6d1 	bl	9338 <mpa_set_word>
    b7f8:	1400002e 	b	b8b0 <mpa_mul_word+0xf8>
/home/rex/devel/optee/optee_os/lib/libmpa/mpa_mul.c:212
    b7fc:	f94013a0 	ldr	x0, [x29,#32]
    b800:	b9400400 	ldr	w0, [x0,#4]
    b804:	7100001f 	cmp	w0, #0x0
    b808:	5400006b 	b.lt	b814 <mpa_mul_word+0x5c>
/home/rex/devel/optee/optee_os/lib/libmpa/mpa_mul.c:212 (discriminator 1)
    b80c:	52800020 	mov	w0, #0x1                   	// #1
    b810:	14000002 	b	b818 <mpa_mul_word+0x60>
/home/rex/devel/optee/optee_os/lib/libmpa/mpa_mul.c:212 (discriminator 2)
    b814:	12800000 	mov	w0, #0xffffffff            	// #-1
/home/rex/devel/optee/optee_os/lib/libmpa/mpa_mul.c:212 (discriminator 4)
    b818:	b9003fa0 	str	w0, [x29,#60]
/home/rex/devel/optee/optee_os/lib/libmpa/mpa_mul.c:215 (discriminator 4)
    b81c:	f94017a1 	ldr	x1, [x29,#40]
    b820:	f94013a0 	ldr	x0, [x29,#32]
    b824:	eb00003f 	cmp	x1, x0
    b828:	1a9f17e0 	cset	w0, eq
    b82c:	12001c00 	and	w0, w0, #0xff
    b830:	3900efa0 	strb	w0, [x29,#59]
/home/rex/devel/optee/optee_os/lib/libmpa/mpa_mul.c:216 (discriminator 4)
    b834:	3940efa0 	ldrb	w0, [x29,#59]
    b838:	7100001f 	cmp	w0, #0x0
    b83c:	540000a0 	b.eq	b850 <mpa_mul_word+0x98>
/home/rex/devel/optee/optee_os/lib/libmpa/mpa_mul.c:217
    b840:	9100c3a0 	add	x0, x29, #0x30
    b844:	f9400ba1 	ldr	x1, [x29,#16]
    b848:	97fffe5f 	bl	b1c4 <mpa_alloc_static_temp_var>
    b84c:	14000003 	b	b858 <mpa_mul_word+0xa0>
/home/rex/devel/optee/optee_os/lib/libmpa/mpa_mul.c:219
    b850:	f94017a0 	ldr	x0, [x29,#40]
    b854:	f9001ba0 	str	x0, [x29,#48]
/home/rex/devel/optee/optee_os/lib/libmpa/mpa_mul.c:221
    b858:	f9401ba0 	ldr	x0, [x29,#48]
    b85c:	b9401fa2 	ldr	w2, [x29,#28]
    b860:	f94013a1 	ldr	x1, [x29,#32]
    b864:	97fffedb 	bl	b3d0 <__mpa_abs_mul_word>
/home/rex/devel/optee/optee_os/lib/libmpa/mpa_mul.c:223
    b868:	b9403fa0 	ldr	w0, [x29,#60]
    b86c:	3100041f 	cmn	w0, #0x1
    b870:	540000c1 	b.ne	b888 <mpa_mul_word+0xd0>
/home/rex/devel/optee/optee_os/lib/libmpa/mpa_mul.c:224
    b874:	f9401ba0 	ldr	x0, [x29,#48]
    b878:	f9401ba1 	ldr	x1, [x29,#48]
    b87c:	b9400421 	ldr	w1, [x1,#4]
    b880:	4b0103e1 	neg	w1, w1
    b884:	b9000401 	str	w1, [x0,#4]
/home/rex/devel/optee/optee_os/lib/libmpa/mpa_mul.c:225
    b888:	f9401ba0 	ldr	x0, [x29,#48]
    b88c:	aa0003e1 	mov	x1, x0
    b890:	f94017a0 	ldr	x0, [x29,#40]
    b894:	97fff2c1 	bl	8398 <mpa_copy>
/home/rex/devel/optee/optee_os/lib/libmpa/mpa_mul.c:226
    b898:	3940efa0 	ldrb	w0, [x29,#59]
    b89c:	7100001f 	cmp	w0, #0x0
    b8a0:	54000080 	b.eq	b8b0 <mpa_mul_word+0xf8>
/home/rex/devel/optee/optee_os/lib/libmpa/mpa_mul.c:227
    b8a4:	9100c3a0 	add	x0, x29, #0x30
    b8a8:	f9400ba1 	ldr	x1, [x29,#16]
    b8ac:	97fffe51 	bl	b1f0 <mpa_free_static_temp_var>
/home/rex/devel/optee/optee_os/lib/libmpa/mpa_mul.c:228
    b8b0:	a8c47bfd 	ldp	x29, x30, [sp],#64
    b8b4:	d65f03c0 	ret

000000000000b8b8 <mpa_set_random_generator>:
mpa_set_random_generator():
/home/rex/devel/optee/optee_os/lib/libmpa/mpa_random.c:33
    b8b8:	d10043ff 	sub	sp, sp, #0x10
    b8bc:	f90007e0 	str	x0, [sp,#8]
/home/rex/devel/optee/optee_os/lib/libmpa/mpa_random.c:34
    b8c0:	f0000060 	adrp	x0, 1a000 <mempool_u32+0xe80>
    b8c4:	91350000 	add	x0, x0, #0xd40
    b8c8:	f94007e1 	ldr	x1, [sp,#8]
    b8cc:	f9000001 	str	x1, [x0]
/home/rex/devel/optee/optee_os/lib/libmpa/mpa_random.c:35
    b8d0:	d503201f 	nop
    b8d4:	910043ff 	add	sp, sp, #0x10
    b8d8:	d65f03c0 	ret

000000000000b8dc <get_random_byte>:
get_random_byte():
/home/rex/devel/optee/optee_os/lib/libmpa/mpa_random.c:38
    b8dc:	a9be7bfd 	stp	x29, x30, [sp,#-32]!
    b8e0:	910003fd 	mov	x29, sp
/home/rex/devel/optee/optee_os/lib/libmpa/mpa_random.c:40
    b8e4:	d503201f 	nop
/home/rex/devel/optee/optee_os/lib/libmpa/mpa_random.c:40 (discriminator 1)
    b8e8:	f0000060 	adrp	x0, 1a000 <mempool_u32+0xe80>
    b8ec:	91350000 	add	x0, x0, #0xd40
    b8f0:	f9400002 	ldr	x2, [x0]
    b8f4:	91007fa0 	add	x0, x29, #0x1f
    b8f8:	d2800021 	mov	x1, #0x1                   	// #1
    b8fc:	d63f0040 	blr	x2
    b900:	7100001f 	cmp	w0, #0x0
    b904:	54ffff21 	b.ne	b8e8 <get_random_byte+0xc>
/home/rex/devel/optee/optee_os/lib/libmpa/mpa_random.c:43
    b908:	39407fa0 	ldrb	w0, [x29,#31]
/home/rex/devel/optee/optee_os/lib/libmpa/mpa_random.c:44
    b90c:	a8c27bfd 	ldp	x29, x30, [sp],#32
    b910:	d65f03c0 	ret

000000000000b914 <mpa_get_random>:
mpa_get_random():
/home/rex/devel/optee/optee_os/lib/libmpa/mpa_random.c:52
    b914:	a9bb7bfd 	stp	x29, x30, [sp,#-80]!
    b918:	910003fd 	mov	x29, sp
    b91c:	f9000bf3 	str	x19, [sp,#16]
    b920:	f90017a0 	str	x0, [x29,#40]
    b924:	f90013a1 	str	x1, [x29,#32]
/home/rex/devel/optee/optee_os/lib/libmpa/mpa_random.c:53
    b928:	b9004fbf 	str	wzr, [x29,#76]
/home/rex/devel/optee/optee_os/lib/libmpa/mpa_random.c:55
    b92c:	f94017a0 	ldr	x0, [x29,#40]
    b930:	97fff288 	bl	8350 <mpa_wipe>
/home/rex/devel/optee/optee_os/lib/libmpa/mpa_random.c:56
    b934:	f94017a0 	ldr	x0, [x29,#40]
    b938:	b9400001 	ldr	w1, [x0]
    b93c:	f94013a0 	ldr	x0, [x29,#32]
    b940:	b9400400 	ldr	w0, [x0,#4]
    b944:	7100001f 	cmp	w0, #0x0
    b948:	5a80a400 	cneg	w0, w0, lt
    b94c:	6b00003f 	cmp	w1, w0
    b950:	540000e2 	b.cs	b96c <mpa_get_random+0x58>
/home/rex/devel/optee/optee_os/lib/libmpa/mpa_random.c:57
    b954:	f94017a0 	ldr	x0, [x29,#40]
    b958:	b9400000 	ldr	w0, [x0]
    b95c:	2a0003e1 	mov	w1, w0
    b960:	f94017a0 	ldr	x0, [x29,#40]
    b964:	b9000401 	str	w1, [x0,#4]
    b968:	14000059 	b	bacc <mpa_get_random+0x1b8>
/home/rex/devel/optee/optee_os/lib/libmpa/mpa_random.c:59
    b96c:	f94013a0 	ldr	x0, [x29,#32]
    b970:	b9400400 	ldr	w0, [x0,#4]
    b974:	7100001f 	cmp	w0, #0x0
    b978:	5a80a401 	cneg	w1, w0, lt
    b97c:	f94017a0 	ldr	x0, [x29,#40]
    b980:	b9000401 	str	w1, [x0,#4]
/home/rex/devel/optee/optee_os/lib/libmpa/mpa_random.c:60
    b984:	14000052 	b	bacc <mpa_get_random+0x1b8>
/home/rex/devel/optee/optee_os/lib/libmpa/mpa_random.c:61
    b988:	b9004bbf 	str	wzr, [x29,#72]
    b98c:	14000019 	b	b9f0 <mpa_get_random+0xdc>
/home/rex/devel/optee/optee_os/lib/libmpa/mpa_random.c:62
    b990:	b90047bf 	str	wzr, [x29,#68]
/home/rex/devel/optee/optee_os/lib/libmpa/mpa_random.c:63
    b994:	b90043bf 	str	wzr, [x29,#64]
    b998:	1400000a 	b	b9c0 <mpa_get_random+0xac>
/home/rex/devel/optee/optee_os/lib/libmpa/mpa_random.c:64 (discriminator 3)
    b99c:	b94047a0 	ldr	w0, [x29,#68]
    b9a0:	53185c13 	lsl	w19, w0, #8
    b9a4:	97ffffce 	bl	b8dc <get_random_byte>
    b9a8:	12001c00 	and	w0, w0, #0xff
    b9ac:	4a000260 	eor	w0, w19, w0
    b9b0:	b90047a0 	str	w0, [x29,#68]
/home/rex/devel/optee/optee_os/lib/libmpa/mpa_random.c:63 (discriminator 3)
    b9b4:	b94043a0 	ldr	w0, [x29,#64]
    b9b8:	11000400 	add	w0, w0, #0x1
    b9bc:	b90043a0 	str	w0, [x29,#64]
/home/rex/devel/optee/optee_os/lib/libmpa/mpa_random.c:63 (discriminator 1)
    b9c0:	b94043a0 	ldr	w0, [x29,#64]
    b9c4:	71000c1f 	cmp	w0, #0x3
    b9c8:	54fffead 	b.le	b99c <mpa_get_random+0x88>
/home/rex/devel/optee/optee_os/lib/libmpa/mpa_random.c:65 (discriminator 2)
    b9cc:	f94017a1 	ldr	x1, [x29,#40]
    b9d0:	b9804ba0 	ldrsw	x0, [x29,#72]
    b9d4:	d37ef400 	lsl	x0, x0, #2
    b9d8:	8b000020 	add	x0, x1, x0
    b9dc:	b94047a1 	ldr	w1, [x29,#68]
    b9e0:	b9000801 	str	w1, [x0,#8]
/home/rex/devel/optee/optee_os/lib/libmpa/mpa_random.c:61 (discriminator 2)
    b9e4:	b9404ba0 	ldr	w0, [x29,#72]
    b9e8:	11000400 	add	w0, w0, #0x1
    b9ec:	b9004ba0 	str	w0, [x29,#72]
/home/rex/devel/optee/optee_os/lib/libmpa/mpa_random.c:61 (discriminator 1)
    b9f0:	f94017a0 	ldr	x0, [x29,#40]
    b9f4:	b9400401 	ldr	w1, [x0,#4]
    b9f8:	b9404ba0 	ldr	w0, [x29,#72]
    b9fc:	6b00003f 	cmp	w1, w0
    ba00:	54fffc8c 	b.gt	b990 <mpa_get_random+0x7c>
/home/rex/devel/optee/optee_os/lib/libmpa/mpa_random.c:67
    ba04:	f94017a0 	ldr	x0, [x29,#40]
    ba08:	b9400401 	ldr	w1, [x0,#4]
    ba0c:	f94013a0 	ldr	x0, [x29,#32]
    ba10:	b9400400 	ldr	w0, [x0,#4]
    ba14:	7100001f 	cmp	w0, #0x0
    ba18:	5a80a400 	cneg	w0, w0, lt
    ba1c:	6b00003f 	cmp	w1, w0
    ba20:	5400008a 	b.ge	ba30 <mpa_get_random+0x11c>
/home/rex/devel/optee/optee_os/lib/libmpa/mpa_random.c:68
    ba24:	52800020 	mov	w0, #0x1                   	// #1
    ba28:	b9004fa0 	str	w0, [x29,#76]
    ba2c:	14000028 	b	bacc <mpa_get_random+0x1b8>
/home/rex/devel/optee/optee_os/lib/libmpa/mpa_random.c:71
    ba30:	f94013a0 	ldr	x0, [x29,#32]
    ba34:	97fff289 	bl	8458 <mpa_highest_bit_index>
/home/rex/devel/optee/optee_os/lib/libmpa/mpa_random.c:70
    ba38:	b9003fa0 	str	w0, [x29,#60]
/home/rex/devel/optee/optee_os/lib/libmpa/mpa_random.c:73
    ba3c:	b9403fa0 	ldr	w0, [x29,#60]
    ba40:	12001000 	and	w0, w0, #0x1f
    ba44:	11000400 	add	w0, w0, #0x1
    ba48:	b9003fa0 	str	w0, [x29,#60]
/home/rex/devel/optee/optee_os/lib/libmpa/mpa_random.c:74
    ba4c:	b9403fa0 	ldr	w0, [x29,#60]
    ba50:	71007c1f 	cmp	w0, #0x1f
    ba54:	54000308 	b.hi	bab4 <mpa_get_random+0x1a0>
/home/rex/devel/optee/optee_os/lib/libmpa/mpa_random.c:75
    ba58:	b9403fa0 	ldr	w0, [x29,#60]
    ba5c:	52800021 	mov	w1, #0x1                   	// #1
    ba60:	1ac02020 	lsl	w0, w1, w0
    ba64:	51000400 	sub	w0, w0, #0x1
    ba68:	b9003fa0 	str	w0, [x29,#60]
/home/rex/devel/optee/optee_os/lib/libmpa/mpa_random.c:76
    ba6c:	f94017a0 	ldr	x0, [x29,#40]
    ba70:	b9400400 	ldr	w0, [x0,#4]
    ba74:	51000403 	sub	w3, w0, #0x1
    ba78:	f94017a0 	ldr	x0, [x29,#40]
    ba7c:	b9400400 	ldr	w0, [x0,#4]
    ba80:	51000400 	sub	w0, w0, #0x1
    ba84:	f94017a1 	ldr	x1, [x29,#40]
    ba88:	93407c00 	sxtw	x0, w0
    ba8c:	d37ef400 	lsl	x0, x0, #2
    ba90:	8b000020 	add	x0, x1, x0
    ba94:	b9400801 	ldr	w1, [x0,#8]
    ba98:	b9403fa0 	ldr	w0, [x29,#60]
    ba9c:	0a000021 	and	w1, w1, w0
    baa0:	f94017a2 	ldr	x2, [x29,#40]
    baa4:	93407c60 	sxtw	x0, w3
    baa8:	d37ef400 	lsl	x0, x0, #2
    baac:	8b000040 	add	x0, x2, x0
    bab0:	b9000801 	str	w1, [x0,#8]
/home/rex/devel/optee/optee_os/lib/libmpa/mpa_random.c:78
    bab4:	f94013a1 	ldr	x1, [x29,#32]
    bab8:	f94017a0 	ldr	x0, [x29,#40]
    babc:	940006e5 	bl	d650 <mpa_cmp>
    bac0:	531f7c00 	lsr	w0, w0, #31
    bac4:	12001c00 	and	w0, w0, #0xff
    bac8:	b9004fa0 	str	w0, [x29,#76]
/home/rex/devel/optee/optee_os/lib/libmpa/mpa_random.c:60
    bacc:	b9404fa0 	ldr	w0, [x29,#76]
    bad0:	7100001f 	cmp	w0, #0x0
    bad4:	54fff5a0 	b.eq	b988 <mpa_get_random+0x74>
/home/rex/devel/optee/optee_os/lib/libmpa/mpa_random.c:81
    bad8:	d503201f 	nop
    badc:	f9400bf3 	ldr	x19, [sp,#16]
    bae0:	a8c57bfd 	ldp	x29, x30, [sp],#80
    bae4:	d65f03c0 	ret

000000000000bae8 <mpa_get_random_digits>:
mpa_get_random_digits():
/home/rex/devel/optee/optee_os/lib/libmpa/mpa_random.c:84
    bae8:	a9be7bfd 	stp	x29, x30, [sp,#-32]!
    baec:	910003fd 	mov	x29, sp
    baf0:	f9000fa0 	str	x0, [x29,#24]
    baf4:	b90017a1 	str	w1, [x29,#20]
/home/rex/devel/optee/optee_os/lib/libmpa/mpa_random.c:85
    baf8:	f9400fa0 	ldr	x0, [x29,#24]
    bafc:	97fff215 	bl	8350 <mpa_wipe>
/home/rex/devel/optee/optee_os/lib/libmpa/mpa_random.c:87
    bb00:	f9400fa0 	ldr	x0, [x29,#24]
    bb04:	b9400001 	ldr	w1, [x0]
    bb08:	b94017a0 	ldr	w0, [x29,#20]
    bb0c:	6b00003f 	cmp	w1, w0
    bb10:	54000062 	b.cs	bb1c <mpa_get_random_digits+0x34>
/home/rex/devel/optee/optee_os/lib/libmpa/mpa_random.c:88
    bb14:	52800000 	mov	w0, #0x0                   	// #0
    bb18:	1400001a 	b	bb80 <mpa_get_random_digits+0x98>
/home/rex/devel/optee/optee_os/lib/libmpa/mpa_random.c:90
    bb1c:	f9400fa0 	ldr	x0, [x29,#24]
    bb20:	b94017a1 	ldr	w1, [x29,#20]
    bb24:	b9000401 	str	w1, [x0,#4]
/home/rex/devel/optee/optee_os/lib/libmpa/mpa_random.c:92
    bb28:	f0000060 	adrp	x0, 1a000 <mempool_u32+0xe80>
    bb2c:	91350000 	add	x0, x0, #0xd40
    bb30:	f9400002 	ldr	x2, [x0]
    bb34:	f9400fa0 	ldr	x0, [x29,#24]
    bb38:	91002003 	add	x3, x0, #0x8
    bb3c:	f9400fa0 	ldr	x0, [x29,#24]
    bb40:	b9400400 	ldr	w0, [x0,#4]
    bb44:	7100001f 	cmp	w0, #0x0
    bb48:	5a80a400 	cneg	w0, w0, lt
    bb4c:	531e7400 	lsl	w0, w0, #2
    bb50:	93407c00 	sxtw	x0, w0
    bb54:	aa0003e1 	mov	x1, x0
    bb58:	aa0303e0 	mov	x0, x3
    bb5c:	d63f0040 	blr	x2
    bb60:	7100001f 	cmp	w0, #0x0
    bb64:	54000060 	b.eq	bb70 <mpa_get_random_digits+0x88>
/home/rex/devel/optee/optee_os/lib/libmpa/mpa_random.c:93
    bb68:	52800000 	mov	w0, #0x0                   	// #0
    bb6c:	14000005 	b	bb80 <mpa_get_random_digits+0x98>
/home/rex/devel/optee/optee_os/lib/libmpa/mpa_random.c:95
    bb70:	f9400fa0 	ldr	x0, [x29,#24]
    bb74:	b9400400 	ldr	w0, [x0,#4]
    bb78:	7100001f 	cmp	w0, #0x0
    bb7c:	5a80a400 	cneg	w0, w0, lt
/home/rex/devel/optee/optee_os/lib/libmpa/mpa_random.c:96
    bb80:	a8c27bfd 	ldp	x29, x30, [sp],#32
    bb84:	d65f03c0 	ret

000000000000bb88 <__mpa_shift_words_left>:
__mpa_shift_words_left():
/home/rex/devel/optee/optee_os/lib/libmpa/mpa_shift.c:41
    bb88:	a9bd7bfd 	stp	x29, x30, [sp,#-48]!
    bb8c:	910003fd 	mov	x29, sp
    bb90:	f9000fa0 	str	x0, [x29,#24]
    bb94:	b90017a1 	str	w1, [x29,#20]
/home/rex/devel/optee/optee_os/lib/libmpa/mpa_shift.c:44
    bb98:	b94017a0 	ldr	w0, [x29,#20]
    bb9c:	7100001f 	cmp	w0, #0x0
    bba0:	54000860 	b.eq	bcac <__mpa_shift_words_left+0x124>
/home/rex/devel/optee/optee_os/lib/libmpa/mpa_shift.c:44 (discriminator 1)
    bba4:	f9400fa0 	ldr	x0, [x29,#24]
    bba8:	b9400400 	ldr	w0, [x0,#4]
    bbac:	7100001f 	cmp	w0, #0x0
    bbb0:	540007e0 	b.eq	bcac <__mpa_shift_words_left+0x124>
/home/rex/devel/optee/optee_os/lib/libmpa/mpa_shift.c:46
    bbb4:	f9400fa0 	ldr	x0, [x29,#24]
    bbb8:	b9400400 	ldr	w0, [x0,#4]
    bbbc:	7100001f 	cmp	w0, #0x0
    bbc0:	5a80a400 	cneg	w0, w0, lt
    bbc4:	2a0003e1 	mov	w1, w0
    bbc8:	b94017a0 	ldr	w0, [x29,#20]
    bbcc:	0b000020 	add	w0, w1, w0
    bbd0:	51000400 	sub	w0, w0, #0x1
    bbd4:	b9002fa0 	str	w0, [x29,#44]
    bbd8:	14000011 	b	bc1c <__mpa_shift_words_left+0x94>
/home/rex/devel/optee/optee_os/lib/libmpa/mpa_shift.c:47 (discriminator 3)
    bbdc:	b9402fa1 	ldr	w1, [x29,#44]
    bbe0:	b94017a0 	ldr	w0, [x29,#20]
    bbe4:	4b000020 	sub	w0, w1, w0
    bbe8:	f9400fa1 	ldr	x1, [x29,#24]
    bbec:	2a0003e0 	mov	w0, w0
    bbf0:	d37ef400 	lsl	x0, x0, #2
    bbf4:	8b000020 	add	x0, x1, x0
    bbf8:	b9400801 	ldr	w1, [x0,#8]
    bbfc:	f9400fa2 	ldr	x2, [x29,#24]
    bc00:	b9402fa0 	ldr	w0, [x29,#44]
    bc04:	d37ef400 	lsl	x0, x0, #2
    bc08:	8b000040 	add	x0, x2, x0
    bc0c:	b9000801 	str	w1, [x0,#8]
/home/rex/devel/optee/optee_os/lib/libmpa/mpa_shift.c:46 (discriminator 3)
    bc10:	b9402fa0 	ldr	w0, [x29,#44]
    bc14:	51000400 	sub	w0, w0, #0x1
    bc18:	b9002fa0 	str	w0, [x29,#44]
/home/rex/devel/optee/optee_os/lib/libmpa/mpa_shift.c:46 (discriminator 1)
    bc1c:	b94017a0 	ldr	w0, [x29,#20]
    bc20:	51000401 	sub	w1, w0, #0x1
    bc24:	b9402fa0 	ldr	w0, [x29,#44]
    bc28:	6b00003f 	cmp	w1, w0
    bc2c:	54fffd83 	b.cc	bbdc <__mpa_shift_words_left+0x54>
/home/rex/devel/optee/optee_os/lib/libmpa/mpa_shift.c:49
    bc30:	f9400fa0 	ldr	x0, [x29,#24]
    bc34:	91002003 	add	x3, x0, #0x8
    bc38:	b94017a0 	ldr	w0, [x29,#20]
    bc3c:	531e7400 	lsl	w0, w0, #2
    bc40:	2a0003e0 	mov	w0, w0
    bc44:	aa0003e2 	mov	x2, x0
    bc48:	52800001 	mov	w1, #0x0                   	// #0
    bc4c:	aa0303e0 	mov	x0, x3
    bc50:	97ffe6cc 	bl	5780 <memset>
/home/rex/devel/optee/optee_os/lib/libmpa/mpa_shift.c:52
    bc54:	f9400fa0 	ldr	x0, [x29,#24]
    bc58:	b9400400 	ldr	w0, [x0,#4]
    bc5c:	7100001f 	cmp	w0, #0x0
    bc60:	5400014d 	b.le	bc88 <__mpa_shift_words_left+0x100>
/home/rex/devel/optee/optee_os/lib/libmpa/mpa_shift.c:53
    bc64:	f9400fa0 	ldr	x0, [x29,#24]
    bc68:	b9400400 	ldr	w0, [x0,#4]
    bc6c:	2a0003e1 	mov	w1, w0
    bc70:	b94017a0 	ldr	w0, [x29,#20]
    bc74:	0b000020 	add	w0, w1, w0
    bc78:	2a0003e1 	mov	w1, w0
    bc7c:	f9400fa0 	ldr	x0, [x29,#24]
    bc80:	b9000401 	str	w1, [x0,#4]
    bc84:	1400000b 	b	bcb0 <__mpa_shift_words_left+0x128>
/home/rex/devel/optee/optee_os/lib/libmpa/mpa_shift.c:55
    bc88:	f9400fa0 	ldr	x0, [x29,#24]
    bc8c:	b9400400 	ldr	w0, [x0,#4]
    bc90:	2a0003e1 	mov	w1, w0
    bc94:	b94017a0 	ldr	w0, [x29,#20]
    bc98:	4b000020 	sub	w0, w1, w0
    bc9c:	2a0003e1 	mov	w1, w0
    bca0:	f9400fa0 	ldr	x0, [x29,#24]
    bca4:	b9000401 	str	w1, [x0,#4]
    bca8:	14000002 	b	bcb0 <__mpa_shift_words_left+0x128>
/home/rex/devel/optee/optee_os/lib/libmpa/mpa_shift.c:45
    bcac:	d503201f 	nop
/home/rex/devel/optee/optee_os/lib/libmpa/mpa_shift.c:56
    bcb0:	a8c37bfd 	ldp	x29, x30, [sp],#48
    bcb4:	d65f03c0 	ret

000000000000bcb8 <__mpa_shift_words_right>:
__mpa_shift_words_right():
/home/rex/devel/optee/optee_os/lib/libmpa/mpa_shift.c:64
    bcb8:	a9bd7bfd 	stp	x29, x30, [sp,#-48]!
    bcbc:	910003fd 	mov	x29, sp
    bcc0:	f9000fa0 	str	x0, [x29,#24]
    bcc4:	b90017a1 	str	w1, [x29,#20]
/home/rex/devel/optee/optee_os/lib/libmpa/mpa_shift.c:67
    bcc8:	b94017a0 	ldr	w0, [x29,#20]
    bccc:	7100001f 	cmp	w0, #0x0
    bcd0:	54000860 	b.eq	bddc <__mpa_shift_words_right+0x124>
/home/rex/devel/optee/optee_os/lib/libmpa/mpa_shift.c:67 (discriminator 1)
    bcd4:	f9400fa0 	ldr	x0, [x29,#24]
    bcd8:	b9400400 	ldr	w0, [x0,#4]
    bcdc:	7100001f 	cmp	w0, #0x0
    bce0:	540007e0 	b.eq	bddc <__mpa_shift_words_right+0x124>
/home/rex/devel/optee/optee_os/lib/libmpa/mpa_shift.c:70
    bce4:	f9400fa0 	ldr	x0, [x29,#24]
    bce8:	b9400400 	ldr	w0, [x0,#4]
    bcec:	7100001f 	cmp	w0, #0x0
    bcf0:	5a80a400 	cneg	w0, w0, lt
    bcf4:	2a0003e1 	mov	w1, w0
    bcf8:	b94017a0 	ldr	w0, [x29,#20]
    bcfc:	6b00003f 	cmp	w1, w0
    bd00:	540000a8 	b.hi	bd14 <__mpa_shift_words_right+0x5c>
/home/rex/devel/optee/optee_os/lib/libmpa/mpa_shift.c:71
    bd04:	52800001 	mov	w1, #0x0                   	// #0
    bd08:	f9400fa0 	ldr	x0, [x29,#24]
    bd0c:	97fff58b 	bl	9338 <mpa_set_word>
/home/rex/devel/optee/optee_os/lib/libmpa/mpa_shift.c:72
    bd10:	14000034 	b	bde0 <__mpa_shift_words_right+0x128>
/home/rex/devel/optee/optee_os/lib/libmpa/mpa_shift.c:75
    bd14:	b9002fbf 	str	wzr, [x29,#44]
    bd18:	14000011 	b	bd5c <__mpa_shift_words_right+0xa4>
/home/rex/devel/optee/optee_os/lib/libmpa/mpa_shift.c:76 (discriminator 3)
    bd1c:	b9402fa1 	ldr	w1, [x29,#44]
    bd20:	b94017a0 	ldr	w0, [x29,#20]
    bd24:	0b000020 	add	w0, w1, w0
    bd28:	f9400fa1 	ldr	x1, [x29,#24]
    bd2c:	2a0003e0 	mov	w0, w0
    bd30:	d37ef400 	lsl	x0, x0, #2
    bd34:	8b000020 	add	x0, x1, x0
    bd38:	b9400801 	ldr	w1, [x0,#8]
    bd3c:	f9400fa2 	ldr	x2, [x29,#24]
    bd40:	b9402fa0 	ldr	w0, [x29,#44]
    bd44:	d37ef400 	lsl	x0, x0, #2
    bd48:	8b000040 	add	x0, x2, x0
    bd4c:	b9000801 	str	w1, [x0,#8]
/home/rex/devel/optee/optee_os/lib/libmpa/mpa_shift.c:75 (discriminator 3)
    bd50:	b9402fa0 	ldr	w0, [x29,#44]
    bd54:	11000400 	add	w0, w0, #0x1
    bd58:	b9002fa0 	str	w0, [x29,#44]
/home/rex/devel/optee/optee_os/lib/libmpa/mpa_shift.c:75 (discriminator 1)
    bd5c:	f9400fa0 	ldr	x0, [x29,#24]
    bd60:	b9400400 	ldr	w0, [x0,#4]
    bd64:	7100001f 	cmp	w0, #0x0
    bd68:	5a80a400 	cneg	w0, w0, lt
    bd6c:	2a0003e1 	mov	w1, w0
    bd70:	b94017a0 	ldr	w0, [x29,#20]
    bd74:	4b000021 	sub	w1, w1, w0
    bd78:	b9402fa0 	ldr	w0, [x29,#44]
    bd7c:	6b00003f 	cmp	w1, w0
    bd80:	54fffce8 	b.hi	bd1c <__mpa_shift_words_right+0x64>
/home/rex/devel/optee/optee_os/lib/libmpa/mpa_shift.c:79
    bd84:	f9400fa0 	ldr	x0, [x29,#24]
    bd88:	b9400400 	ldr	w0, [x0,#4]
    bd8c:	7100001f 	cmp	w0, #0x0
    bd90:	5400014d 	b.le	bdb8 <__mpa_shift_words_right+0x100>
/home/rex/devel/optee/optee_os/lib/libmpa/mpa_shift.c:80
    bd94:	f9400fa0 	ldr	x0, [x29,#24]
    bd98:	b9400400 	ldr	w0, [x0,#4]
    bd9c:	2a0003e1 	mov	w1, w0
    bda0:	b94017a0 	ldr	w0, [x29,#20]
    bda4:	4b000020 	sub	w0, w1, w0
    bda8:	2a0003e1 	mov	w1, w0
    bdac:	f9400fa0 	ldr	x0, [x29,#24]
    bdb0:	b9000401 	str	w1, [x0,#4]
    bdb4:	1400000b 	b	bde0 <__mpa_shift_words_right+0x128>
/home/rex/devel/optee/optee_os/lib/libmpa/mpa_shift.c:82
    bdb8:	f9400fa0 	ldr	x0, [x29,#24]
    bdbc:	b9400400 	ldr	w0, [x0,#4]
    bdc0:	2a0003e1 	mov	w1, w0
    bdc4:	b94017a0 	ldr	w0, [x29,#20]
    bdc8:	0b000020 	add	w0, w1, w0
    bdcc:	2a0003e1 	mov	w1, w0
    bdd0:	f9400fa0 	ldr	x0, [x29,#24]
    bdd4:	b9000401 	str	w1, [x0,#4]
    bdd8:	14000002 	b	bde0 <__mpa_shift_words_right+0x128>
/home/rex/devel/optee/optee_os/lib/libmpa/mpa_shift.c:68
    bddc:	d503201f 	nop
/home/rex/devel/optee/optee_os/lib/libmpa/mpa_shift.c:83
    bde0:	a8c37bfd 	ldp	x29, x30, [sp],#48
    bde4:	d65f03c0 	ret

000000000000bde8 <mpa_shift_left>:
mpa_shift_left():
/home/rex/devel/optee/optee_os/lib/libmpa/mpa_shift.c:98
    bde8:	a9bb7bfd 	stp	x29, x30, [sp,#-80]!
    bdec:	910003fd 	mov	x29, sp
    bdf0:	f90017a0 	str	x0, [x29,#40]
    bdf4:	f90013a1 	str	x1, [x29,#32]
    bdf8:	b9001fa2 	str	w2, [x29,#28]
/home/rex/devel/optee/optee_os/lib/libmpa/mpa_shift.c:110
    bdfc:	f94013a1 	ldr	x1, [x29,#32]
    be00:	f94017a0 	ldr	x0, [x29,#40]
    be04:	97fff165 	bl	8398 <mpa_copy>
/home/rex/devel/optee/optee_os/lib/libmpa/mpa_shift.c:111
    be08:	f94017a0 	ldr	x0, [x29,#40]
    be0c:	97fff137 	bl	82e8 <__mpa_set_unused_digits_to_zero>
/home/rex/devel/optee/optee_os/lib/libmpa/mpa_shift.c:112
    be10:	b9401fa0 	ldr	w0, [x29,#28]
    be14:	7100001f 	cmp	w0, #0x0
    be18:	54001a60 	b.eq	c164 <mpa_shift_left+0x37c>
/home/rex/devel/optee/optee_os/lib/libmpa/mpa_shift.c:112 (discriminator 1)
    be1c:	f94017a0 	ldr	x0, [x29,#40]
    be20:	b9400400 	ldr	w0, [x0,#4]
    be24:	7100001f 	cmp	w0, #0x0
    be28:	540019e0 	b.eq	c164 <mpa_shift_left+0x37c>
/home/rex/devel/optee/optee_os/lib/libmpa/mpa_shift.c:115
    be2c:	b9401fa0 	ldr	w0, [x29,#28]
    be30:	12001000 	and	w0, w0, #0x1f
    be34:	b90047a0 	str	w0, [x29,#68]
/home/rex/devel/optee/optee_os/lib/libmpa/mpa_shift.c:116
    be38:	b9401fa0 	ldr	w0, [x29,#28]
    be3c:	53057c00 	lsr	w0, w0, #5
    be40:	b90043a0 	str	w0, [x29,#64]
/home/rex/devel/optee/optee_os/lib/libmpa/mpa_shift.c:130
    be44:	b9004bbf 	str	wzr, [x29,#72]
/home/rex/devel/optee/optee_os/lib/libmpa/mpa_shift.c:132
    be48:	b94047a0 	ldr	w0, [x29,#68]
    be4c:	7100001f 	cmp	w0, #0x0
    be50:	54000421 	b.ne	bed4 <mpa_shift_left+0xec>
/home/rex/devel/optee/optee_os/lib/libmpa/mpa_shift.c:136
    be54:	f94017a0 	ldr	x0, [x29,#40]
    be58:	b9400400 	ldr	w0, [x0,#4]
    be5c:	7100001f 	cmp	w0, #0x0
    be60:	5a80a400 	cneg	w0, w0, lt
    be64:	2a0003e1 	mov	w1, w0
    be68:	b94043a0 	ldr	w0, [x29,#64]
    be6c:	0b000020 	add	w0, w1, w0
    be70:	51000400 	sub	w0, w0, #0x1
    be74:	b9004fa0 	str	w0, [x29,#76]
    be78:	14000011 	b	bebc <mpa_shift_left+0xd4>
/home/rex/devel/optee/optee_os/lib/libmpa/mpa_shift.c:137 (discriminator 3)
    be7c:	b9404fa1 	ldr	w1, [x29,#76]
    be80:	b94043a0 	ldr	w0, [x29,#64]
    be84:	4b000020 	sub	w0, w1, w0
    be88:	f94017a1 	ldr	x1, [x29,#40]
    be8c:	2a0003e0 	mov	w0, w0
    be90:	d37ef400 	lsl	x0, x0, #2
    be94:	8b000020 	add	x0, x1, x0
    be98:	b9400801 	ldr	w1, [x0,#8]
    be9c:	f94017a2 	ldr	x2, [x29,#40]
    bea0:	b9404fa0 	ldr	w0, [x29,#76]
    bea4:	d37ef400 	lsl	x0, x0, #2
    bea8:	8b000040 	add	x0, x2, x0
    beac:	b9000801 	str	w1, [x0,#8]
/home/rex/devel/optee/optee_os/lib/libmpa/mpa_shift.c:136 (discriminator 3)
    beb0:	b9404fa0 	ldr	w0, [x29,#76]
    beb4:	51000400 	sub	w0, w0, #0x1
    beb8:	b9004fa0 	str	w0, [x29,#76]
/home/rex/devel/optee/optee_os/lib/libmpa/mpa_shift.c:136 (discriminator 1)
    bebc:	b94043a0 	ldr	w0, [x29,#64]
    bec0:	51000401 	sub	w1, w0, #0x1
    bec4:	b9404fa0 	ldr	w0, [x29,#76]
    bec8:	6b00003f 	cmp	w1, w0
    becc:	54fffd83 	b.cc	be7c <mpa_shift_left+0x94>
    bed0:	14000082 	b	c0d8 <mpa_shift_left+0x2f0>
/home/rex/devel/optee/optee_os/lib/libmpa/mpa_shift.c:139
    bed4:	f94017a0 	ldr	x0, [x29,#40]
    bed8:	b9400400 	ldr	w0, [x0,#4]
    bedc:	7100001f 	cmp	w0, #0x0
    bee0:	5a80a400 	cneg	w0, w0, lt
    bee4:	51000400 	sub	w0, w0, #0x1
    bee8:	f94017a1 	ldr	x1, [x29,#40]
    beec:	93407c00 	sxtw	x0, w0
    bef0:	d37ef400 	lsl	x0, x0, #2
    bef4:	8b000020 	add	x0, x1, x0
    bef8:	b9400801 	ldr	w1, [x0,#8]
/home/rex/devel/optee/optee_os/lib/libmpa/mpa_shift.c:140
    befc:	b94047a0 	ldr	w0, [x29,#68]
    bf00:	52800022 	mov	w2, #0x1                   	// #1
    bf04:	1ac02040 	lsl	w0, w2, w0
    bf08:	51000402 	sub	w2, w0, #0x1
    bf0c:	52800403 	mov	w3, #0x20                  	// #32
    bf10:	b94047a0 	ldr	w0, [x29,#68]
    bf14:	4b000060 	sub	w0, w3, w0
    bf18:	1ac02040 	lsl	w0, w2, w0
/home/rex/devel/optee/optee_os/lib/libmpa/mpa_shift.c:139
    bf1c:	0a000020 	and	w0, w1, w0
    bf20:	7100001f 	cmp	w0, #0x0
    bf24:	54000060 	b.eq	bf30 <mpa_shift_left+0x148>
/home/rex/devel/optee/optee_os/lib/libmpa/mpa_shift.c:141
    bf28:	52800020 	mov	w0, #0x1                   	// #1
    bf2c:	b9004ba0 	str	w0, [x29,#72]
/home/rex/devel/optee/optee_os/lib/libmpa/mpa_shift.c:148
    bf30:	f94017a0 	ldr	x0, [x29,#40]
    bf34:	b9400400 	ldr	w0, [x0,#4]
    bf38:	7100001f 	cmp	w0, #0x0
    bf3c:	5a80a400 	cneg	w0, w0, lt
    bf40:	2a0003e1 	mov	w1, w0
    bf44:	b94043a0 	ldr	w0, [x29,#64]
    bf48:	0b000021 	add	w1, w1, w0
    bf4c:	b9404ba0 	ldr	w0, [x29,#72]
    bf50:	0b000020 	add	w0, w1, w0
    bf54:	b9004fa0 	str	w0, [x29,#76]
/home/rex/devel/optee/optee_os/lib/libmpa/mpa_shift.c:149
    bf58:	b9404ba0 	ldr	w0, [x29,#72]
    bf5c:	7100001f 	cmp	w0, #0x0
    bf60:	54000360 	b.eq	bfcc <mpa_shift_left+0x1e4>
/home/rex/devel/optee/optee_os/lib/libmpa/mpa_shift.c:150
    bf64:	b9404fa1 	ldr	w1, [x29,#76]
    bf68:	b94043a0 	ldr	w0, [x29,#64]
    bf6c:	4b000020 	sub	w0, w1, w0
    bf70:	51000400 	sub	w0, w0, #0x1
    bf74:	f94017a1 	ldr	x1, [x29,#40]
    bf78:	2a0003e0 	mov	w0, w0
    bf7c:	d37ef400 	lsl	x0, x0, #2
    bf80:	8b000020 	add	x0, x1, x0
    bf84:	b9400801 	ldr	w1, [x0,#8]
    bf88:	52800402 	mov	w2, #0x20                  	// #32
    bf8c:	b94047a0 	ldr	w0, [x29,#68]
    bf90:	4b000040 	sub	w0, w2, w0
    bf94:	1ac02420 	lsr	w0, w1, w0
    bf98:	b9003fa0 	str	w0, [x29,#60]
/home/rex/devel/optee/optee_os/lib/libmpa/mpa_shift.c:151
    bf9c:	f94017a1 	ldr	x1, [x29,#40]
    bfa0:	b9404fa0 	ldr	w0, [x29,#76]
    bfa4:	d37ef400 	lsl	x0, x0, #2
    bfa8:	8b000020 	add	x0, x1, x0
    bfac:	b9400801 	ldr	w1, [x0,#8]
    bfb0:	b9403fa0 	ldr	w0, [x29,#60]
    bfb4:	4a000021 	eor	w1, w1, w0
    bfb8:	f94017a2 	ldr	x2, [x29,#40]
    bfbc:	b9404fa0 	ldr	w0, [x29,#76]
    bfc0:	d37ef400 	lsl	x0, x0, #2
    bfc4:	8b000040 	add	x0, x2, x0
    bfc8:	b9000801 	str	w1, [x0,#8]
/home/rex/devel/optee/optee_os/lib/libmpa/mpa_shift.c:153
    bfcc:	b9404fa0 	ldr	w0, [x29,#76]
    bfd0:	51000400 	sub	w0, w0, #0x1
    bfd4:	b9004fa0 	str	w0, [x29,#76]
/home/rex/devel/optee/optee_os/lib/libmpa/mpa_shift.c:154
    bfd8:	b9404fa1 	ldr	w1, [x29,#76]
    bfdc:	b94043a0 	ldr	w0, [x29,#64]
    bfe0:	4b000020 	sub	w0, w1, w0
    bfe4:	f94017a1 	ldr	x1, [x29,#40]
    bfe8:	2a0003e0 	mov	w0, w0
    bfec:	d37ef400 	lsl	x0, x0, #2
    bff0:	8b000020 	add	x0, x1, x0
    bff4:	b9400801 	ldr	w1, [x0,#8]
    bff8:	b94047a0 	ldr	w0, [x29,#68]
    bffc:	1ac02021 	lsl	w1, w1, w0
    c000:	f94017a2 	ldr	x2, [x29,#40]
    c004:	b9404fa0 	ldr	w0, [x29,#76]
    c008:	d37ef400 	lsl	x0, x0, #2
    c00c:	8b000040 	add	x0, x2, x0
    c010:	b9000801 	str	w1, [x0,#8]
/home/rex/devel/optee/optee_os/lib/libmpa/mpa_shift.c:155
    c014:	1400002d 	b	c0c8 <mpa_shift_left+0x2e0>
/home/rex/devel/optee/optee_os/lib/libmpa/mpa_shift.c:156
    c018:	b9404fa1 	ldr	w1, [x29,#76]
    c01c:	b94043a0 	ldr	w0, [x29,#64]
    c020:	4b000020 	sub	w0, w1, w0
    c024:	51000400 	sub	w0, w0, #0x1
    c028:	f94017a1 	ldr	x1, [x29,#40]
    c02c:	2a0003e0 	mov	w0, w0
    c030:	d37ef400 	lsl	x0, x0, #2
    c034:	8b000020 	add	x0, x1, x0
    c038:	b9400801 	ldr	w1, [x0,#8]
    c03c:	52800402 	mov	w2, #0x20                  	// #32
    c040:	b94047a0 	ldr	w0, [x29,#68]
    c044:	4b000040 	sub	w0, w2, w0
    c048:	1ac02420 	lsr	w0, w1, w0
    c04c:	b9003fa0 	str	w0, [x29,#60]
/home/rex/devel/optee/optee_os/lib/libmpa/mpa_shift.c:157
    c050:	f94017a1 	ldr	x1, [x29,#40]
    c054:	b9404fa0 	ldr	w0, [x29,#76]
    c058:	d37ef400 	lsl	x0, x0, #2
    c05c:	8b000020 	add	x0, x1, x0
    c060:	b9400801 	ldr	w1, [x0,#8]
    c064:	b9403fa0 	ldr	w0, [x29,#60]
    c068:	4a000021 	eor	w1, w1, w0
    c06c:	f94017a2 	ldr	x2, [x29,#40]
    c070:	b9404fa0 	ldr	w0, [x29,#76]
    c074:	d37ef400 	lsl	x0, x0, #2
    c078:	8b000040 	add	x0, x2, x0
    c07c:	b9000801 	str	w1, [x0,#8]
/home/rex/devel/optee/optee_os/lib/libmpa/mpa_shift.c:158
    c080:	b9404fa0 	ldr	w0, [x29,#76]
    c084:	51000400 	sub	w0, w0, #0x1
    c088:	b9004fa0 	str	w0, [x29,#76]
/home/rex/devel/optee/optee_os/lib/libmpa/mpa_shift.c:159
    c08c:	b9404fa1 	ldr	w1, [x29,#76]
    c090:	b94043a0 	ldr	w0, [x29,#64]
    c094:	4b000020 	sub	w0, w1, w0
    c098:	f94017a1 	ldr	x1, [x29,#40]
    c09c:	2a0003e0 	mov	w0, w0
    c0a0:	d37ef400 	lsl	x0, x0, #2
    c0a4:	8b000020 	add	x0, x1, x0
    c0a8:	b9400801 	ldr	w1, [x0,#8]
    c0ac:	b94047a0 	ldr	w0, [x29,#68]
    c0b0:	1ac02021 	lsl	w1, w1, w0
    c0b4:	f94017a2 	ldr	x2, [x29,#40]
    c0b8:	b9404fa0 	ldr	w0, [x29,#76]
    c0bc:	d37ef400 	lsl	x0, x0, #2
    c0c0:	8b000040 	add	x0, x2, x0
    c0c4:	b9000801 	str	w1, [x0,#8]
/home/rex/devel/optee/optee_os/lib/libmpa/mpa_shift.c:155
    c0c8:	b9404fa1 	ldr	w1, [x29,#76]
    c0cc:	b94043a0 	ldr	w0, [x29,#64]
    c0d0:	6b00003f 	cmp	w1, w0
    c0d4:	54fffa28 	b.hi	c018 <mpa_shift_left+0x230>
/home/rex/devel/optee/optee_os/lib/libmpa/mpa_shift.c:162
    c0d8:	f94017a0 	ldr	x0, [x29,#40]
    c0dc:	91002003 	add	x3, x0, #0x8
    c0e0:	b94043a0 	ldr	w0, [x29,#64]
    c0e4:	531e7400 	lsl	w0, w0, #2
    c0e8:	2a0003e0 	mov	w0, w0
    c0ec:	aa0003e2 	mov	x2, x0
    c0f0:	52800001 	mov	w1, #0x0                   	// #0
    c0f4:	aa0303e0 	mov	x0, x3
    c0f8:	97ffe5a2 	bl	5780 <memset>
/home/rex/devel/optee/optee_os/lib/libmpa/mpa_shift.c:164
    c0fc:	f94017a0 	ldr	x0, [x29,#40]
    c100:	b9400400 	ldr	w0, [x0,#4]
    c104:	7100001f 	cmp	w0, #0x0
    c108:	5400018d 	b.le	c138 <mpa_shift_left+0x350>
/home/rex/devel/optee/optee_os/lib/libmpa/mpa_shift.c:165
    c10c:	f94017a0 	ldr	x0, [x29,#40]
    c110:	b9400400 	ldr	w0, [x0,#4]
    c114:	2a0003e2 	mov	w2, w0
    c118:	b94043a1 	ldr	w1, [x29,#64]
    c11c:	b9404ba0 	ldr	w0, [x29,#72]
    c120:	0b000020 	add	w0, w1, w0
    c124:	0b000040 	add	w0, w2, w0
    c128:	2a0003e1 	mov	w1, w0
    c12c:	f94017a0 	ldr	x0, [x29,#40]
    c130:	b9000401 	str	w1, [x0,#4]
    c134:	1400000d 	b	c168 <mpa_shift_left+0x380>
/home/rex/devel/optee/optee_os/lib/libmpa/mpa_shift.c:167
    c138:	f94017a0 	ldr	x0, [x29,#40]
    c13c:	b9400400 	ldr	w0, [x0,#4]
    c140:	2a0003e2 	mov	w2, w0
    c144:	b94043a1 	ldr	w1, [x29,#64]
    c148:	b9404ba0 	ldr	w0, [x29,#72]
    c14c:	0b000020 	add	w0, w1, w0
    c150:	4b000040 	sub	w0, w2, w0
    c154:	2a0003e1 	mov	w1, w0
    c158:	f94017a0 	ldr	x0, [x29,#40]
    c15c:	b9000401 	str	w1, [x0,#4]
    c160:	14000002 	b	c168 <mpa_shift_left+0x380>
/home/rex/devel/optee/optee_os/lib/libmpa/mpa_shift.c:113
    c164:	d503201f 	nop
/home/rex/devel/optee/optee_os/lib/libmpa/mpa_shift.c:168
    c168:	a8c57bfd 	ldp	x29, x30, [sp],#80
    c16c:	d65f03c0 	ret

000000000000c170 <mpa_shift_right>:
mpa_shift_right():
/home/rex/devel/optee/optee_os/lib/libmpa/mpa_shift.c:179
    c170:	a9bc7bfd 	stp	x29, x30, [sp,#-64]!
    c174:	910003fd 	mov	x29, sp
    c178:	f90017a0 	str	x0, [x29,#40]
    c17c:	f90013a1 	str	x1, [x29,#32]
    c180:	b9001fa2 	str	w2, [x29,#28]
/home/rex/devel/optee/optee_os/lib/libmpa/mpa_shift.c:190
    c184:	f94013a1 	ldr	x1, [x29,#32]
    c188:	f94017a0 	ldr	x0, [x29,#40]
    c18c:	97fff083 	bl	8398 <mpa_copy>
/home/rex/devel/optee/optee_os/lib/libmpa/mpa_shift.c:191
    c190:	f94017a0 	ldr	x0, [x29,#40]
    c194:	97fff055 	bl	82e8 <__mpa_set_unused_digits_to_zero>
/home/rex/devel/optee/optee_os/lib/libmpa/mpa_shift.c:192
    c198:	b9401fa0 	ldr	w0, [x29,#28]
    c19c:	7100001f 	cmp	w0, #0x0
    c1a0:	540016a0 	b.eq	c474 <mpa_shift_right+0x304>
/home/rex/devel/optee/optee_os/lib/libmpa/mpa_shift.c:192 (discriminator 1)
    c1a4:	f94017a0 	ldr	x0, [x29,#40]
    c1a8:	b9400400 	ldr	w0, [x0,#4]
    c1ac:	7100001f 	cmp	w0, #0x0
    c1b0:	54001620 	b.eq	c474 <mpa_shift_right+0x304>
/home/rex/devel/optee/optee_os/lib/libmpa/mpa_shift.c:195
    c1b4:	b9401fa0 	ldr	w0, [x29,#28]
    c1b8:	12001000 	and	w0, w0, #0x1f
    c1bc:	b9003ba0 	str	w0, [x29,#56]
/home/rex/devel/optee/optee_os/lib/libmpa/mpa_shift.c:196
    c1c0:	b9401fa0 	ldr	w0, [x29,#28]
    c1c4:	53057c00 	lsr	w0, w0, #5
    c1c8:	b90037a0 	str	w0, [x29,#52]
/home/rex/devel/optee/optee_os/lib/libmpa/mpa_shift.c:198
    c1cc:	f94017a0 	ldr	x0, [x29,#40]
    c1d0:	b9400400 	ldr	w0, [x0,#4]
    c1d4:	7100001f 	cmp	w0, #0x0
    c1d8:	5a80a400 	cneg	w0, w0, lt
    c1dc:	2a0003e1 	mov	w1, w0
    c1e0:	b94037a0 	ldr	w0, [x29,#52]
    c1e4:	6b00003f 	cmp	w1, w0
    c1e8:	540000a8 	b.hi	c1fc <mpa_shift_right+0x8c>
/home/rex/devel/optee/optee_os/lib/libmpa/mpa_shift.c:199
    c1ec:	52800001 	mov	w1, #0x0                   	// #0
    c1f0:	f94017a0 	ldr	x0, [x29,#40]
    c1f4:	97fff451 	bl	9338 <mpa_set_word>
/home/rex/devel/optee/optee_os/lib/libmpa/mpa_shift.c:200
    c1f8:	140000a0 	b	c478 <mpa_shift_right+0x308>
/home/rex/devel/optee/optee_os/lib/libmpa/mpa_shift.c:208
    c1fc:	b9403ba0 	ldr	w0, [x29,#56]
    c200:	7100001f 	cmp	w0, #0x0
    c204:	540003c1 	b.ne	c27c <mpa_shift_right+0x10c>
/home/rex/devel/optee/optee_os/lib/libmpa/mpa_shift.c:210
    c208:	b9003fbf 	str	wzr, [x29,#60]
    c20c:	14000011 	b	c250 <mpa_shift_right+0xe0>
/home/rex/devel/optee/optee_os/lib/libmpa/mpa_shift.c:211 (discriminator 3)
    c210:	b9403fa1 	ldr	w1, [x29,#60]
    c214:	b94037a0 	ldr	w0, [x29,#52]
    c218:	0b000020 	add	w0, w1, w0
    c21c:	f94017a1 	ldr	x1, [x29,#40]
    c220:	2a0003e0 	mov	w0, w0
    c224:	d37ef400 	lsl	x0, x0, #2
    c228:	8b000020 	add	x0, x1, x0
    c22c:	b9400801 	ldr	w1, [x0,#8]
    c230:	f94017a2 	ldr	x2, [x29,#40]
    c234:	b9403fa0 	ldr	w0, [x29,#60]
    c238:	d37ef400 	lsl	x0, x0, #2
    c23c:	8b000040 	add	x0, x2, x0
    c240:	b9000801 	str	w1, [x0,#8]
/home/rex/devel/optee/optee_os/lib/libmpa/mpa_shift.c:210 (discriminator 3)
    c244:	b9403fa0 	ldr	w0, [x29,#60]
    c248:	11000400 	add	w0, w0, #0x1
    c24c:	b9003fa0 	str	w0, [x29,#60]
/home/rex/devel/optee/optee_os/lib/libmpa/mpa_shift.c:210 (discriminator 1)
    c250:	f94017a0 	ldr	x0, [x29,#40]
    c254:	b9400400 	ldr	w0, [x0,#4]
    c258:	7100001f 	cmp	w0, #0x0
    c25c:	5a80a400 	cneg	w0, w0, lt
    c260:	2a0003e1 	mov	w1, w0
    c264:	b94037a0 	ldr	w0, [x29,#52]
    c268:	4b000021 	sub	w1, w1, w0
    c26c:	b9403fa0 	ldr	w0, [x29,#60]
    c270:	6b00003f 	cmp	w1, w0
    c274:	54fffce8 	b.hi	c210 <mpa_shift_right+0xa0>
    c278:	1400004e 	b	c3b0 <mpa_shift_right+0x240>
/home/rex/devel/optee/optee_os/lib/libmpa/mpa_shift.c:214
    c27c:	b9003fbf 	str	wzr, [x29,#60]
    c280:	14000032 	b	c348 <mpa_shift_right+0x1d8>
/home/rex/devel/optee/optee_os/lib/libmpa/mpa_shift.c:215 (discriminator 3)
    c284:	b9403fa1 	ldr	w1, [x29,#60]
    c288:	b94037a0 	ldr	w0, [x29,#52]
    c28c:	0b000020 	add	w0, w1, w0
    c290:	f94017a1 	ldr	x1, [x29,#40]
    c294:	2a0003e0 	mov	w0, w0
    c298:	d37ef400 	lsl	x0, x0, #2
    c29c:	8b000020 	add	x0, x1, x0
    c2a0:	b9400801 	ldr	w1, [x0,#8]
    c2a4:	f94017a2 	ldr	x2, [x29,#40]
    c2a8:	b9403fa0 	ldr	w0, [x29,#60]
    c2ac:	d37ef400 	lsl	x0, x0, #2
    c2b0:	8b000040 	add	x0, x2, x0
    c2b4:	b9000801 	str	w1, [x0,#8]
/home/rex/devel/optee/optee_os/lib/libmpa/mpa_shift.c:216 (discriminator 3)
    c2b8:	b9403fa1 	ldr	w1, [x29,#60]
    c2bc:	b94037a0 	ldr	w0, [x29,#52]
    c2c0:	0b000020 	add	w0, w1, w0
    c2c4:	11000400 	add	w0, w0, #0x1
    c2c8:	f94017a1 	ldr	x1, [x29,#40]
    c2cc:	2a0003e0 	mov	w0, w0
    c2d0:	d37ef400 	lsl	x0, x0, #2
    c2d4:	8b000020 	add	x0, x1, x0
    c2d8:	b9400801 	ldr	w1, [x0,#8]
    c2dc:	b9403ba0 	ldr	w0, [x29,#56]
    c2e0:	d2800022 	mov	x2, #0x1                   	// #1
    c2e4:	9ac02040 	lsl	x0, x2, x0
    c2e8:	51000400 	sub	w0, w0, #0x1
    c2ec:	0a000020 	and	w0, w1, w0
    c2f0:	b90033a0 	str	w0, [x29,#48]
/home/rex/devel/optee/optee_os/lib/libmpa/mpa_shift.c:218 (discriminator 3)
    c2f4:	f94017a1 	ldr	x1, [x29,#40]
    c2f8:	b9403fa0 	ldr	w0, [x29,#60]
    c2fc:	d37ef400 	lsl	x0, x0, #2
    c300:	8b000020 	add	x0, x1, x0
    c304:	b9400801 	ldr	w1, [x0,#8]
    c308:	b9403ba0 	ldr	w0, [x29,#56]
    c30c:	1ac02421 	lsr	w1, w1, w0
    c310:	52800402 	mov	w2, #0x20                  	// #32
    c314:	b9403ba0 	ldr	w0, [x29,#56]
    c318:	4b000040 	sub	w0, w2, w0
    c31c:	b94033a2 	ldr	w2, [x29,#48]
    c320:	1ac02040 	lsl	w0, w2, w0
    c324:	4a000021 	eor	w1, w1, w0
/home/rex/devel/optee/optee_os/lib/libmpa/mpa_shift.c:217 (discriminator 3)
    c328:	f94017a2 	ldr	x2, [x29,#40]
    c32c:	b9403fa0 	ldr	w0, [x29,#60]
    c330:	d37ef400 	lsl	x0, x0, #2
    c334:	8b000040 	add	x0, x2, x0
    c338:	b9000801 	str	w1, [x0,#8]
/home/rex/devel/optee/optee_os/lib/libmpa/mpa_shift.c:214 (discriminator 3)
    c33c:	b9403fa0 	ldr	w0, [x29,#60]
    c340:	11000400 	add	w0, w0, #0x1
    c344:	b9003fa0 	str	w0, [x29,#60]
/home/rex/devel/optee/optee_os/lib/libmpa/mpa_shift.c:214 (discriminator 1)
    c348:	f94017a0 	ldr	x0, [x29,#40]
    c34c:	b9400400 	ldr	w0, [x0,#4]
    c350:	7100001f 	cmp	w0, #0x0
    c354:	5a80a400 	cneg	w0, w0, lt
    c358:	2a0003e1 	mov	w1, w0
    c35c:	b94037a0 	ldr	w0, [x29,#52]
    c360:	4b000020 	sub	w0, w1, w0
    c364:	51000401 	sub	w1, w0, #0x1
    c368:	b9403fa0 	ldr	w0, [x29,#60]
    c36c:	6b00003f 	cmp	w1, w0
    c370:	54fff8a8 	b.hi	c284 <mpa_shift_right+0x114>
/home/rex/devel/optee/optee_os/lib/libmpa/mpa_shift.c:221
    c374:	b9403fa1 	ldr	w1, [x29,#60]
    c378:	b94037a0 	ldr	w0, [x29,#52]
    c37c:	0b000020 	add	w0, w1, w0
    c380:	f94017a1 	ldr	x1, [x29,#40]
    c384:	2a0003e0 	mov	w0, w0
    c388:	d37ef400 	lsl	x0, x0, #2
    c38c:	8b000020 	add	x0, x1, x0
    c390:	b9400801 	ldr	w1, [x0,#8]
    c394:	b9403ba0 	ldr	w0, [x29,#56]
    c398:	1ac02421 	lsr	w1, w1, w0
    c39c:	f94017a2 	ldr	x2, [x29,#40]
    c3a0:	b9403fa0 	ldr	w0, [x29,#60]
    c3a4:	d37ef400 	lsl	x0, x0, #2
    c3a8:	8b000040 	add	x0, x2, x0
    c3ac:	b9000801 	str	w1, [x0,#8]
/home/rex/devel/optee/optee_os/lib/libmpa/mpa_shift.c:225
    c3b0:	f94017a0 	ldr	x0, [x29,#40]
    c3b4:	b9400400 	ldr	w0, [x0,#4]
    c3b8:	7100001f 	cmp	w0, #0x0
    c3bc:	5400014d 	b.le	c3e4 <mpa_shift_right+0x274>
/home/rex/devel/optee/optee_os/lib/libmpa/mpa_shift.c:226
    c3c0:	f94017a0 	ldr	x0, [x29,#40]
    c3c4:	b9400400 	ldr	w0, [x0,#4]
    c3c8:	2a0003e1 	mov	w1, w0
    c3cc:	b94037a0 	ldr	w0, [x29,#52]
    c3d0:	4b000020 	sub	w0, w1, w0
    c3d4:	2a0003e1 	mov	w1, w0
    c3d8:	f94017a0 	ldr	x0, [x29,#40]
    c3dc:	b9000401 	str	w1, [x0,#4]
    c3e0:	14000009 	b	c404 <mpa_shift_right+0x294>
/home/rex/devel/optee/optee_os/lib/libmpa/mpa_shift.c:228
    c3e4:	f94017a0 	ldr	x0, [x29,#40]
    c3e8:	b9400400 	ldr	w0, [x0,#4]
    c3ec:	2a0003e1 	mov	w1, w0
    c3f0:	b94037a0 	ldr	w0, [x29,#52]
    c3f4:	0b000020 	add	w0, w1, w0
    c3f8:	2a0003e1 	mov	w1, w0
    c3fc:	f94017a0 	ldr	x0, [x29,#40]
    c400:	b9000401 	str	w1, [x0,#4]
/home/rex/devel/optee/optee_os/lib/libmpa/mpa_shift.c:231
    c404:	f94017a0 	ldr	x0, [x29,#40]
    c408:	b9400400 	ldr	w0, [x0,#4]
    c40c:	7100001f 	cmp	w0, #0x0
    c410:	5a80a400 	cneg	w0, w0, lt
    c414:	51000400 	sub	w0, w0, #0x1
    c418:	f94017a1 	ldr	x1, [x29,#40]
    c41c:	93407c00 	sxtw	x0, w0
    c420:	d37ef400 	lsl	x0, x0, #2
    c424:	8b000020 	add	x0, x1, x0
    c428:	b9400800 	ldr	w0, [x0,#8]
    c42c:	7100001f 	cmp	w0, #0x0
    c430:	54000241 	b.ne	c478 <mpa_shift_right+0x308>
/home/rex/devel/optee/optee_os/lib/libmpa/mpa_shift.c:232
    c434:	f94017a0 	ldr	x0, [x29,#40]
    c438:	b9400400 	ldr	w0, [x0,#4]
    c43c:	7100001f 	cmp	w0, #0x0
    c440:	540000ed 	b.le	c45c <mpa_shift_right+0x2ec>
/home/rex/devel/optee/optee_os/lib/libmpa/mpa_shift.c:233
    c444:	f94017a0 	ldr	x0, [x29,#40]
    c448:	b9400400 	ldr	w0, [x0,#4]
    c44c:	51000401 	sub	w1, w0, #0x1
    c450:	f94017a0 	ldr	x0, [x29,#40]
    c454:	b9000401 	str	w1, [x0,#4]
    c458:	14000008 	b	c478 <mpa_shift_right+0x308>
/home/rex/devel/optee/optee_os/lib/libmpa/mpa_shift.c:235
    c45c:	f94017a0 	ldr	x0, [x29,#40]
    c460:	b9400400 	ldr	w0, [x0,#4]
    c464:	11000401 	add	w1, w0, #0x1
    c468:	f94017a0 	ldr	x0, [x29,#40]
    c46c:	b9000401 	str	w1, [x0,#4]
    c470:	14000002 	b	c478 <mpa_shift_right+0x308>
/home/rex/devel/optee/optee_os/lib/libmpa/mpa_shift.c:193
    c474:	d503201f 	nop
/home/rex/devel/optee/optee_os/lib/libmpa/mpa_shift.c:237
    c478:	a8c47bfd 	ldp	x29, x30, [sp],#64
    c47c:	d65f03c0 	ret

000000000000c480 <__mpa_full_adder>:
__mpa_full_adder():
/home/rex/devel/optee/optee_os/lib/libmpa/mpa_addsub.c:51
    c480:	d100c3ff 	sub	sp, sp, #0x30
    c484:	b9001fe0 	str	w0, [sp,#28]
    c488:	b9001be1 	str	w1, [sp,#24]
    c48c:	f9000be2 	str	x2, [sp,#16]
    c490:	f90007e3 	str	x3, [sp,#8]
/home/rex/devel/optee/optee_os/lib/libmpa/mpa_addsub.c:54
    c494:	b9401fe1 	ldr	w1, [sp,#28]
    c498:	b9401be0 	ldr	w0, [sp,#24]
    c49c:	8b000021 	add	x1, x1, x0
    c4a0:	f94007e0 	ldr	x0, [sp,#8]
    c4a4:	b9400000 	ldr	w0, [x0]
    c4a8:	2a0003e0 	mov	w0, w0
    c4ac:	8b000020 	add	x0, x1, x0
    c4b0:	f90017e0 	str	x0, [sp,#40]
/home/rex/devel/optee/optee_os/lib/libmpa/mpa_addsub.c:55
    c4b4:	f94017e0 	ldr	x0, [sp,#40]
    c4b8:	2a0003e1 	mov	w1, w0
    c4bc:	f9400be0 	ldr	x0, [sp,#16]
    c4c0:	b9000001 	str	w1, [x0]
/home/rex/devel/optee/optee_os/lib/libmpa/mpa_addsub.c:56
    c4c4:	f94017e0 	ldr	x0, [sp,#40]
    c4c8:	d360fc00 	lsr	x0, x0, #32
    c4cc:	2a0003e1 	mov	w1, w0
    c4d0:	f94007e0 	ldr	x0, [sp,#8]
    c4d4:	b9000001 	str	w1, [x0]
/home/rex/devel/optee/optee_os/lib/libmpa/mpa_addsub.c:63
    c4d8:	d503201f 	nop
    c4dc:	9100c3ff 	add	sp, sp, #0x30
    c4e0:	d65f03c0 	ret

000000000000c4e4 <__mpa_full_sub>:
__mpa_full_sub():
/home/rex/devel/optee/optee_os/lib/libmpa/mpa_addsub.c:74
    c4e4:	d100c3ff 	sub	sp, sp, #0x30
    c4e8:	b9001fe0 	str	w0, [sp,#28]
    c4ec:	b9001be1 	str	w1, [sp,#24]
    c4f0:	f9000be2 	str	x2, [sp,#16]
    c4f4:	f90007e3 	str	x3, [sp,#8]
/home/rex/devel/optee/optee_os/lib/libmpa/mpa_addsub.c:77
    c4f8:	b9401fe1 	ldr	w1, [sp,#28]
    c4fc:	b9401be0 	ldr	w0, [sp,#24]
    c500:	cb000021 	sub	x1, x1, x0
    c504:	f94007e0 	ldr	x0, [sp,#8]
    c508:	b9400000 	ldr	w0, [x0]
    c50c:	2a0003e0 	mov	w0, w0
    c510:	cb000020 	sub	x0, x1, x0
    c514:	f90017e0 	str	x0, [sp,#40]
/home/rex/devel/optee/optee_os/lib/libmpa/mpa_addsub.c:78
    c518:	f94017e0 	ldr	x0, [sp,#40]
    c51c:	2a0003e1 	mov	w1, w0
    c520:	f9400be0 	ldr	x0, [sp,#16]
    c524:	b9000001 	str	w1, [x0]
/home/rex/devel/optee/optee_os/lib/libmpa/mpa_addsub.c:79
    c528:	f94017e0 	ldr	x0, [sp,#40]
    c52c:	d360fc00 	lsr	x0, x0, #32
    c530:	4b0003e1 	neg	w1, w0
    c534:	f94007e0 	ldr	x0, [sp,#8]
    c538:	b9000001 	str	w1, [x0]
/home/rex/devel/optee/optee_os/lib/libmpa/mpa_addsub.c:88
    c53c:	d503201f 	nop
    c540:	9100c3ff 	add	sp, sp, #0x30
    c544:	d65f03c0 	ret

000000000000c548 <__mpa_full_adder_ackum>:
__mpa_full_adder_ackum():
/home/rex/devel/optee/optee_os/lib/libmpa/mpa_addsub.c:98
    c548:	d100c3ff 	sub	sp, sp, #0x30
    c54c:	f9000fe0 	str	x0, [sp,#24]
    c550:	b90017e1 	str	w1, [sp,#20]
    c554:	f90007e2 	str	x2, [sp,#8]
/home/rex/devel/optee/optee_os/lib/libmpa/mpa_addsub.c:101
    c558:	f9400fe0 	ldr	x0, [sp,#24]
    c55c:	b9400000 	ldr	w0, [x0]
    c560:	2a0003e1 	mov	w1, w0
    c564:	b94017e0 	ldr	w0, [sp,#20]
    c568:	8b000021 	add	x1, x1, x0
    c56c:	f94007e0 	ldr	x0, [sp,#8]
    c570:	b9400000 	ldr	w0, [x0]
    c574:	2a0003e0 	mov	w0, w0
    c578:	8b000020 	add	x0, x1, x0
    c57c:	f90017e0 	str	x0, [sp,#40]
/home/rex/devel/optee/optee_os/lib/libmpa/mpa_addsub.c:102
    c580:	f94017e0 	ldr	x0, [sp,#40]
    c584:	2a0003e1 	mov	w1, w0
    c588:	f9400fe0 	ldr	x0, [sp,#24]
    c58c:	b9000001 	str	w1, [x0]
/home/rex/devel/optee/optee_os/lib/libmpa/mpa_addsub.c:103
    c590:	f94017e0 	ldr	x0, [sp,#40]
    c594:	d360fc00 	lsr	x0, x0, #32
    c598:	2a0003e1 	mov	w1, w0
    c59c:	f94007e0 	ldr	x0, [sp,#8]
    c5a0:	b9000001 	str	w1, [x0]
/home/rex/devel/optee/optee_os/lib/libmpa/mpa_addsub.c:111
    c5a4:	d503201f 	nop
    c5a8:	9100c3ff 	add	sp, sp, #0x30
    c5ac:	d65f03c0 	ret

000000000000c5b0 <__mpa_abs_add>:
__mpa_abs_add():
/home/rex/devel/optee/optee_os/lib/libmpa/mpa_addsub.c:127
    c5b0:	a9b97bfd 	stp	x29, x30, [sp,#-112]!
    c5b4:	910003fd 	mov	x29, sp
    c5b8:	f9001fa0 	str	x0, [x29,#56]
    c5bc:	f9001ba1 	str	x1, [x29,#48]
    c5c0:	f90017a2 	str	x2, [x29,#40]
    c5c4:	b90027a3 	str	w3, [x29,#36]
    c5c8:	f9000fa4 	str	x4, [x29,#24]
    c5cc:	b90023a5 	str	w5, [x29,#32]
/home/rex/devel/optee/optee_os/lib/libmpa/mpa_addsub.c:137
    c5d0:	b94027a1 	ldr	w1, [x29,#36]
    c5d4:	b94023a0 	ldr	w0, [x29,#32]
    c5d8:	6b00003f 	cmp	w1, w0
    c5dc:	5400014d 	b.le	c604 <__mpa_abs_add+0x54>
/home/rex/devel/optee/optee_os/lib/libmpa/mpa_addsub.c:138
    c5e0:	f94017a0 	ldr	x0, [x29,#40]
    c5e4:	f90033a0 	str	x0, [x29,#96]
/home/rex/devel/optee/optee_os/lib/libmpa/mpa_addsub.c:139
    c5e8:	f9400fa0 	ldr	x0, [x29,#24]
    c5ec:	f90037a0 	str	x0, [x29,#104]
/home/rex/devel/optee/optee_os/lib/libmpa/mpa_addsub.c:140
    c5f0:	b94027a0 	ldr	w0, [x29,#36]
    c5f4:	b9005ba0 	str	w0, [x29,#88]
/home/rex/devel/optee/optee_os/lib/libmpa/mpa_addsub.c:141
    c5f8:	b94023a0 	ldr	w0, [x29,#32]
    c5fc:	b9005fa0 	str	w0, [x29,#92]
    c600:	14000009 	b	c624 <__mpa_abs_add+0x74>
/home/rex/devel/optee/optee_os/lib/libmpa/mpa_addsub.c:143
    c604:	f9400fa0 	ldr	x0, [x29,#24]
    c608:	f90033a0 	str	x0, [x29,#96]
/home/rex/devel/optee/optee_os/lib/libmpa/mpa_addsub.c:144
    c60c:	f94017a0 	ldr	x0, [x29,#40]
    c610:	f90037a0 	str	x0, [x29,#104]
/home/rex/devel/optee/optee_os/lib/libmpa/mpa_addsub.c:145
    c614:	b94023a0 	ldr	w0, [x29,#32]
    c618:	b9005ba0 	str	w0, [x29,#88]
/home/rex/devel/optee/optee_os/lib/libmpa/mpa_addsub.c:146
    c61c:	b94027a0 	ldr	w0, [x29,#36]
    c620:	b9005fa0 	str	w0, [x29,#92]
/home/rex/devel/optee/optee_os/lib/libmpa/mpa_addsub.c:149
    c624:	f9401fa0 	ldr	x0, [x29,#56]
    c628:	f90027a0 	str	x0, [x29,#72]
/home/rex/devel/optee/optee_os/lib/libmpa/mpa_addsub.c:150
    c62c:	b90047bf 	str	wzr, [x29,#68]
/home/rex/devel/optee/optee_os/lib/libmpa/mpa_addsub.c:151
    c630:	b90057bf 	str	wzr, [x29,#84]
/home/rex/devel/optee/optee_os/lib/libmpa/mpa_addsub.c:152
    c634:	14000015 	b	c688 <__mpa_abs_add+0xd8>
/home/rex/devel/optee/optee_os/lib/libmpa/mpa_addsub.c:153
    c638:	f94037a0 	ldr	x0, [x29,#104]
    c63c:	91001001 	add	x1, x0, #0x4
    c640:	f90037a1 	str	x1, [x29,#104]
    c644:	b9400004 	ldr	w4, [x0]
    c648:	f94033a0 	ldr	x0, [x29,#96]
    c64c:	91001001 	add	x1, x0, #0x4
    c650:	f90033a1 	str	x1, [x29,#96]
    c654:	b9400005 	ldr	w5, [x0]
    c658:	f9401fa0 	ldr	x0, [x29,#56]
    c65c:	91001001 	add	x1, x0, #0x4
    c660:	f9001fa1 	str	x1, [x29,#56]
    c664:	910113a1 	add	x1, x29, #0x44
    c668:	aa0103e3 	mov	x3, x1
    c66c:	aa0003e2 	mov	x2, x0
    c670:	2a0503e1 	mov	w1, w5
    c674:	2a0403e0 	mov	w0, w4
    c678:	97ffff82 	bl	c480 <__mpa_full_adder>
/home/rex/devel/optee/optee_os/lib/libmpa/mpa_addsub.c:154
    c67c:	b94057a0 	ldr	w0, [x29,#84]
    c680:	11000400 	add	w0, w0, #0x1
    c684:	b90057a0 	str	w0, [x29,#84]
/home/rex/devel/optee/optee_os/lib/libmpa/mpa_addsub.c:152
    c688:	b94057a1 	ldr	w1, [x29,#84]
    c68c:	b9405fa0 	ldr	w0, [x29,#92]
    c690:	6b00003f 	cmp	w1, w0
    c694:	54fffd2b 	b.lt	c638 <__mpa_abs_add+0x88>
/home/rex/devel/optee/optee_os/lib/libmpa/mpa_addsub.c:156
    c698:	14000011 	b	c6dc <__mpa_abs_add+0x12c>
/home/rex/devel/optee/optee_os/lib/libmpa/mpa_addsub.c:157
    c69c:	f94033a0 	ldr	x0, [x29,#96]
    c6a0:	91001001 	add	x1, x0, #0x4
    c6a4:	f90033a1 	str	x1, [x29,#96]
    c6a8:	b9400004 	ldr	w4, [x0]
    c6ac:	f9401fa0 	ldr	x0, [x29,#56]
    c6b0:	91001001 	add	x1, x0, #0x4
    c6b4:	f9001fa1 	str	x1, [x29,#56]
    c6b8:	910113a1 	add	x1, x29, #0x44
    c6bc:	aa0103e3 	mov	x3, x1
    c6c0:	aa0003e2 	mov	x2, x0
    c6c4:	2a0403e1 	mov	w1, w4
    c6c8:	52800000 	mov	w0, #0x0                   	// #0
    c6cc:	97ffff6d 	bl	c480 <__mpa_full_adder>
/home/rex/devel/optee/optee_os/lib/libmpa/mpa_addsub.c:158
    c6d0:	b94057a0 	ldr	w0, [x29,#84]
    c6d4:	11000400 	add	w0, w0, #0x1
    c6d8:	b90057a0 	str	w0, [x29,#84]
/home/rex/devel/optee/optee_os/lib/libmpa/mpa_addsub.c:156
    c6dc:	b94047a0 	ldr	w0, [x29,#68]
    c6e0:	7100001f 	cmp	w0, #0x0
    c6e4:	540000a0 	b.eq	c6f8 <__mpa_abs_add+0x148>
/home/rex/devel/optee/optee_os/lib/libmpa/mpa_addsub.c:156 (discriminator 1)
    c6e8:	b94057a1 	ldr	w1, [x29,#84]
    c6ec:	b9405ba0 	ldr	w0, [x29,#88]
    c6f0:	6b00003f 	cmp	w1, w0
    c6f4:	54fffd4b 	b.lt	c69c <__mpa_abs_add+0xec>
/home/rex/devel/optee/optee_os/lib/libmpa/mpa_addsub.c:161
    c6f8:	b94057a1 	ldr	w1, [x29,#84]
    c6fc:	b9405ba0 	ldr	w0, [x29,#88]
    c700:	6b00003f 	cmp	w1, w0
    c704:	5400024a 	b.ge	c74c <__mpa_abs_add+0x19c>
/home/rex/devel/optee/optee_os/lib/libmpa/mpa_addsub.c:163
    c708:	b9405ba1 	ldr	w1, [x29,#88]
    c70c:	b94057a0 	ldr	w0, [x29,#84]
    c710:	4b000020 	sub	w0, w1, w0
    c714:	531e7400 	lsl	w0, w0, #2
    c718:	93407c00 	sxtw	x0, w0
    c71c:	aa0003e2 	mov	x2, x0
    c720:	f94033a1 	ldr	x1, [x29,#96]
    c724:	f9401fa0 	ldr	x0, [x29,#56]
    c728:	97ffe333 	bl	53f4 <memcpy>
/home/rex/devel/optee/optee_os/lib/libmpa/mpa_addsub.c:164
    c72c:	b9405ba1 	ldr	w1, [x29,#88]
    c730:	b94057a0 	ldr	w0, [x29,#84]
    c734:	4b000020 	sub	w0, w1, w0
    c738:	93407c00 	sxtw	x0, w0
    c73c:	d37ef400 	lsl	x0, x0, #2
    c740:	f9401fa1 	ldr	x1, [x29,#56]
    c744:	8b000020 	add	x0, x1, x0
    c748:	f9001fa0 	str	x0, [x29,#56]
/home/rex/devel/optee/optee_os/lib/libmpa/mpa_addsub.c:167
    c74c:	b94047a0 	ldr	w0, [x29,#68]
    c750:	7100001f 	cmp	w0, #0x0
    c754:	540000c0 	b.eq	c76c <__mpa_abs_add+0x1bc>
/home/rex/devel/optee/optee_os/lib/libmpa/mpa_addsub.c:168
    c758:	f9401fa0 	ldr	x0, [x29,#56]
    c75c:	91001001 	add	x1, x0, #0x4
    c760:	f9001fa1 	str	x1, [x29,#56]
    c764:	b94047a1 	ldr	w1, [x29,#68]
    c768:	b9000001 	str	w1, [x0]
/home/rex/devel/optee/optee_os/lib/libmpa/mpa_addsub.c:169
    c76c:	f9401fa1 	ldr	x1, [x29,#56]
    c770:	f94027a0 	ldr	x0, [x29,#72]
    c774:	cb000020 	sub	x0, x1, x0
    c778:	9342fc00 	asr	x0, x0, #2
    c77c:	2a0003e1 	mov	w1, w0
    c780:	f9401ba0 	ldr	x0, [x29,#48]
    c784:	b9000001 	str	w1, [x0]
/home/rex/devel/optee/optee_os/lib/libmpa/mpa_addsub.c:170
    c788:	d503201f 	nop
    c78c:	a8c77bfd 	ldp	x29, x30, [sp],#112
    c790:	d65f03c0 	ret

000000000000c794 <__mpa_abs_add_ackum>:
__mpa_abs_add_ackum():
/home/rex/devel/optee/optee_os/lib/libmpa/mpa_addsub.c:179
    c794:	a9bb7bfd 	stp	x29, x30, [sp,#-80]!
    c798:	910003fd 	mov	x29, sp
    c79c:	f9000fa0 	str	x0, [x29,#24]
    c7a0:	f9000ba1 	str	x1, [x29,#16]
/home/rex/devel/optee/optee_os/lib/libmpa/mpa_addsub.c:187
    c7a4:	f9400ba0 	ldr	x0, [x29,#16]
    c7a8:	b9400401 	ldr	w1, [x0,#4]
    c7ac:	f9400fa0 	ldr	x0, [x29,#24]
    c7b0:	b9400400 	ldr	w0, [x0,#4]
    c7b4:	4b000020 	sub	w0, w1, w0
    c7b8:	b9003fa0 	str	w0, [x29,#60]
/home/rex/devel/optee/optee_os/lib/libmpa/mpa_addsub.c:188
    c7bc:	b9403fa0 	ldr	w0, [x29,#60]
    c7c0:	7100001f 	cmp	w0, #0x0
    c7c4:	5400004c 	b.gt	c7cc <__mpa_abs_add_ackum+0x38>
/home/rex/devel/optee/optee_os/lib/libmpa/mpa_addsub.c:189
    c7c8:	b9003fbf 	str	wzr, [x29,#60]
/home/rex/devel/optee/optee_os/lib/libmpa/mpa_addsub.c:190
    c7cc:	f9400fa0 	ldr	x0, [x29,#24]
    c7d0:	91002001 	add	x1, x0, #0x8
    c7d4:	f9400fa0 	ldr	x0, [x29,#24]
    c7d8:	b9400400 	ldr	w0, [x0,#4]
    c7dc:	93407c00 	sxtw	x0, w0
    c7e0:	d37ef400 	lsl	x0, x0, #2
    c7e4:	8b000023 	add	x3, x1, x0
    c7e8:	b9403fa0 	ldr	w0, [x29,#60]
    c7ec:	11000400 	add	w0, w0, #0x1
    c7f0:	531e7400 	lsl	w0, w0, #2
    c7f4:	93407c00 	sxtw	x0, w0
    c7f8:	aa0003e2 	mov	x2, x0
    c7fc:	52800001 	mov	w1, #0x0                   	// #0
    c800:	aa0303e0 	mov	x0, x3
    c804:	97ffe3df 	bl	5780 <memset>
/home/rex/devel/optee/optee_os/lib/libmpa/mpa_addsub.c:192
    c808:	f9400fa0 	ldr	x0, [x29,#24]
    c80c:	91002000 	add	x0, x0, #0x8
    c810:	f9001ba0 	str	x0, [x29,#48]
/home/rex/devel/optee/optee_os/lib/libmpa/mpa_addsub.c:193
    c814:	f9400ba0 	ldr	x0, [x29,#16]
    c818:	91002000 	add	x0, x0, #0x8
    c81c:	f90027a0 	str	x0, [x29,#72]
/home/rex/devel/optee/optee_os/lib/libmpa/mpa_addsub.c:194
    c820:	f9400fa0 	ldr	x0, [x29,#24]
    c824:	91002000 	add	x0, x0, #0x8
    c828:	f90023a0 	str	x0, [x29,#64]
/home/rex/devel/optee/optee_os/lib/libmpa/mpa_addsub.c:195
    c82c:	b9003fbf 	str	wzr, [x29,#60]
/home/rex/devel/optee/optee_os/lib/libmpa/mpa_addsub.c:196
    c830:	b9002fbf 	str	wzr, [x29,#44]
/home/rex/devel/optee/optee_os/lib/libmpa/mpa_addsub.c:197
    c834:	14000010 	b	c874 <__mpa_abs_add_ackum+0xe0>
/home/rex/devel/optee/optee_os/lib/libmpa/mpa_addsub.c:198
    c838:	f94023a3 	ldr	x3, [x29,#64]
    c83c:	91001060 	add	x0, x3, #0x4
    c840:	f90023a0 	str	x0, [x29,#64]
    c844:	f94027a0 	ldr	x0, [x29,#72]
    c848:	91001001 	add	x1, x0, #0x4
    c84c:	f90027a1 	str	x1, [x29,#72]
    c850:	b9400000 	ldr	w0, [x0]
    c854:	9100b3a1 	add	x1, x29, #0x2c
    c858:	aa0103e2 	mov	x2, x1
    c85c:	2a0003e1 	mov	w1, w0
    c860:	aa0303e0 	mov	x0, x3
    c864:	97ffff39 	bl	c548 <__mpa_full_adder_ackum>
/home/rex/devel/optee/optee_os/lib/libmpa/mpa_addsub.c:205
    c868:	b9403fa0 	ldr	w0, [x29,#60]
    c86c:	11000400 	add	w0, w0, #0x1
    c870:	b9003fa0 	str	w0, [x29,#60]
/home/rex/devel/optee/optee_os/lib/libmpa/mpa_addsub.c:197
    c874:	f9400ba0 	ldr	x0, [x29,#16]
    c878:	b9400401 	ldr	w1, [x0,#4]
    c87c:	b9403fa0 	ldr	w0, [x29,#60]
    c880:	6b00003f 	cmp	w1, w0
    c884:	54fffdac 	b.gt	c838 <__mpa_abs_add_ackum+0xa4>
/home/rex/devel/optee/optee_os/lib/libmpa/mpa_addsub.c:207
    c888:	14000008 	b	c8a8 <__mpa_abs_add_ackum+0x114>
/home/rex/devel/optee/optee_os/lib/libmpa/mpa_addsub.c:208
    c88c:	f94023a0 	ldr	x0, [x29,#64]
    c890:	91001001 	add	x1, x0, #0x4
    c894:	f90023a1 	str	x1, [x29,#64]
    c898:	9100b3a1 	add	x1, x29, #0x2c
    c89c:	aa0103e2 	mov	x2, x1
    c8a0:	52800001 	mov	w1, #0x0                   	// #0
    c8a4:	97ffff29 	bl	c548 <__mpa_full_adder_ackum>
/home/rex/devel/optee/optee_os/lib/libmpa/mpa_addsub.c:207
    c8a8:	b9402fa0 	ldr	w0, [x29,#44]
    c8ac:	7100001f 	cmp	w0, #0x0
    c8b0:	54fffee1 	b.ne	c88c <__mpa_abs_add_ackum+0xf8>
/home/rex/devel/optee/optee_os/lib/libmpa/mpa_addsub.c:215
    c8b4:	f94023a1 	ldr	x1, [x29,#64]
    c8b8:	f9401ba0 	ldr	x0, [x29,#48]
    c8bc:	cb000020 	sub	x0, x1, x0
    c8c0:	9342fc00 	asr	x0, x0, #2
    c8c4:	b9003fa0 	str	w0, [x29,#60]
/home/rex/devel/optee/optee_os/lib/libmpa/mpa_addsub.c:216
    c8c8:	f9400fa0 	ldr	x0, [x29,#24]
    c8cc:	b9400401 	ldr	w1, [x0,#4]
    c8d0:	b9403fa0 	ldr	w0, [x29,#60]
    c8d4:	6b00003f 	cmp	w1, w0
    c8d8:	5400008a 	b.ge	c8e8 <__mpa_abs_add_ackum+0x154>
/home/rex/devel/optee/optee_os/lib/libmpa/mpa_addsub.c:217
    c8dc:	f9400fa0 	ldr	x0, [x29,#24]
    c8e0:	b9403fa1 	ldr	w1, [x29,#60]
    c8e4:	b9000401 	str	w1, [x0,#4]
/home/rex/devel/optee/optee_os/lib/libmpa/mpa_addsub.c:218
    c8e8:	d503201f 	nop
    c8ec:	a8c57bfd 	ldp	x29, x30, [sp],#80
    c8f0:	d65f03c0 	ret

000000000000c8f4 <__mpa_abs_sub>:
__mpa_abs_sub():
/home/rex/devel/optee/optee_os/lib/libmpa/mpa_addsub.c:233
    c8f4:	a9bb7bfd 	stp	x29, x30, [sp,#-80]!
    c8f8:	910003fd 	mov	x29, sp
    c8fc:	f9001fa0 	str	x0, [x29,#56]
    c900:	f9001ba1 	str	x1, [x29,#48]
    c904:	f90017a2 	str	x2, [x29,#40]
    c908:	b90027a3 	str	w3, [x29,#36]
    c90c:	f9000fa4 	str	x4, [x29,#24]
    c910:	b90023a5 	str	w5, [x29,#32]
/home/rex/devel/optee/optee_os/lib/libmpa/mpa_addsub.c:237
    c914:	b9004bbf 	str	wzr, [x29,#72]
/home/rex/devel/optee/optee_os/lib/libmpa/mpa_addsub.c:238
    c918:	b9004fbf 	str	wzr, [x29,#76]
/home/rex/devel/optee/optee_os/lib/libmpa/mpa_addsub.c:239
    c91c:	14000015 	b	c970 <__mpa_abs_sub+0x7c>
/home/rex/devel/optee/optee_os/lib/libmpa/mpa_addsub.c:240
    c920:	f94017a0 	ldr	x0, [x29,#40]
    c924:	91001001 	add	x1, x0, #0x4
    c928:	f90017a1 	str	x1, [x29,#40]
    c92c:	b9400004 	ldr	w4, [x0]
    c930:	f9400fa0 	ldr	x0, [x29,#24]
    c934:	91001001 	add	x1, x0, #0x4
    c938:	f9000fa1 	str	x1, [x29,#24]
    c93c:	b9400005 	ldr	w5, [x0]
    c940:	f9401fa0 	ldr	x0, [x29,#56]
    c944:	91001001 	add	x1, x0, #0x4
    c948:	f9001fa1 	str	x1, [x29,#56]
    c94c:	910123a1 	add	x1, x29, #0x48
    c950:	aa0103e3 	mov	x3, x1
    c954:	aa0003e2 	mov	x2, x0
    c958:	2a0503e1 	mov	w1, w5
    c95c:	2a0403e0 	mov	w0, w4
    c960:	97fffee1 	bl	c4e4 <__mpa_full_sub>
/home/rex/devel/optee/optee_os/lib/libmpa/mpa_addsub.c:241
    c964:	b9404fa0 	ldr	w0, [x29,#76]
    c968:	11000400 	add	w0, w0, #0x1
    c96c:	b9004fa0 	str	w0, [x29,#76]
/home/rex/devel/optee/optee_os/lib/libmpa/mpa_addsub.c:239
    c970:	b9404fa1 	ldr	w1, [x29,#76]
    c974:	b94023a0 	ldr	w0, [x29,#32]
    c978:	6b00003f 	cmp	w1, w0
    c97c:	54fffd2b 	b.lt	c920 <__mpa_abs_sub+0x2c>
/home/rex/devel/optee/optee_os/lib/libmpa/mpa_addsub.c:247
    c980:	14000011 	b	c9c4 <__mpa_abs_sub+0xd0>
/home/rex/devel/optee/optee_os/lib/libmpa/mpa_addsub.c:248
    c984:	f94017a0 	ldr	x0, [x29,#40]
    c988:	91001001 	add	x1, x0, #0x4
    c98c:	f90017a1 	str	x1, [x29,#40]
    c990:	b9400004 	ldr	w4, [x0]
    c994:	f9401fa0 	ldr	x0, [x29,#56]
    c998:	91001001 	add	x1, x0, #0x4
    c99c:	f9001fa1 	str	x1, [x29,#56]
    c9a0:	910123a1 	add	x1, x29, #0x48
    c9a4:	aa0103e3 	mov	x3, x1
    c9a8:	aa0003e2 	mov	x2, x0
    c9ac:	52800001 	mov	w1, #0x0                   	// #0
    c9b0:	2a0403e0 	mov	w0, w4
    c9b4:	97fffecc 	bl	c4e4 <__mpa_full_sub>
/home/rex/devel/optee/optee_os/lib/libmpa/mpa_addsub.c:249
    c9b8:	b9404fa0 	ldr	w0, [x29,#76]
    c9bc:	11000400 	add	w0, w0, #0x1
    c9c0:	b9004fa0 	str	w0, [x29,#76]
/home/rex/devel/optee/optee_os/lib/libmpa/mpa_addsub.c:247
    c9c4:	b9404ba0 	ldr	w0, [x29,#72]
    c9c8:	7100001f 	cmp	w0, #0x0
    c9cc:	540000a0 	b.eq	c9e0 <__mpa_abs_sub+0xec>
/home/rex/devel/optee/optee_os/lib/libmpa/mpa_addsub.c:247 (discriminator 1)
    c9d0:	b9404fa1 	ldr	w1, [x29,#76]
    c9d4:	b94027a0 	ldr	w0, [x29,#36]
    c9d8:	6b00003f 	cmp	w1, w0
    c9dc:	54fffd4b 	b.lt	c984 <__mpa_abs_sub+0x90>
/home/rex/devel/optee/optee_os/lib/libmpa/mpa_addsub.c:252
    c9e0:	b9404fa1 	ldr	w1, [x29,#76]
    c9e4:	b94027a0 	ldr	w0, [x29,#36]
    c9e8:	6b00003f 	cmp	w1, w0
    c9ec:	5400024a 	b.ge	ca34 <__mpa_abs_sub+0x140>
/home/rex/devel/optee/optee_os/lib/libmpa/mpa_addsub.c:257
    c9f0:	b94027a1 	ldr	w1, [x29,#36]
    c9f4:	b9404fa0 	ldr	w0, [x29,#76]
    c9f8:	4b000020 	sub	w0, w1, w0
    c9fc:	531e7400 	lsl	w0, w0, #2
    ca00:	93407c00 	sxtw	x0, w0
    ca04:	aa0003e2 	mov	x2, x0
    ca08:	f94017a1 	ldr	x1, [x29,#40]
    ca0c:	f9401fa0 	ldr	x0, [x29,#56]
    ca10:	97ffe279 	bl	53f4 <memcpy>
/home/rex/devel/optee/optee_os/lib/libmpa/mpa_addsub.c:258
    ca14:	b94027a1 	ldr	w1, [x29,#36]
    ca18:	b9404fa0 	ldr	w0, [x29,#76]
    ca1c:	4b000020 	sub	w0, w1, w0
    ca20:	93407c00 	sxtw	x0, w0
    ca24:	d37ef400 	lsl	x0, x0, #2
    ca28:	f9401fa1 	ldr	x1, [x29,#56]
    ca2c:	8b000020 	add	x0, x1, x0
    ca30:	f9001fa0 	str	x0, [x29,#56]
/home/rex/devel/optee/optee_os/lib/libmpa/mpa_addsub.c:261
    ca34:	b94027a0 	ldr	w0, [x29,#36]
    ca38:	b9004fa0 	str	w0, [x29,#76]
/home/rex/devel/optee/optee_os/lib/libmpa/mpa_addsub.c:262
    ca3c:	14000004 	b	ca4c <__mpa_abs_sub+0x158>
/home/rex/devel/optee/optee_os/lib/libmpa/mpa_addsub.c:263
    ca40:	b9404fa0 	ldr	w0, [x29,#76]
    ca44:	51000400 	sub	w0, w0, #0x1
    ca48:	b9004fa0 	str	w0, [x29,#76]
/home/rex/devel/optee/optee_os/lib/libmpa/mpa_addsub.c:262
    ca4c:	b9404fa0 	ldr	w0, [x29,#76]
    ca50:	7100001f 	cmp	w0, #0x0
    ca54:	5400010d 	b.le	ca74 <__mpa_abs_sub+0x180>
/home/rex/devel/optee/optee_os/lib/libmpa/mpa_addsub.c:262 (discriminator 1)
    ca58:	f9401fa0 	ldr	x0, [x29,#56]
    ca5c:	d1001000 	sub	x0, x0, #0x4
    ca60:	f9001fa0 	str	x0, [x29,#56]
    ca64:	f9401fa0 	ldr	x0, [x29,#56]
    ca68:	b9400000 	ldr	w0, [x0]
    ca6c:	7100001f 	cmp	w0, #0x0
    ca70:	54fffe80 	b.eq	ca40 <__mpa_abs_sub+0x14c>
/home/rex/devel/optee/optee_os/lib/libmpa/mpa_addsub.c:264
    ca74:	f9401ba0 	ldr	x0, [x29,#48]
    ca78:	b9404fa1 	ldr	w1, [x29,#76]
    ca7c:	b9000001 	str	w1, [x0]
/home/rex/devel/optee/optee_os/lib/libmpa/mpa_addsub.c:265
    ca80:	d503201f 	nop
    ca84:	a8c57bfd 	ldp	x29, x30, [sp],#80
    ca88:	d65f03c0 	ret

000000000000ca8c <mpa_add>:
mpa_add():
/home/rex/devel/optee/optee_os/lib/libmpa/mpa_addsub.c:281
    ca8c:	a9bb7bfd 	stp	x29, x30, [sp,#-80]!
    ca90:	910003fd 	mov	x29, sp
    ca94:	f90017a0 	str	x0, [x29,#40]
    ca98:	f90013a1 	str	x1, [x29,#32]
    ca9c:	f9000fa2 	str	x2, [x29,#24]
    caa0:	f9000ba3 	str	x3, [x29,#16]
/home/rex/devel/optee/optee_os/lib/libmpa/mpa_addsub.c:289
    caa4:	f94013a0 	ldr	x0, [x29,#32]
    caa8:	b9400400 	ldr	w0, [x0,#4]
    caac:	7100001f 	cmp	w0, #0x0
    cab0:	5a80a400 	cneg	w0, w0, lt
    cab4:	b9004fa0 	str	w0, [x29,#76]
/home/rex/devel/optee/optee_os/lib/libmpa/mpa_addsub.c:290
    cab8:	f9400fa0 	ldr	x0, [x29,#24]
    cabc:	b9400400 	ldr	w0, [x0,#4]
    cac0:	7100001f 	cmp	w0, #0x0
    cac4:	5a80a400 	cneg	w0, w0, lt
    cac8:	b9004ba0 	str	w0, [x29,#72]
/home/rex/devel/optee/optee_os/lib/libmpa/mpa_addsub.c:292
    cacc:	f94013a0 	ldr	x0, [x29,#32]
    cad0:	b9400400 	ldr	w0, [x0,#4]
    cad4:	7100001f 	cmp	w0, #0x0
    cad8:	5400006b 	b.lt	cae4 <mpa_add+0x58>
/home/rex/devel/optee/optee_os/lib/libmpa/mpa_addsub.c:292 (discriminator 1)
    cadc:	52800020 	mov	w0, #0x1                   	// #1
    cae0:	14000002 	b	cae8 <mpa_add+0x5c>
/home/rex/devel/optee/optee_os/lib/libmpa/mpa_addsub.c:292 (discriminator 2)
    cae4:	12800000 	mov	w0, #0xffffffff            	// #-1
/home/rex/devel/optee/optee_os/lib/libmpa/mpa_addsub.c:292 (discriminator 4)
    cae8:	b90047a0 	str	w0, [x29,#68]
/home/rex/devel/optee/optee_os/lib/libmpa/mpa_addsub.c:293 (discriminator 4)
    caec:	f9400fa0 	ldr	x0, [x29,#24]
    caf0:	b9400400 	ldr	w0, [x0,#4]
    caf4:	7100001f 	cmp	w0, #0x0
    caf8:	5400006b 	b.lt	cb04 <mpa_add+0x78>
/home/rex/devel/optee/optee_os/lib/libmpa/mpa_addsub.c:293 (discriminator 1)
    cafc:	52800020 	mov	w0, #0x1                   	// #1
    cb00:	14000002 	b	cb08 <mpa_add+0x7c>
/home/rex/devel/optee/optee_os/lib/libmpa/mpa_addsub.c:293 (discriminator 2)
    cb04:	12800000 	mov	w0, #0xffffffff            	// #-1
/home/rex/devel/optee/optee_os/lib/libmpa/mpa_addsub.c:293 (discriminator 4)
    cb08:	b90043a0 	str	w0, [x29,#64]
/home/rex/devel/optee/optee_os/lib/libmpa/mpa_addsub.c:296 (discriminator 4)
    cb0c:	f94017a1 	ldr	x1, [x29,#40]
    cb10:	f94013a0 	ldr	x0, [x29,#32]
    cb14:	eb00003f 	cmp	x1, x0
    cb18:	540000a0 	b.eq	cb2c <mpa_add+0xa0>
/home/rex/devel/optee/optee_os/lib/libmpa/mpa_addsub.c:296 (discriminator 2)
    cb1c:	f94017a1 	ldr	x1, [x29,#40]
    cb20:	f9400fa0 	ldr	x0, [x29,#24]
    cb24:	eb00003f 	cmp	x1, x0
    cb28:	54000061 	b.ne	cb34 <mpa_add+0xa8>
/home/rex/devel/optee/optee_os/lib/libmpa/mpa_addsub.c:296 (discriminator 3)
    cb2c:	52800020 	mov	w0, #0x1                   	// #1
    cb30:	14000002 	b	cb38 <mpa_add+0xac>
/home/rex/devel/optee/optee_os/lib/libmpa/mpa_addsub.c:296 (discriminator 4)
    cb34:	52800000 	mov	w0, #0x0                   	// #0
/home/rex/devel/optee/optee_os/lib/libmpa/mpa_addsub.c:296 (discriminator 6)
    cb38:	b9003fa0 	str	w0, [x29,#60]
/home/rex/devel/optee/optee_os/lib/libmpa/mpa_addsub.c:297 (discriminator 6)
    cb3c:	b9403fa0 	ldr	w0, [x29,#60]
    cb40:	7100001f 	cmp	w0, #0x0
    cb44:	540000a0 	b.eq	cb58 <mpa_add+0xcc>
/home/rex/devel/optee/optee_os/lib/libmpa/mpa_addsub.c:298
    cb48:	9100c3a0 	add	x0, x29, #0x30
    cb4c:	f9400ba1 	ldr	x1, [x29,#16]
    cb50:	97fff99d 	bl	b1c4 <mpa_alloc_static_temp_var>
    cb54:	14000003 	b	cb60 <mpa_add+0xd4>
/home/rex/devel/optee/optee_os/lib/libmpa/mpa_addsub.c:300
    cb58:	f94017a0 	ldr	x0, [x29,#40]
    cb5c:	f9001ba0 	str	x0, [x29,#48]
/home/rex/devel/optee/optee_os/lib/libmpa/mpa_addsub.c:306
    cb60:	b94047a1 	ldr	w1, [x29,#68]
    cb64:	b94043a0 	ldr	w0, [x29,#64]
    cb68:	6b00003f 	cmp	w1, w0
    cb6c:	54000301 	b.ne	cbcc <mpa_add+0x140>
/home/rex/devel/optee/optee_os/lib/libmpa/mpa_addsub.c:308
    cb70:	f9401ba0 	ldr	x0, [x29,#48]
    cb74:	91002006 	add	x6, x0, #0x8
    cb78:	f9401ba0 	ldr	x0, [x29,#48]
    cb7c:	91001001 	add	x1, x0, #0x4
    cb80:	f94013a0 	ldr	x0, [x29,#32]
    cb84:	91002002 	add	x2, x0, #0x8
    cb88:	b9404fa3 	ldr	w3, [x29,#76]
/home/rex/devel/optee/optee_os/lib/libmpa/mpa_addsub.c:309
    cb8c:	f9400fa0 	ldr	x0, [x29,#24]
    cb90:	91002000 	add	x0, x0, #0x8
/home/rex/devel/optee/optee_os/lib/libmpa/mpa_addsub.c:308
    cb94:	b9404ba4 	ldr	w4, [x29,#72]
    cb98:	2a0403e5 	mov	w5, w4
    cb9c:	aa0003e4 	mov	x4, x0
    cba0:	aa0603e0 	mov	x0, x6
    cba4:	97fffe83 	bl	c5b0 <__mpa_abs_add>
/home/rex/devel/optee/optee_os/lib/libmpa/mpa_addsub.c:311
    cba8:	b94047a0 	ldr	w0, [x29,#68]
    cbac:	3100041f 	cmn	w0, #0x1
    cbb0:	54000b21 	b.ne	cd14 <mpa_add+0x288>
/home/rex/devel/optee/optee_os/lib/libmpa/mpa_addsub.c:312
    cbb4:	f9401ba0 	ldr	x0, [x29,#48]
    cbb8:	f9401ba1 	ldr	x1, [x29,#48]
    cbbc:	b9400421 	ldr	w1, [x1,#4]
    cbc0:	4b0103e1 	neg	w1, w1
    cbc4:	b9000401 	str	w1, [x0,#4]
    cbc8:	14000053 	b	cd14 <mpa_add+0x288>
/home/rex/devel/optee/optee_os/lib/libmpa/mpa_addsub.c:315
    cbcc:	b94047a0 	ldr	w0, [x29,#68]
    cbd0:	7100041f 	cmp	w0, #0x1
    cbd4:	54000521 	b.ne	cc78 <mpa_add+0x1ec>
/home/rex/devel/optee/optee_os/lib/libmpa/mpa_addsub.c:316
    cbd8:	f9400fa1 	ldr	x1, [x29,#24]
    cbdc:	f94013a0 	ldr	x0, [x29,#32]
    cbe0:	94000285 	bl	d5f4 <__mpa_abs_greater_than>
    cbe4:	7100001f 	cmp	w0, #0x0
    cbe8:	54000200 	b.eq	cc28 <mpa_add+0x19c>
/home/rex/devel/optee/optee_os/lib/libmpa/mpa_addsub.c:320
    cbec:	f9401ba0 	ldr	x0, [x29,#48]
    cbf0:	91002006 	add	x6, x0, #0x8
    cbf4:	f9401ba0 	ldr	x0, [x29,#48]
    cbf8:	91001001 	add	x1, x0, #0x4
/home/rex/devel/optee/optee_os/lib/libmpa/mpa_addsub.c:321
    cbfc:	f94013a0 	ldr	x0, [x29,#32]
    cc00:	91002002 	add	x2, x0, #0x8
/home/rex/devel/optee/optee_os/lib/libmpa/mpa_addsub.c:320
    cc04:	b9404fa3 	ldr	w3, [x29,#76]
/home/rex/devel/optee/optee_os/lib/libmpa/mpa_addsub.c:321
    cc08:	f9400fa0 	ldr	x0, [x29,#24]
    cc0c:	91002000 	add	x0, x0, #0x8
/home/rex/devel/optee/optee_os/lib/libmpa/mpa_addsub.c:320
    cc10:	b9404ba4 	ldr	w4, [x29,#72]
    cc14:	2a0403e5 	mov	w5, w4
    cc18:	aa0003e4 	mov	x4, x0
    cc1c:	aa0603e0 	mov	x0, x6
    cc20:	97ffff35 	bl	c8f4 <__mpa_abs_sub>
    cc24:	1400003c 	b	cd14 <mpa_add+0x288>
/home/rex/devel/optee/optee_os/lib/libmpa/mpa_addsub.c:325
    cc28:	f9401ba0 	ldr	x0, [x29,#48]
    cc2c:	91002006 	add	x6, x0, #0x8
    cc30:	f9401ba0 	ldr	x0, [x29,#48]
    cc34:	91001001 	add	x1, x0, #0x4
/home/rex/devel/optee/optee_os/lib/libmpa/mpa_addsub.c:326
    cc38:	f9400fa0 	ldr	x0, [x29,#24]
    cc3c:	91002002 	add	x2, x0, #0x8
/home/rex/devel/optee/optee_os/lib/libmpa/mpa_addsub.c:325
    cc40:	b9404ba3 	ldr	w3, [x29,#72]
/home/rex/devel/optee/optee_os/lib/libmpa/mpa_addsub.c:326
    cc44:	f94013a0 	ldr	x0, [x29,#32]
    cc48:	91002000 	add	x0, x0, #0x8
/home/rex/devel/optee/optee_os/lib/libmpa/mpa_addsub.c:325
    cc4c:	b9404fa4 	ldr	w4, [x29,#76]
    cc50:	2a0403e5 	mov	w5, w4
    cc54:	aa0003e4 	mov	x4, x0
    cc58:	aa0603e0 	mov	x0, x6
    cc5c:	97ffff26 	bl	c8f4 <__mpa_abs_sub>
/home/rex/devel/optee/optee_os/lib/libmpa/mpa_addsub.c:327
    cc60:	f9401ba0 	ldr	x0, [x29,#48]
    cc64:	f9401ba1 	ldr	x1, [x29,#48]
    cc68:	b9400421 	ldr	w1, [x1,#4]
    cc6c:	4b0103e1 	neg	w1, w1
    cc70:	b9000401 	str	w1, [x0,#4]
    cc74:	14000028 	b	cd14 <mpa_add+0x288>
/home/rex/devel/optee/optee_os/lib/libmpa/mpa_addsub.c:331
    cc78:	f9400fa1 	ldr	x1, [x29,#24]
    cc7c:	f94013a0 	ldr	x0, [x29,#32]
    cc80:	9400025d 	bl	d5f4 <__mpa_abs_greater_than>
    cc84:	7100001f 	cmp	w0, #0x0
    cc88:	540002a0 	b.eq	ccdc <mpa_add+0x250>
/home/rex/devel/optee/optee_os/lib/libmpa/mpa_addsub.c:335
    cc8c:	f9401ba0 	ldr	x0, [x29,#48]
    cc90:	91002006 	add	x6, x0, #0x8
    cc94:	f9401ba0 	ldr	x0, [x29,#48]
    cc98:	91001001 	add	x1, x0, #0x4
/home/rex/devel/optee/optee_os/lib/libmpa/mpa_addsub.c:336
    cc9c:	f94013a0 	ldr	x0, [x29,#32]
    cca0:	91002002 	add	x2, x0, #0x8
/home/rex/devel/optee/optee_os/lib/libmpa/mpa_addsub.c:335
    cca4:	b9404fa3 	ldr	w3, [x29,#76]
/home/rex/devel/optee/optee_os/lib/libmpa/mpa_addsub.c:336
    cca8:	f9400fa0 	ldr	x0, [x29,#24]
    ccac:	91002000 	add	x0, x0, #0x8
/home/rex/devel/optee/optee_os/lib/libmpa/mpa_addsub.c:335
    ccb0:	b9404ba4 	ldr	w4, [x29,#72]
    ccb4:	2a0403e5 	mov	w5, w4
    ccb8:	aa0003e4 	mov	x4, x0
    ccbc:	aa0603e0 	mov	x0, x6
    ccc0:	97ffff0d 	bl	c8f4 <__mpa_abs_sub>
/home/rex/devel/optee/optee_os/lib/libmpa/mpa_addsub.c:337
    ccc4:	f9401ba0 	ldr	x0, [x29,#48]
    ccc8:	f9401ba1 	ldr	x1, [x29,#48]
    cccc:	b9400421 	ldr	w1, [x1,#4]
    ccd0:	4b0103e1 	neg	w1, w1
    ccd4:	b9000401 	str	w1, [x0,#4]
    ccd8:	1400000f 	b	cd14 <mpa_add+0x288>
/home/rex/devel/optee/optee_os/lib/libmpa/mpa_addsub.c:340
    ccdc:	f9401ba0 	ldr	x0, [x29,#48]
    cce0:	91002006 	add	x6, x0, #0x8
    cce4:	f9401ba0 	ldr	x0, [x29,#48]
    cce8:	91001001 	add	x1, x0, #0x4
/home/rex/devel/optee/optee_os/lib/libmpa/mpa_addsub.c:341
    ccec:	f9400fa0 	ldr	x0, [x29,#24]
    ccf0:	91002002 	add	x2, x0, #0x8
/home/rex/devel/optee/optee_os/lib/libmpa/mpa_addsub.c:340
    ccf4:	b9404ba3 	ldr	w3, [x29,#72]
/home/rex/devel/optee/optee_os/lib/libmpa/mpa_addsub.c:341
    ccf8:	f94013a0 	ldr	x0, [x29,#32]
    ccfc:	91002000 	add	x0, x0, #0x8
/home/rex/devel/optee/optee_os/lib/libmpa/mpa_addsub.c:340
    cd00:	b9404fa4 	ldr	w4, [x29,#76]
    cd04:	2a0403e5 	mov	w5, w4
    cd08:	aa0003e4 	mov	x4, x0
    cd0c:	aa0603e0 	mov	x0, x6
    cd10:	97fffef9 	bl	c8f4 <__mpa_abs_sub>
/home/rex/devel/optee/optee_os/lib/libmpa/mpa_addsub.c:346
    cd14:	f9401ba0 	ldr	x0, [x29,#48]
    cd18:	aa0003e1 	mov	x1, x0
    cd1c:	f94017a0 	ldr	x0, [x29,#40]
    cd20:	97ffed9e 	bl	8398 <mpa_copy>
/home/rex/devel/optee/optee_os/lib/libmpa/mpa_addsub.c:347
    cd24:	b9403fa0 	ldr	w0, [x29,#60]
    cd28:	7100001f 	cmp	w0, #0x0
    cd2c:	54000080 	b.eq	cd3c <mpa_add+0x2b0>
/home/rex/devel/optee/optee_os/lib/libmpa/mpa_addsub.c:348
    cd30:	9100c3a0 	add	x0, x29, #0x30
    cd34:	f9400ba1 	ldr	x1, [x29,#16]
    cd38:	97fff92e 	bl	b1f0 <mpa_free_static_temp_var>
/home/rex/devel/optee/optee_os/lib/libmpa/mpa_addsub.c:349
    cd3c:	d503201f 	nop
    cd40:	a8c57bfd 	ldp	x29, x30, [sp],#80
    cd44:	d65f03c0 	ret

000000000000cd48 <mpa_sub>:
mpa_sub():
/home/rex/devel/optee/optee_os/lib/libmpa/mpa_addsub.c:359
    cd48:	a9bb7bfd 	stp	x29, x30, [sp,#-80]!
    cd4c:	910003fd 	mov	x29, sp
    cd50:	f90017a0 	str	x0, [x29,#40]
    cd54:	f90013a1 	str	x1, [x29,#32]
    cd58:	f9000fa2 	str	x2, [x29,#24]
    cd5c:	f9000ba3 	str	x3, [x29,#16]
/home/rex/devel/optee/optee_os/lib/libmpa/mpa_addsub.c:367
    cd60:	f94013a0 	ldr	x0, [x29,#32]
    cd64:	b9400400 	ldr	w0, [x0,#4]
    cd68:	7100001f 	cmp	w0, #0x0
    cd6c:	5a80a400 	cneg	w0, w0, lt
    cd70:	b9004fa0 	str	w0, [x29,#76]
/home/rex/devel/optee/optee_os/lib/libmpa/mpa_addsub.c:368
    cd74:	f9400fa0 	ldr	x0, [x29,#24]
    cd78:	b9400400 	ldr	w0, [x0,#4]
    cd7c:	7100001f 	cmp	w0, #0x0
    cd80:	5a80a400 	cneg	w0, w0, lt
    cd84:	b9004ba0 	str	w0, [x29,#72]
/home/rex/devel/optee/optee_os/lib/libmpa/mpa_addsub.c:370
    cd88:	f94013a0 	ldr	x0, [x29,#32]
    cd8c:	b9400400 	ldr	w0, [x0,#4]
    cd90:	7100001f 	cmp	w0, #0x0
    cd94:	5400006b 	b.lt	cda0 <mpa_sub+0x58>
/home/rex/devel/optee/optee_os/lib/libmpa/mpa_addsub.c:370 (discriminator 1)
    cd98:	52800020 	mov	w0, #0x1                   	// #1
    cd9c:	14000002 	b	cda4 <mpa_sub+0x5c>
/home/rex/devel/optee/optee_os/lib/libmpa/mpa_addsub.c:370 (discriminator 2)
    cda0:	12800000 	mov	w0, #0xffffffff            	// #-1
/home/rex/devel/optee/optee_os/lib/libmpa/mpa_addsub.c:370 (discriminator 4)
    cda4:	b90047a0 	str	w0, [x29,#68]
/home/rex/devel/optee/optee_os/lib/libmpa/mpa_addsub.c:371 (discriminator 4)
    cda8:	f9400fa0 	ldr	x0, [x29,#24]
    cdac:	b9400400 	ldr	w0, [x0,#4]
    cdb0:	7100001f 	cmp	w0, #0x0
    cdb4:	5400006b 	b.lt	cdc0 <mpa_sub+0x78>
/home/rex/devel/optee/optee_os/lib/libmpa/mpa_addsub.c:371 (discriminator 1)
    cdb8:	52800020 	mov	w0, #0x1                   	// #1
    cdbc:	14000002 	b	cdc4 <mpa_sub+0x7c>
/home/rex/devel/optee/optee_os/lib/libmpa/mpa_addsub.c:371 (discriminator 2)
    cdc0:	12800000 	mov	w0, #0xffffffff            	// #-1
/home/rex/devel/optee/optee_os/lib/libmpa/mpa_addsub.c:371 (discriminator 4)
    cdc4:	b90043a0 	str	w0, [x29,#64]
/home/rex/devel/optee/optee_os/lib/libmpa/mpa_addsub.c:374 (discriminator 4)
    cdc8:	f94017a1 	ldr	x1, [x29,#40]
    cdcc:	f94013a0 	ldr	x0, [x29,#32]
    cdd0:	eb00003f 	cmp	x1, x0
    cdd4:	540000a0 	b.eq	cde8 <mpa_sub+0xa0>
/home/rex/devel/optee/optee_os/lib/libmpa/mpa_addsub.c:374 (discriminator 2)
    cdd8:	f94017a1 	ldr	x1, [x29,#40]
    cddc:	f9400fa0 	ldr	x0, [x29,#24]
    cde0:	eb00003f 	cmp	x1, x0
    cde4:	54000061 	b.ne	cdf0 <mpa_sub+0xa8>
/home/rex/devel/optee/optee_os/lib/libmpa/mpa_addsub.c:374 (discriminator 3)
    cde8:	52800020 	mov	w0, #0x1                   	// #1
    cdec:	14000002 	b	cdf4 <mpa_sub+0xac>
/home/rex/devel/optee/optee_os/lib/libmpa/mpa_addsub.c:374 (discriminator 4)
    cdf0:	52800000 	mov	w0, #0x0                   	// #0
/home/rex/devel/optee/optee_os/lib/libmpa/mpa_addsub.c:374 (discriminator 6)
    cdf4:	b9003fa0 	str	w0, [x29,#60]
/home/rex/devel/optee/optee_os/lib/libmpa/mpa_addsub.c:375 (discriminator 6)
    cdf8:	b9403fa0 	ldr	w0, [x29,#60]
    cdfc:	7100001f 	cmp	w0, #0x0
    ce00:	540000a0 	b.eq	ce14 <mpa_sub+0xcc>
/home/rex/devel/optee/optee_os/lib/libmpa/mpa_addsub.c:376
    ce04:	9100c3a0 	add	x0, x29, #0x30
    ce08:	f9400ba1 	ldr	x1, [x29,#16]
    ce0c:	97fff8ee 	bl	b1c4 <mpa_alloc_static_temp_var>
    ce10:	14000003 	b	ce1c <mpa_sub+0xd4>
/home/rex/devel/optee/optee_os/lib/libmpa/mpa_addsub.c:378
    ce14:	f94017a0 	ldr	x0, [x29,#40]
    ce18:	f9001ba0 	str	x0, [x29,#48]
/home/rex/devel/optee/optee_os/lib/libmpa/mpa_addsub.c:384
    ce1c:	b94047a1 	ldr	w1, [x29,#68]
    ce20:	b94043a0 	ldr	w0, [x29,#64]
    ce24:	6b00003f 	cmp	w1, w0
    ce28:	54000a81 	b.ne	cf78 <mpa_sub+0x230>
/home/rex/devel/optee/optee_os/lib/libmpa/mpa_addsub.c:385
    ce2c:	b94047a0 	ldr	w0, [x29,#68]
    ce30:	7100041f 	cmp	w0, #0x1
    ce34:	54000521 	b.ne	ced8 <mpa_sub+0x190>
/home/rex/devel/optee/optee_os/lib/libmpa/mpa_addsub.c:386
    ce38:	f9400fa1 	ldr	x1, [x29,#24]
    ce3c:	f94013a0 	ldr	x0, [x29,#32]
    ce40:	940001ed 	bl	d5f4 <__mpa_abs_greater_than>
    ce44:	7100001f 	cmp	w0, #0x0
    ce48:	54000200 	b.eq	ce88 <mpa_sub+0x140>
/home/rex/devel/optee/optee_os/lib/libmpa/mpa_addsub.c:389
    ce4c:	f9401ba0 	ldr	x0, [x29,#48]
    ce50:	91002006 	add	x6, x0, #0x8
    ce54:	f9401ba0 	ldr	x0, [x29,#48]
    ce58:	91001001 	add	x1, x0, #0x4
/home/rex/devel/optee/optee_os/lib/libmpa/mpa_addsub.c:390
    ce5c:	f94013a0 	ldr	x0, [x29,#32]
    ce60:	91002002 	add	x2, x0, #0x8
/home/rex/devel/optee/optee_os/lib/libmpa/mpa_addsub.c:389
    ce64:	b9404fa3 	ldr	w3, [x29,#76]
/home/rex/devel/optee/optee_os/lib/libmpa/mpa_addsub.c:390
    ce68:	f9400fa0 	ldr	x0, [x29,#24]
    ce6c:	91002000 	add	x0, x0, #0x8
/home/rex/devel/optee/optee_os/lib/libmpa/mpa_addsub.c:389
    ce70:	b9404ba4 	ldr	w4, [x29,#72]
    ce74:	2a0403e5 	mov	w5, w4
    ce78:	aa0003e4 	mov	x4, x0
    ce7c:	aa0603e0 	mov	x0, x6
    ce80:	97fffe9d 	bl	c8f4 <__mpa_abs_sub>
    ce84:	14000062 	b	d00c <mpa_sub+0x2c4>
/home/rex/devel/optee/optee_os/lib/libmpa/mpa_addsub.c:393
    ce88:	f9401ba0 	ldr	x0, [x29,#48]
    ce8c:	91002006 	add	x6, x0, #0x8
    ce90:	f9401ba0 	ldr	x0, [x29,#48]
    ce94:	91001001 	add	x1, x0, #0x4
/home/rex/devel/optee/optee_os/lib/libmpa/mpa_addsub.c:394
    ce98:	f9400fa0 	ldr	x0, [x29,#24]
    ce9c:	91002002 	add	x2, x0, #0x8
/home/rex/devel/optee/optee_os/lib/libmpa/mpa_addsub.c:393
    cea0:	b9404ba3 	ldr	w3, [x29,#72]
/home/rex/devel/optee/optee_os/lib/libmpa/mpa_addsub.c:394
    cea4:	f94013a0 	ldr	x0, [x29,#32]
    cea8:	91002000 	add	x0, x0, #0x8
/home/rex/devel/optee/optee_os/lib/libmpa/mpa_addsub.c:393
    ceac:	b9404fa4 	ldr	w4, [x29,#76]
    ceb0:	2a0403e5 	mov	w5, w4
    ceb4:	aa0003e4 	mov	x4, x0
    ceb8:	aa0603e0 	mov	x0, x6
    cebc:	97fffe8e 	bl	c8f4 <__mpa_abs_sub>
/home/rex/devel/optee/optee_os/lib/libmpa/mpa_addsub.c:395
    cec0:	f9401ba0 	ldr	x0, [x29,#48]
    cec4:	f9401ba1 	ldr	x1, [x29,#48]
    cec8:	b9400421 	ldr	w1, [x1,#4]
    cecc:	4b0103e1 	neg	w1, w1
    ced0:	b9000401 	str	w1, [x0,#4]
    ced4:	1400004e 	b	d00c <mpa_sub+0x2c4>
/home/rex/devel/optee/optee_os/lib/libmpa/mpa_addsub.c:400
    ced8:	f9400fa1 	ldr	x1, [x29,#24]
    cedc:	f94013a0 	ldr	x0, [x29,#32]
    cee0:	940001c5 	bl	d5f4 <__mpa_abs_greater_than>
    cee4:	7100001f 	cmp	w0, #0x0
    cee8:	540002a0 	b.eq	cf3c <mpa_sub+0x1f4>
/home/rex/devel/optee/optee_os/lib/libmpa/mpa_addsub.c:404
    ceec:	f9401ba0 	ldr	x0, [x29,#48]
    cef0:	91002006 	add	x6, x0, #0x8
    cef4:	f9401ba0 	ldr	x0, [x29,#48]
    cef8:	91001001 	add	x1, x0, #0x4
/home/rex/devel/optee/optee_os/lib/libmpa/mpa_addsub.c:405
    cefc:	f94013a0 	ldr	x0, [x29,#32]
    cf00:	91002002 	add	x2, x0, #0x8
/home/rex/devel/optee/optee_os/lib/libmpa/mpa_addsub.c:404
    cf04:	b9404fa3 	ldr	w3, [x29,#76]
/home/rex/devel/optee/optee_os/lib/libmpa/mpa_addsub.c:405
    cf08:	f9400fa0 	ldr	x0, [x29,#24]
    cf0c:	91002000 	add	x0, x0, #0x8
/home/rex/devel/optee/optee_os/lib/libmpa/mpa_addsub.c:404
    cf10:	b9404ba4 	ldr	w4, [x29,#72]
    cf14:	2a0403e5 	mov	w5, w4
    cf18:	aa0003e4 	mov	x4, x0
    cf1c:	aa0603e0 	mov	x0, x6
    cf20:	97fffe75 	bl	c8f4 <__mpa_abs_sub>
/home/rex/devel/optee/optee_os/lib/libmpa/mpa_addsub.c:406
    cf24:	f9401ba0 	ldr	x0, [x29,#48]
    cf28:	f9401ba1 	ldr	x1, [x29,#48]
    cf2c:	b9400421 	ldr	w1, [x1,#4]
    cf30:	4b0103e1 	neg	w1, w1
    cf34:	b9000401 	str	w1, [x0,#4]
    cf38:	14000035 	b	d00c <mpa_sub+0x2c4>
/home/rex/devel/optee/optee_os/lib/libmpa/mpa_addsub.c:409
    cf3c:	f9401ba0 	ldr	x0, [x29,#48]
    cf40:	91002006 	add	x6, x0, #0x8
    cf44:	f9401ba0 	ldr	x0, [x29,#48]
    cf48:	91001001 	add	x1, x0, #0x4
/home/rex/devel/optee/optee_os/lib/libmpa/mpa_addsub.c:410
    cf4c:	f9400fa0 	ldr	x0, [x29,#24]
    cf50:	91002002 	add	x2, x0, #0x8
/home/rex/devel/optee/optee_os/lib/libmpa/mpa_addsub.c:409
    cf54:	b9404ba3 	ldr	w3, [x29,#72]
/home/rex/devel/optee/optee_os/lib/libmpa/mpa_addsub.c:410
    cf58:	f94013a0 	ldr	x0, [x29,#32]
    cf5c:	91002000 	add	x0, x0, #0x8
/home/rex/devel/optee/optee_os/lib/libmpa/mpa_addsub.c:409
    cf60:	b9404fa4 	ldr	w4, [x29,#76]
    cf64:	2a0403e5 	mov	w5, w4
    cf68:	aa0003e4 	mov	x4, x0
    cf6c:	aa0603e0 	mov	x0, x6
    cf70:	97fffe61 	bl	c8f4 <__mpa_abs_sub>
    cf74:	14000026 	b	d00c <mpa_sub+0x2c4>
/home/rex/devel/optee/optee_os/lib/libmpa/mpa_addsub.c:414
    cf78:	b94047a0 	ldr	w0, [x29,#68]
    cf7c:	7100041f 	cmp	w0, #0x1
    cf80:	54000201 	b.ne	cfc0 <mpa_sub+0x278>
/home/rex/devel/optee/optee_os/lib/libmpa/mpa_addsub.c:416
    cf84:	f9401ba0 	ldr	x0, [x29,#48]
    cf88:	91002006 	add	x6, x0, #0x8
    cf8c:	f9401ba0 	ldr	x0, [x29,#48]
    cf90:	91001001 	add	x1, x0, #0x4
    cf94:	f94013a0 	ldr	x0, [x29,#32]
    cf98:	91002002 	add	x2, x0, #0x8
    cf9c:	b9404fa3 	ldr	w3, [x29,#76]
/home/rex/devel/optee/optee_os/lib/libmpa/mpa_addsub.c:417
    cfa0:	f9400fa0 	ldr	x0, [x29,#24]
    cfa4:	91002000 	add	x0, x0, #0x8
/home/rex/devel/optee/optee_os/lib/libmpa/mpa_addsub.c:416
    cfa8:	b9404ba4 	ldr	w4, [x29,#72]
    cfac:	2a0403e5 	mov	w5, w4
    cfb0:	aa0003e4 	mov	x4, x0
    cfb4:	aa0603e0 	mov	x0, x6
    cfb8:	97fffd7e 	bl	c5b0 <__mpa_abs_add>
    cfbc:	14000014 	b	d00c <mpa_sub+0x2c4>
/home/rex/devel/optee/optee_os/lib/libmpa/mpa_addsub.c:420
    cfc0:	f9401ba0 	ldr	x0, [x29,#48]
    cfc4:	91002006 	add	x6, x0, #0x8
    cfc8:	f9401ba0 	ldr	x0, [x29,#48]
    cfcc:	91001001 	add	x1, x0, #0x4
    cfd0:	f94013a0 	ldr	x0, [x29,#32]
    cfd4:	91002002 	add	x2, x0, #0x8
    cfd8:	b9404fa3 	ldr	w3, [x29,#76]
/home/rex/devel/optee/optee_os/lib/libmpa/mpa_addsub.c:421
    cfdc:	f9400fa0 	ldr	x0, [x29,#24]
    cfe0:	91002000 	add	x0, x0, #0x8
/home/rex/devel/optee/optee_os/lib/libmpa/mpa_addsub.c:420
    cfe4:	b9404ba4 	ldr	w4, [x29,#72]
    cfe8:	2a0403e5 	mov	w5, w4
    cfec:	aa0003e4 	mov	x4, x0
    cff0:	aa0603e0 	mov	x0, x6
    cff4:	97fffd6f 	bl	c5b0 <__mpa_abs_add>
/home/rex/devel/optee/optee_os/lib/libmpa/mpa_addsub.c:422
    cff8:	f9401ba0 	ldr	x0, [x29,#48]
    cffc:	f9401ba1 	ldr	x1, [x29,#48]
    d000:	b9400421 	ldr	w1, [x1,#4]
    d004:	4b0103e1 	neg	w1, w1
    d008:	b9000401 	str	w1, [x0,#4]
/home/rex/devel/optee/optee_os/lib/libmpa/mpa_addsub.c:426
    d00c:	f9401ba0 	ldr	x0, [x29,#48]
    d010:	aa0003e1 	mov	x1, x0
    d014:	f94017a0 	ldr	x0, [x29,#40]
    d018:	97ffece0 	bl	8398 <mpa_copy>
/home/rex/devel/optee/optee_os/lib/libmpa/mpa_addsub.c:427
    d01c:	b9403fa0 	ldr	w0, [x29,#60]
    d020:	7100001f 	cmp	w0, #0x0
    d024:	54000080 	b.eq	d034 <mpa_sub+0x2ec>
/home/rex/devel/optee/optee_os/lib/libmpa/mpa_addsub.c:428
    d028:	9100c3a0 	add	x0, x29, #0x30
    d02c:	f9400ba1 	ldr	x1, [x29,#16]
    d030:	97fff870 	bl	b1f0 <mpa_free_static_temp_var>
/home/rex/devel/optee/optee_os/lib/libmpa/mpa_addsub.c:429
    d034:	d503201f 	nop
    d038:	a8c57bfd 	ldp	x29, x30, [sp],#80
    d03c:	d65f03c0 	ret

000000000000d040 <mpa_neg>:
mpa_neg():
/home/rex/devel/optee/optee_os/lib/libmpa/mpa_addsub.c:438
    d040:	a9be7bfd 	stp	x29, x30, [sp,#-32]!
    d044:	910003fd 	mov	x29, sp
    d048:	f9000fa0 	str	x0, [x29,#24]
    d04c:	f9000ba1 	str	x1, [x29,#16]
/home/rex/devel/optee/optee_os/lib/libmpa/mpa_addsub.c:439
    d050:	f9400ba1 	ldr	x1, [x29,#16]
    d054:	f9400fa0 	ldr	x0, [x29,#24]
    d058:	97ffecd0 	bl	8398 <mpa_copy>
/home/rex/devel/optee/optee_os/lib/libmpa/mpa_addsub.c:440
    d05c:	f9400fa0 	ldr	x0, [x29,#24]
    d060:	b9400400 	ldr	w0, [x0,#4]
    d064:	4b0003e1 	neg	w1, w0
    d068:	f9400fa0 	ldr	x0, [x29,#24]
    d06c:	b9000401 	str	w1, [x0,#4]
/home/rex/devel/optee/optee_os/lib/libmpa/mpa_addsub.c:441
    d070:	d503201f 	nop
    d074:	a8c27bfd 	ldp	x29, x30, [sp],#32
    d078:	d65f03c0 	ret

000000000000d07c <mpa_add_word>:
mpa_add_word():
/home/rex/devel/optee/optee_os/lib/libmpa/mpa_addsub.c:450
    d07c:	a9bb7bfd 	stp	x29, x30, [sp,#-80]!
    d080:	910003fd 	mov	x29, sp
    d084:	f90017a0 	str	x0, [x29,#40]
    d088:	f90013a1 	str	x1, [x29,#32]
    d08c:	b9001fa2 	str	w2, [x29,#28]
    d090:	f9000ba3 	str	x3, [x29,#16]
/home/rex/devel/optee/optee_os/lib/libmpa/mpa_addsub.c:456
    d094:	b9401fa0 	ldr	w0, [x29,#28]
    d098:	7100001f 	cmp	w0, #0x0
    d09c:	540000a1 	b.ne	d0b0 <mpa_add_word+0x34>
/home/rex/devel/optee/optee_os/lib/libmpa/mpa_addsub.c:457
    d0a0:	f94013a1 	ldr	x1, [x29,#32]
    d0a4:	f94017a0 	ldr	x0, [x29,#40]
    d0a8:	97ffecbc 	bl	8398 <mpa_copy>
/home/rex/devel/optee/optee_os/lib/libmpa/mpa_addsub.c:458
    d0ac:	14000070 	b	d26c <mpa_add_word+0x1f0>
/home/rex/devel/optee/optee_os/lib/libmpa/mpa_addsub.c:461
    d0b0:	f94013a0 	ldr	x0, [x29,#32]
    d0b4:	b9400400 	ldr	w0, [x0,#4]
    d0b8:	7100001f 	cmp	w0, #0x0
    d0bc:	54000101 	b.ne	d0dc <mpa_add_word+0x60>
/home/rex/devel/optee/optee_os/lib/libmpa/mpa_addsub.c:462
    d0c0:	f94017a0 	ldr	x0, [x29,#40]
    d0c4:	52800021 	mov	w1, #0x1                   	// #1
    d0c8:	b9000401 	str	w1, [x0,#4]
/home/rex/devel/optee/optee_os/lib/libmpa/mpa_addsub.c:463
    d0cc:	b9401fa1 	ldr	w1, [x29,#28]
    d0d0:	f94017a0 	ldr	x0, [x29,#40]
    d0d4:	b9000801 	str	w1, [x0,#8]
/home/rex/devel/optee/optee_os/lib/libmpa/mpa_addsub.c:464
    d0d8:	14000065 	b	d26c <mpa_add_word+0x1f0>
/home/rex/devel/optee/optee_os/lib/libmpa/mpa_addsub.c:467
    d0dc:	f94013a0 	ldr	x0, [x29,#32]
    d0e0:	b9400400 	ldr	w0, [x0,#4]
    d0e4:	7100001f 	cmp	w0, #0x0
    d0e8:	5400006b 	b.lt	d0f4 <mpa_add_word+0x78>
/home/rex/devel/optee/optee_os/lib/libmpa/mpa_addsub.c:467 (discriminator 1)
    d0ec:	52800020 	mov	w0, #0x1                   	// #1
    d0f0:	14000002 	b	d0f8 <mpa_add_word+0x7c>
/home/rex/devel/optee/optee_os/lib/libmpa/mpa_addsub.c:467 (discriminator 2)
    d0f4:	12800000 	mov	w0, #0xffffffff            	// #-1
/home/rex/devel/optee/optee_os/lib/libmpa/mpa_addsub.c:467 (discriminator 4)
    d0f8:	b9004fa0 	str	w0, [x29,#76]
/home/rex/devel/optee/optee_os/lib/libmpa/mpa_addsub.c:468 (discriminator 4)
    d0fc:	f94013a0 	ldr	x0, [x29,#32]
    d100:	b9400400 	ldr	w0, [x0,#4]
    d104:	7100001f 	cmp	w0, #0x0
    d108:	5a80a400 	cneg	w0, w0, lt
    d10c:	b9004ba0 	str	w0, [x29,#72]
/home/rex/devel/optee/optee_os/lib/libmpa/mpa_addsub.c:471 (discriminator 4)
    d110:	f94017a1 	ldr	x1, [x29,#40]
    d114:	f94013a0 	ldr	x0, [x29,#32]
    d118:	eb00003f 	cmp	x1, x0
    d11c:	1a9f17e0 	cset	w0, eq
    d120:	12001c00 	and	w0, w0, #0xff
    d124:	b90047a0 	str	w0, [x29,#68]
/home/rex/devel/optee/optee_os/lib/libmpa/mpa_addsub.c:472 (discriminator 4)
    d128:	b94047a0 	ldr	w0, [x29,#68]
    d12c:	7100001f 	cmp	w0, #0x0
    d130:	540000a0 	b.eq	d144 <mpa_add_word+0xc8>
/home/rex/devel/optee/optee_os/lib/libmpa/mpa_addsub.c:473
    d134:	9100e3a0 	add	x0, x29, #0x38
    d138:	f9400ba1 	ldr	x1, [x29,#16]
    d13c:	97fff822 	bl	b1c4 <mpa_alloc_static_temp_var>
    d140:	14000003 	b	d14c <mpa_add_word+0xd0>
/home/rex/devel/optee/optee_os/lib/libmpa/mpa_addsub.c:475
    d144:	f94017a0 	ldr	x0, [x29,#40]
    d148:	f9001fa0 	str	x0, [x29,#56]
/home/rex/devel/optee/optee_os/lib/libmpa/mpa_addsub.c:478
    d14c:	b9404fa0 	ldr	w0, [x29,#76]
    d150:	7100041f 	cmp	w0, #0x1
    d154:	54000201 	b.ne	d194 <mpa_add_word+0x118>
/home/rex/devel/optee/optee_os/lib/libmpa/mpa_addsub.c:480
    d158:	f9401fa0 	ldr	x0, [x29,#56]
    d15c:	91002006 	add	x6, x0, #0x8
    d160:	f9401fa0 	ldr	x0, [x29,#56]
    d164:	91001001 	add	x1, x0, #0x4
    d168:	f94013a0 	ldr	x0, [x29,#32]
    d16c:	91002000 	add	x0, x0, #0x8
    d170:	b9404ba2 	ldr	w2, [x29,#72]
    d174:	910073a3 	add	x3, x29, #0x1c
    d178:	52800025 	mov	w5, #0x1                   	// #1
    d17c:	aa0303e4 	mov	x4, x3
    d180:	2a0203e3 	mov	w3, w2
    d184:	aa0003e2 	mov	x2, x0
    d188:	aa0603e0 	mov	x0, x6
    d18c:	97fffd09 	bl	c5b0 <__mpa_abs_add>
    d190:	1400002d 	b	d244 <mpa_add_word+0x1c8>
/home/rex/devel/optee/optee_os/lib/libmpa/mpa_addsub.c:483
    d194:	f94013a0 	ldr	x0, [x29,#32]
    d198:	b9400400 	ldr	w0, [x0,#4]
    d19c:	7100001f 	cmp	w0, #0x0
    d1a0:	5a80a400 	cneg	w0, w0, lt
    d1a4:	7100041f 	cmp	w0, #0x1
    d1a8:	540000cc 	b.gt	d1c0 <mpa_add_word+0x144>
/home/rex/devel/optee/optee_os/lib/libmpa/mpa_addsub.c:483 (discriminator 1)
    d1ac:	f94013a0 	ldr	x0, [x29,#32]
    d1b0:	b9400801 	ldr	w1, [x0,#8]
    d1b4:	b9401fa0 	ldr	w0, [x29,#28]
    d1b8:	6b00003f 	cmp	w1, w0
    d1bc:	540002a9 	b.ls	d210 <mpa_add_word+0x194>
/home/rex/devel/optee/optee_os/lib/libmpa/mpa_addsub.c:487
    d1c0:	f9401fa0 	ldr	x0, [x29,#56]
    d1c4:	91002006 	add	x6, x0, #0x8
    d1c8:	f9401fa0 	ldr	x0, [x29,#56]
    d1cc:	91001001 	add	x1, x0, #0x4
    d1d0:	f94013a0 	ldr	x0, [x29,#32]
    d1d4:	91002000 	add	x0, x0, #0x8
    d1d8:	b9404ba2 	ldr	w2, [x29,#72]
    d1dc:	910073a3 	add	x3, x29, #0x1c
    d1e0:	52800025 	mov	w5, #0x1                   	// #1
    d1e4:	aa0303e4 	mov	x4, x3
    d1e8:	2a0203e3 	mov	w3, w2
    d1ec:	aa0003e2 	mov	x2, x0
    d1f0:	aa0603e0 	mov	x0, x6
    d1f4:	97fffdc0 	bl	c8f4 <__mpa_abs_sub>
/home/rex/devel/optee/optee_os/lib/libmpa/mpa_addsub.c:489
    d1f8:	f9401fa0 	ldr	x0, [x29,#56]
    d1fc:	f9401fa1 	ldr	x1, [x29,#56]
    d200:	b9400421 	ldr	w1, [x1,#4]
    d204:	4b0103e1 	neg	w1, w1
    d208:	b9000401 	str	w1, [x0,#4]
    d20c:	1400000e 	b	d244 <mpa_add_word+0x1c8>
/home/rex/devel/optee/optee_os/lib/libmpa/mpa_addsub.c:492
    d210:	f9401fa0 	ldr	x0, [x29,#56]
    d214:	b9401fa2 	ldr	w2, [x29,#28]
    d218:	f94013a1 	ldr	x1, [x29,#32]
    d21c:	b9400821 	ldr	w1, [x1,#8]
    d220:	4b010041 	sub	w1, w2, w1
    d224:	b9000801 	str	w1, [x0,#8]
/home/rex/devel/optee/optee_os/lib/libmpa/mpa_addsub.c:493
    d228:	f9401fa0 	ldr	x0, [x29,#56]
    d22c:	f9401fa1 	ldr	x1, [x29,#56]
    d230:	b9400821 	ldr	w1, [x1,#8]
    d234:	7100003f 	cmp	w1, #0x0
    d238:	1a9f07e1 	cset	w1, ne
    d23c:	12001c21 	and	w1, w1, #0xff
    d240:	b9000401 	str	w1, [x0,#4]
/home/rex/devel/optee/optee_os/lib/libmpa/mpa_addsub.c:497
    d244:	f9401fa0 	ldr	x0, [x29,#56]
    d248:	aa0003e1 	mov	x1, x0
    d24c:	f94017a0 	ldr	x0, [x29,#40]
    d250:	97ffec52 	bl	8398 <mpa_copy>
/home/rex/devel/optee/optee_os/lib/libmpa/mpa_addsub.c:498
    d254:	b94047a0 	ldr	w0, [x29,#68]
    d258:	7100001f 	cmp	w0, #0x0
    d25c:	54000080 	b.eq	d26c <mpa_add_word+0x1f0>
/home/rex/devel/optee/optee_os/lib/libmpa/mpa_addsub.c:499
    d260:	9100e3a0 	add	x0, x29, #0x38
    d264:	f9400ba1 	ldr	x1, [x29,#16]
    d268:	97fff7e2 	bl	b1f0 <mpa_free_static_temp_var>
/home/rex/devel/optee/optee_os/lib/libmpa/mpa_addsub.c:500
    d26c:	a8c57bfd 	ldp	x29, x30, [sp],#80
    d270:	d65f03c0 	ret

000000000000d274 <mpa_sub_word>:
mpa_sub_word():
/home/rex/devel/optee/optee_os/lib/libmpa/mpa_addsub.c:509
    d274:	a9bb7bfd 	stp	x29, x30, [sp,#-80]!
    d278:	910003fd 	mov	x29, sp
    d27c:	f90017a0 	str	x0, [x29,#40]
    d280:	f90013a1 	str	x1, [x29,#32]
    d284:	b9001fa2 	str	w2, [x29,#28]
    d288:	f9000ba3 	str	x3, [x29,#16]
/home/rex/devel/optee/optee_os/lib/libmpa/mpa_addsub.c:515
    d28c:	b9401fa0 	ldr	w0, [x29,#28]
    d290:	7100001f 	cmp	w0, #0x0
    d294:	540000a1 	b.ne	d2a8 <mpa_sub_word+0x34>
/home/rex/devel/optee/optee_os/lib/libmpa/mpa_addsub.c:516
    d298:	f94013a1 	ldr	x1, [x29,#32]
    d29c:	f94017a0 	ldr	x0, [x29,#40]
    d2a0:	97ffec3e 	bl	8398 <mpa_copy>
/home/rex/devel/optee/optee_os/lib/libmpa/mpa_addsub.c:517
    d2a4:	14000072 	b	d46c <mpa_sub_word+0x1f8>
/home/rex/devel/optee/optee_os/lib/libmpa/mpa_addsub.c:520
    d2a8:	f94013a0 	ldr	x0, [x29,#32]
    d2ac:	b9400400 	ldr	w0, [x0,#4]
    d2b0:	7100001f 	cmp	w0, #0x0
    d2b4:	54000101 	b.ne	d2d4 <mpa_sub_word+0x60>
/home/rex/devel/optee/optee_os/lib/libmpa/mpa_addsub.c:521
    d2b8:	f94017a0 	ldr	x0, [x29,#40]
    d2bc:	12800001 	mov	w1, #0xffffffff            	// #-1
    d2c0:	b9000401 	str	w1, [x0,#4]
/home/rex/devel/optee/optee_os/lib/libmpa/mpa_addsub.c:522
    d2c4:	b9401fa1 	ldr	w1, [x29,#28]
    d2c8:	f94017a0 	ldr	x0, [x29,#40]
    d2cc:	b9000801 	str	w1, [x0,#8]
/home/rex/devel/optee/optee_os/lib/libmpa/mpa_addsub.c:523
    d2d0:	14000067 	b	d46c <mpa_sub_word+0x1f8>
/home/rex/devel/optee/optee_os/lib/libmpa/mpa_addsub.c:526
    d2d4:	f94013a0 	ldr	x0, [x29,#32]
    d2d8:	b9400400 	ldr	w0, [x0,#4]
    d2dc:	7100001f 	cmp	w0, #0x0
    d2e0:	5400006b 	b.lt	d2ec <mpa_sub_word+0x78>
/home/rex/devel/optee/optee_os/lib/libmpa/mpa_addsub.c:526 (discriminator 1)
    d2e4:	52800020 	mov	w0, #0x1                   	// #1
    d2e8:	14000002 	b	d2f0 <mpa_sub_word+0x7c>
/home/rex/devel/optee/optee_os/lib/libmpa/mpa_addsub.c:526 (discriminator 2)
    d2ec:	12800000 	mov	w0, #0xffffffff            	// #-1
/home/rex/devel/optee/optee_os/lib/libmpa/mpa_addsub.c:526 (discriminator 4)
    d2f0:	b9004fa0 	str	w0, [x29,#76]
/home/rex/devel/optee/optee_os/lib/libmpa/mpa_addsub.c:527 (discriminator 4)
    d2f4:	f94013a0 	ldr	x0, [x29,#32]
    d2f8:	b9400400 	ldr	w0, [x0,#4]
    d2fc:	7100001f 	cmp	w0, #0x0
    d300:	5a80a400 	cneg	w0, w0, lt
    d304:	b9004ba0 	str	w0, [x29,#72]
/home/rex/devel/optee/optee_os/lib/libmpa/mpa_addsub.c:530 (discriminator 4)
    d308:	f94017a1 	ldr	x1, [x29,#40]
    d30c:	f94013a0 	ldr	x0, [x29,#32]
    d310:	eb00003f 	cmp	x1, x0
    d314:	1a9f17e0 	cset	w0, eq
    d318:	12001c00 	and	w0, w0, #0xff
    d31c:	39011fa0 	strb	w0, [x29,#71]
/home/rex/devel/optee/optee_os/lib/libmpa/mpa_addsub.c:531 (discriminator 4)
    d320:	39411fa0 	ldrb	w0, [x29,#71]
    d324:	7100001f 	cmp	w0, #0x0
    d328:	540000a0 	b.eq	d33c <mpa_sub_word+0xc8>
/home/rex/devel/optee/optee_os/lib/libmpa/mpa_addsub.c:532
    d32c:	9100e3a0 	add	x0, x29, #0x38
    d330:	f9400ba1 	ldr	x1, [x29,#16]
    d334:	97fff7a4 	bl	b1c4 <mpa_alloc_static_temp_var>
    d338:	14000003 	b	d344 <mpa_sub_word+0xd0>
/home/rex/devel/optee/optee_os/lib/libmpa/mpa_addsub.c:534
    d33c:	f94017a0 	ldr	x0, [x29,#40]
    d340:	f9001fa0 	str	x0, [x29,#56]
/home/rex/devel/optee/optee_os/lib/libmpa/mpa_addsub.c:544
    d344:	b9404fa0 	ldr	w0, [x29,#76]
    d348:	7100041f 	cmp	w0, #0x1
    d34c:	54000561 	b.ne	d3f8 <mpa_sub_word+0x184>
/home/rex/devel/optee/optee_os/lib/libmpa/mpa_addsub.c:545
    d350:	f94013a0 	ldr	x0, [x29,#32]
    d354:	b9400400 	ldr	w0, [x0,#4]
    d358:	7100001f 	cmp	w0, #0x0
    d35c:	5a80a400 	cneg	w0, w0, lt
    d360:	7100041f 	cmp	w0, #0x1
    d364:	540000cc 	b.gt	d37c <mpa_sub_word+0x108>
/home/rex/devel/optee/optee_os/lib/libmpa/mpa_addsub.c:545 (discriminator 1)
    d368:	f94013a0 	ldr	x0, [x29,#32]
    d36c:	b9400801 	ldr	w1, [x0,#8]
    d370:	b9401fa0 	ldr	w0, [x29,#28]
    d374:	6b00003f 	cmp	w1, w0
    d378:	54000209 	b.ls	d3b8 <mpa_sub_word+0x144>
/home/rex/devel/optee/optee_os/lib/libmpa/mpa_addsub.c:546
    d37c:	f9401fa0 	ldr	x0, [x29,#56]
    d380:	91002006 	add	x6, x0, #0x8
    d384:	f9401fa0 	ldr	x0, [x29,#56]
    d388:	91001001 	add	x1, x0, #0x4
    d38c:	f94013a0 	ldr	x0, [x29,#32]
    d390:	91002000 	add	x0, x0, #0x8
    d394:	b9404ba2 	ldr	w2, [x29,#72]
    d398:	910073a3 	add	x3, x29, #0x1c
    d39c:	52800025 	mov	w5, #0x1                   	// #1
    d3a0:	aa0303e4 	mov	x4, x3
    d3a4:	2a0203e3 	mov	w3, w2
    d3a8:	aa0003e2 	mov	x2, x0
    d3ac:	aa0603e0 	mov	x0, x6
    d3b0:	97fffd51 	bl	c8f4 <__mpa_abs_sub>
    d3b4:	14000024 	b	d444 <mpa_sub_word+0x1d0>
/home/rex/devel/optee/optee_os/lib/libmpa/mpa_addsub.c:549
    d3b8:	f9401fa0 	ldr	x0, [x29,#56]
    d3bc:	b9401fa2 	ldr	w2, [x29,#28]
    d3c0:	f94013a1 	ldr	x1, [x29,#32]
    d3c4:	b9400821 	ldr	w1, [x1,#8]
    d3c8:	4b010041 	sub	w1, w2, w1
    d3cc:	b9000801 	str	w1, [x0,#8]
/home/rex/devel/optee/optee_os/lib/libmpa/mpa_addsub.c:550
    d3d0:	f9401fa1 	ldr	x1, [x29,#56]
    d3d4:	f9401fa0 	ldr	x0, [x29,#56]
    d3d8:	b9400800 	ldr	w0, [x0,#8]
    d3dc:	7100001f 	cmp	w0, #0x0
    d3e0:	54000061 	b.ne	d3ec <mpa_sub_word+0x178>
/home/rex/devel/optee/optee_os/lib/libmpa/mpa_addsub.c:550 (discriminator 1)
    d3e4:	52800000 	mov	w0, #0x0                   	// #0
    d3e8:	14000002 	b	d3f0 <mpa_sub_word+0x17c>
/home/rex/devel/optee/optee_os/lib/libmpa/mpa_addsub.c:550 (discriminator 2)
    d3ec:	12800000 	mov	w0, #0xffffffff            	// #-1
/home/rex/devel/optee/optee_os/lib/libmpa/mpa_addsub.c:550 (discriminator 4)
    d3f0:	b9000420 	str	w0, [x1,#4]
    d3f4:	14000014 	b	d444 <mpa_sub_word+0x1d0>
/home/rex/devel/optee/optee_os/lib/libmpa/mpa_addsub.c:553
    d3f8:	f9401fa0 	ldr	x0, [x29,#56]
    d3fc:	91002006 	add	x6, x0, #0x8
    d400:	f9401fa0 	ldr	x0, [x29,#56]
    d404:	91001001 	add	x1, x0, #0x4
    d408:	f94013a0 	ldr	x0, [x29,#32]
    d40c:	91002000 	add	x0, x0, #0x8
    d410:	b9404ba2 	ldr	w2, [x29,#72]
    d414:	910073a3 	add	x3, x29, #0x1c
    d418:	52800025 	mov	w5, #0x1                   	// #1
    d41c:	aa0303e4 	mov	x4, x3
    d420:	2a0203e3 	mov	w3, w2
    d424:	aa0003e2 	mov	x2, x0
    d428:	aa0603e0 	mov	x0, x6
    d42c:	97fffc61 	bl	c5b0 <__mpa_abs_add>
/home/rex/devel/optee/optee_os/lib/libmpa/mpa_addsub.c:555
    d430:	f9401fa0 	ldr	x0, [x29,#56]
    d434:	f9401fa1 	ldr	x1, [x29,#56]
    d438:	b9400421 	ldr	w1, [x1,#4]
    d43c:	4b0103e1 	neg	w1, w1
    d440:	b9000401 	str	w1, [x0,#4]
/home/rex/devel/optee/optee_os/lib/libmpa/mpa_addsub.c:558
    d444:	f9401fa0 	ldr	x0, [x29,#56]
    d448:	aa0003e1 	mov	x1, x0
    d44c:	f94017a0 	ldr	x0, [x29,#40]
    d450:	97ffebd2 	bl	8398 <mpa_copy>
/home/rex/devel/optee/optee_os/lib/libmpa/mpa_addsub.c:559
    d454:	39411fa0 	ldrb	w0, [x29,#71]
    d458:	7100001f 	cmp	w0, #0x0
    d45c:	54000080 	b.eq	d46c <mpa_sub_word+0x1f8>
/home/rex/devel/optee/optee_os/lib/libmpa/mpa_addsub.c:560
    d460:	9100e3a0 	add	x0, x29, #0x38
    d464:	f9400ba1 	ldr	x1, [x29,#16]
    d468:	97fff762 	bl	b1f0 <mpa_free_static_temp_var>
/home/rex/devel/optee/optee_os/lib/libmpa/mpa_addsub.c:561
    d46c:	a8c57bfd 	ldp	x29, x30, [sp],#80
    d470:	d65f03c0 	ret

000000000000d474 <__mpa_abs_cmp>:
__mpa_abs_cmp():
/home/rex/devel/optee/optee_os/lib/libmpa/mpa_cmp.c:43
    d474:	d10083ff 	sub	sp, sp, #0x20
    d478:	f90007e0 	str	x0, [sp,#8]
    d47c:	f90003e1 	str	x1, [sp]
/home/rex/devel/optee/optee_os/lib/libmpa/mpa_cmp.c:48
    d480:	f94007e1 	ldr	x1, [sp,#8]
    d484:	f94003e0 	ldr	x0, [sp]
    d488:	eb00003f 	cmp	x1, x0
    d48c:	54000061 	b.ne	d498 <__mpa_abs_cmp+0x24>
/home/rex/devel/optee/optee_os/lib/libmpa/mpa_cmp.c:49
    d490:	52800000 	mov	w0, #0x0                   	// #0
    d494:	14000056 	b	d5ec <__mpa_abs_cmp+0x178>
/home/rex/devel/optee/optee_os/lib/libmpa/mpa_cmp.c:52
    d498:	f94007e0 	ldr	x0, [sp,#8]
    d49c:	b9400400 	ldr	w0, [x0,#4]
    d4a0:	7100001f 	cmp	w0, #0x0
    d4a4:	5a80a401 	cneg	w1, w0, lt
    d4a8:	f94003e0 	ldr	x0, [sp]
    d4ac:	b9400400 	ldr	w0, [x0,#4]
    d4b0:	7100001f 	cmp	w0, #0x0
    d4b4:	5a80a400 	cneg	w0, w0, lt
    d4b8:	6b00003f 	cmp	w1, w0
    d4bc:	54000160 	b.eq	d4e8 <__mpa_abs_cmp+0x74>
/home/rex/devel/optee/optee_os/lib/libmpa/mpa_cmp.c:53
    d4c0:	f94007e0 	ldr	x0, [sp,#8]
    d4c4:	b9400400 	ldr	w0, [x0,#4]
    d4c8:	7100001f 	cmp	w0, #0x0
    d4cc:	5a80a401 	cneg	w1, w0, lt
    d4d0:	f94003e0 	ldr	x0, [sp]
    d4d4:	b9400400 	ldr	w0, [x0,#4]
    d4d8:	7100001f 	cmp	w0, #0x0
    d4dc:	5a80a400 	cneg	w0, w0, lt
    d4e0:	4b000020 	sub	w0, w1, w0
    d4e4:	14000042 	b	d5ec <__mpa_abs_cmp+0x178>
/home/rex/devel/optee/optee_os/lib/libmpa/mpa_cmp.c:55
    d4e8:	f94007e0 	ldr	x0, [sp,#8]
    d4ec:	b9400400 	ldr	w0, [x0,#4]
    d4f0:	7100001f 	cmp	w0, #0x0
    d4f4:	540000e1 	b.ne	d510 <__mpa_abs_cmp+0x9c>
/home/rex/devel/optee/optee_os/lib/libmpa/mpa_cmp.c:55 (discriminator 1)
    d4f8:	f94003e0 	ldr	x0, [sp]
    d4fc:	b9400400 	ldr	w0, [x0,#4]
    d500:	7100001f 	cmp	w0, #0x0
    d504:	54000061 	b.ne	d510 <__mpa_abs_cmp+0x9c>
/home/rex/devel/optee/optee_os/lib/libmpa/mpa_cmp.c:56
    d508:	52800000 	mov	w0, #0x0                   	// #0
    d50c:	14000038 	b	d5ec <__mpa_abs_cmp+0x178>
/home/rex/devel/optee/optee_os/lib/libmpa/mpa_cmp.c:59
    d510:	f94007e0 	ldr	x0, [sp,#8]
    d514:	b9400400 	ldr	w0, [x0,#4]
    d518:	7100001f 	cmp	w0, #0x0
    d51c:	5a80a400 	cneg	w0, w0, lt
    d520:	51000400 	sub	w0, w0, #0x1
    d524:	b9001fe0 	str	w0, [sp,#28]
/home/rex/devel/optee/optee_os/lib/libmpa/mpa_cmp.c:60
    d528:	52800020 	mov	w0, #0x1                   	// #1
    d52c:	39006fe0 	strb	w0, [sp,#27]
/home/rex/devel/optee/optee_os/lib/libmpa/mpa_cmp.c:61
    d530:	14000012 	b	d578 <__mpa_abs_cmp+0x104>
/home/rex/devel/optee/optee_os/lib/libmpa/mpa_cmp.c:62
    d534:	f94007e1 	ldr	x1, [sp,#8]
    d538:	b9801fe0 	ldrsw	x0, [sp,#28]
    d53c:	d37ef400 	lsl	x0, x0, #2
    d540:	8b000020 	add	x0, x1, x0
    d544:	b9400801 	ldr	w1, [x0,#8]
    d548:	f94003e2 	ldr	x2, [sp]
    d54c:	b9801fe0 	ldrsw	x0, [sp,#28]
    d550:	d37ef400 	lsl	x0, x0, #2
    d554:	8b000040 	add	x0, x2, x0
    d558:	b9400800 	ldr	w0, [x0,#8]
    d55c:	6b00003f 	cmp	w1, w0
    d560:	1a9f17e0 	cset	w0, eq
    d564:	12001c00 	and	w0, w0, #0xff
    d568:	39006fe0 	strb	w0, [sp,#27]
/home/rex/devel/optee/optee_os/lib/libmpa/mpa_cmp.c:63
    d56c:	b9401fe0 	ldr	w0, [sp,#28]
    d570:	51000400 	sub	w0, w0, #0x1
    d574:	b9001fe0 	str	w0, [sp,#28]
/home/rex/devel/optee/optee_os/lib/libmpa/mpa_cmp.c:61
    d578:	39406fe0 	ldrb	w0, [sp,#27]
    d57c:	7100001f 	cmp	w0, #0x0
    d580:	54000080 	b.eq	d590 <__mpa_abs_cmp+0x11c>
/home/rex/devel/optee/optee_os/lib/libmpa/mpa_cmp.c:61 (discriminator 1)
    d584:	b9401fe0 	ldr	w0, [sp,#28]
    d588:	7100001f 	cmp	w0, #0x0
    d58c:	54fffd4a 	b.ge	d534 <__mpa_abs_cmp+0xc0>
/home/rex/devel/optee/optee_os/lib/libmpa/mpa_cmp.c:65
    d590:	39406fe0 	ldrb	w0, [sp,#27]
    d594:	7100001f 	cmp	w0, #0x0
    d598:	54000060 	b.eq	d5a4 <__mpa_abs_cmp+0x130>
/home/rex/devel/optee/optee_os/lib/libmpa/mpa_cmp.c:66
    d59c:	52800000 	mov	w0, #0x0                   	// #0
    d5a0:	14000013 	b	d5ec <__mpa_abs_cmp+0x178>
/home/rex/devel/optee/optee_os/lib/libmpa/mpa_cmp.c:67
    d5a4:	b9401fe0 	ldr	w0, [sp,#28]
    d5a8:	11000400 	add	w0, w0, #0x1
    d5ac:	b9001fe0 	str	w0, [sp,#28]
/home/rex/devel/optee/optee_os/lib/libmpa/mpa_cmp.c:68
    d5b0:	f94007e1 	ldr	x1, [sp,#8]
    d5b4:	b9801fe0 	ldrsw	x0, [sp,#28]
    d5b8:	d37ef400 	lsl	x0, x0, #2
    d5bc:	8b000020 	add	x0, x1, x0
    d5c0:	b9400801 	ldr	w1, [x0,#8]
    d5c4:	f94003e2 	ldr	x2, [sp]
    d5c8:	b9801fe0 	ldrsw	x0, [sp,#28]
    d5cc:	d37ef400 	lsl	x0, x0, #2
    d5d0:	8b000040 	add	x0, x2, x0
    d5d4:	b9400800 	ldr	w0, [x0,#8]
    d5d8:	6b00003f 	cmp	w1, w0
    d5dc:	54000069 	b.ls	d5e8 <__mpa_abs_cmp+0x174>
/home/rex/devel/optee/optee_os/lib/libmpa/mpa_cmp.c:68 (discriminator 1)
    d5e0:	52800020 	mov	w0, #0x1                   	// #1
    d5e4:	14000002 	b	d5ec <__mpa_abs_cmp+0x178>
/home/rex/devel/optee/optee_os/lib/libmpa/mpa_cmp.c:68 (discriminator 2)
    d5e8:	12800000 	mov	w0, #0xffffffff            	// #-1
/home/rex/devel/optee/optee_os/lib/libmpa/mpa_cmp.c:69
    d5ec:	910083ff 	add	sp, sp, #0x20
    d5f0:	d65f03c0 	ret

000000000000d5f4 <__mpa_abs_greater_than>:
__mpa_abs_greater_than():
/home/rex/devel/optee/optee_os/lib/libmpa/mpa_cmp.c:77
    d5f4:	a9be7bfd 	stp	x29, x30, [sp,#-32]!
    d5f8:	910003fd 	mov	x29, sp
    d5fc:	f9000fa0 	str	x0, [x29,#24]
    d600:	f9000ba1 	str	x1, [x29,#16]
/home/rex/devel/optee/optee_os/lib/libmpa/mpa_cmp.c:78
    d604:	f9400ba1 	ldr	x1, [x29,#16]
    d608:	f9400fa0 	ldr	x0, [x29,#24]
    d60c:	97ffff9a 	bl	d474 <__mpa_abs_cmp>
    d610:	7100001f 	cmp	w0, #0x0
    d614:	1a9fd7e0 	cset	w0, gt
    d618:	12001c00 	and	w0, w0, #0xff
/home/rex/devel/optee/optee_os/lib/libmpa/mpa_cmp.c:79
    d61c:	a8c27bfd 	ldp	x29, x30, [sp],#32
    d620:	d65f03c0 	ret

000000000000d624 <__mpa_abs_less_than>:
__mpa_abs_less_than():
/home/rex/devel/optee/optee_os/lib/libmpa/mpa_cmp.c:87
    d624:	a9be7bfd 	stp	x29, x30, [sp,#-32]!
    d628:	910003fd 	mov	x29, sp
    d62c:	f9000fa0 	str	x0, [x29,#24]
    d630:	f9000ba1 	str	x1, [x29,#16]
/home/rex/devel/optee/optee_os/lib/libmpa/mpa_cmp.c:88
    d634:	f9400ba1 	ldr	x1, [x29,#16]
    d638:	f9400fa0 	ldr	x0, [x29,#24]
    d63c:	97ffff8e 	bl	d474 <__mpa_abs_cmp>
    d640:	531f7c00 	lsr	w0, w0, #31
    d644:	12001c00 	and	w0, w0, #0xff
/home/rex/devel/optee/optee_os/lib/libmpa/mpa_cmp.c:89
    d648:	a8c27bfd 	ldp	x29, x30, [sp],#32
    d64c:	d65f03c0 	ret

000000000000d650 <mpa_cmp>:
mpa_cmp():
/home/rex/devel/optee/optee_os/lib/libmpa/mpa_cmp.c:105
    d650:	a9bd7bfd 	stp	x29, x30, [sp,#-48]!
    d654:	910003fd 	mov	x29, sp
    d658:	f9000fa0 	str	x0, [x29,#24]
    d65c:	f9000ba1 	str	x1, [x29,#16]
/home/rex/devel/optee/optee_os/lib/libmpa/mpa_cmp.c:110
    d660:	f9400fa0 	ldr	x0, [x29,#24]
    d664:	b9400400 	ldr	w0, [x0,#4]
    d668:	7100001f 	cmp	w0, #0x0
    d66c:	5400006b 	b.lt	d678 <mpa_cmp+0x28>
/home/rex/devel/optee/optee_os/lib/libmpa/mpa_cmp.c:110 (discriminator 1)
    d670:	52800020 	mov	w0, #0x1                   	// #1
    d674:	14000002 	b	d67c <mpa_cmp+0x2c>
/home/rex/devel/optee/optee_os/lib/libmpa/mpa_cmp.c:110 (discriminator 2)
    d678:	12800000 	mov	w0, #0xffffffff            	// #-1
/home/rex/devel/optee/optee_os/lib/libmpa/mpa_cmp.c:110 (discriminator 4)
    d67c:	b9002fa0 	str	w0, [x29,#44]
/home/rex/devel/optee/optee_os/lib/libmpa/mpa_cmp.c:111 (discriminator 4)
    d680:	f9400ba0 	ldr	x0, [x29,#16]
    d684:	b9400400 	ldr	w0, [x0,#4]
    d688:	7100001f 	cmp	w0, #0x0
    d68c:	5400006b 	b.lt	d698 <mpa_cmp+0x48>
/home/rex/devel/optee/optee_os/lib/libmpa/mpa_cmp.c:111 (discriminator 1)
    d690:	52800020 	mov	w0, #0x1                   	// #1
    d694:	14000002 	b	d69c <mpa_cmp+0x4c>
/home/rex/devel/optee/optee_os/lib/libmpa/mpa_cmp.c:111 (discriminator 2)
    d698:	12800000 	mov	w0, #0xffffffff            	// #-1
/home/rex/devel/optee/optee_os/lib/libmpa/mpa_cmp.c:111 (discriminator 4)
    d69c:	b9402fa1 	ldr	w1, [x29,#44]
    d6a0:	6b01001f 	cmp	w0, w1
    d6a4:	54000060 	b.eq	d6b0 <mpa_cmp+0x60>
/home/rex/devel/optee/optee_os/lib/libmpa/mpa_cmp.c:112
    d6a8:	b9402fa0 	ldr	w0, [x29,#44]
    d6ac:	1400001e 	b	d724 <mpa_cmp+0xd4>
/home/rex/devel/optee/optee_os/lib/libmpa/mpa_cmp.c:115
    d6b0:	f9400fa0 	ldr	x0, [x29,#24]
    d6b4:	b9400400 	ldr	w0, [x0,#4]
    d6b8:	7100001f 	cmp	w0, #0x0
    d6bc:	540001e1 	b.ne	d6f8 <mpa_cmp+0xa8>
/home/rex/devel/optee/optee_os/lib/libmpa/mpa_cmp.c:116
    d6c0:	f9400ba0 	ldr	x0, [x29,#16]
    d6c4:	b9400400 	ldr	w0, [x0,#4]
    d6c8:	7100001f 	cmp	w0, #0x0
    d6cc:	54000120 	b.eq	d6f0 <mpa_cmp+0xa0>
/home/rex/devel/optee/optee_os/lib/libmpa/mpa_cmp.c:116 (discriminator 1)
    d6d0:	f9400ba0 	ldr	x0, [x29,#16]
    d6d4:	b9400400 	ldr	w0, [x0,#4]
    d6d8:	7100001f 	cmp	w0, #0x0
    d6dc:	5400006b 	b.lt	d6e8 <mpa_cmp+0x98>
/home/rex/devel/optee/optee_os/lib/libmpa/mpa_cmp.c:116 (discriminator 3)
    d6e0:	12800000 	mov	w0, #0xffffffff            	// #-1
    d6e4:	14000010 	b	d724 <mpa_cmp+0xd4>
/home/rex/devel/optee/optee_os/lib/libmpa/mpa_cmp.c:116 (discriminator 4)
    d6e8:	52800020 	mov	w0, #0x1                   	// #1
    d6ec:	1400000e 	b	d724 <mpa_cmp+0xd4>
/home/rex/devel/optee/optee_os/lib/libmpa/mpa_cmp.c:116 (discriminator 2)
    d6f0:	52800000 	mov	w0, #0x0                   	// #0
    d6f4:	1400000c 	b	d724 <mpa_cmp+0xd4>
/home/rex/devel/optee/optee_os/lib/libmpa/mpa_cmp.c:122
    d6f8:	f9400ba1 	ldr	x1, [x29,#16]
    d6fc:	f9400fa0 	ldr	x0, [x29,#24]
    d700:	97ffff5d 	bl	d474 <__mpa_abs_cmp>
    d704:	b9002ba0 	str	w0, [x29,#40]
/home/rex/devel/optee/optee_os/lib/libmpa/mpa_cmp.c:123
    d708:	b9402fa0 	ldr	w0, [x29,#44]
    d70c:	7100041f 	cmp	w0, #0x1
    d710:	54000080 	b.eq	d720 <mpa_cmp+0xd0>
/home/rex/devel/optee/optee_os/lib/libmpa/mpa_cmp.c:124
    d714:	b9402ba0 	ldr	w0, [x29,#40]
    d718:	4b0003e0 	neg	w0, w0
    d71c:	14000002 	b	d724 <mpa_cmp+0xd4>
/home/rex/devel/optee/optee_os/lib/libmpa/mpa_cmp.c:125
    d720:	b9402ba0 	ldr	w0, [x29,#40]
/home/rex/devel/optee/optee_os/lib/libmpa/mpa_cmp.c:126
    d724:	a8c37bfd 	ldp	x29, x30, [sp],#48
    d728:	d65f03c0 	ret

000000000000d72c <mpa_cmp_short>:
mpa_cmp_short():
/home/rex/devel/optee/optee_os/lib/libmpa/mpa_cmp.c:137
    d72c:	d10083ff 	sub	sp, sp, #0x20
    d730:	f90007e0 	str	x0, [sp,#8]
    d734:	b90007e1 	str	w1, [sp,#4]
/home/rex/devel/optee/optee_os/lib/libmpa/mpa_cmp.c:144
    d738:	f94007e0 	ldr	x0, [sp,#8]
    d73c:	b9400400 	ldr	w0, [x0,#4]
    d740:	7100001f 	cmp	w0, #0x0
    d744:	5400006b 	b.lt	d750 <mpa_cmp_short+0x24>
/home/rex/devel/optee/optee_os/lib/libmpa/mpa_cmp.c:144 (discriminator 1)
    d748:	52800020 	mov	w0, #0x1                   	// #1
    d74c:	14000002 	b	d754 <mpa_cmp_short+0x28>
/home/rex/devel/optee/optee_os/lib/libmpa/mpa_cmp.c:144 (discriminator 2)
    d750:	12800000 	mov	w0, #0xffffffff            	// #-1
/home/rex/devel/optee/optee_os/lib/libmpa/mpa_cmp.c:144 (discriminator 4)
    d754:	b9001fe0 	str	w0, [sp,#28]
/home/rex/devel/optee/optee_os/lib/libmpa/mpa_cmp.c:145 (discriminator 4)
    d758:	b94007e0 	ldr	w0, [sp,#4]
    d75c:	7100001f 	cmp	w0, #0x0
    d760:	5400006a 	b.ge	d76c <mpa_cmp_short+0x40>
/home/rex/devel/optee/optee_os/lib/libmpa/mpa_cmp.c:145 (discriminator 1)
    d764:	12800000 	mov	w0, #0xffffffff            	// #-1
    d768:	14000002 	b	d770 <mpa_cmp_short+0x44>
/home/rex/devel/optee/optee_os/lib/libmpa/mpa_cmp.c:145 (discriminator 2)
    d76c:	52800020 	mov	w0, #0x1                   	// #1
/home/rex/devel/optee/optee_os/lib/libmpa/mpa_cmp.c:145 (discriminator 4)
    d770:	b9001be0 	str	w0, [sp,#24]
/home/rex/devel/optee/optee_os/lib/libmpa/mpa_cmp.c:148 (discriminator 4)
    d774:	f94007e0 	ldr	x0, [sp,#8]
    d778:	b9400400 	ldr	w0, [x0,#4]
    d77c:	7100001f 	cmp	w0, #0x0
    d780:	54000121 	b.ne	d7a4 <mpa_cmp_short+0x78>
/home/rex/devel/optee/optee_os/lib/libmpa/mpa_cmp.c:149
    d784:	b94007e0 	ldr	w0, [sp,#4]
    d788:	7100001f 	cmp	w0, #0x0
    d78c:	54000080 	b.eq	d79c <mpa_cmp_short+0x70>
/home/rex/devel/optee/optee_os/lib/libmpa/mpa_cmp.c:149 (discriminator 1)
    d790:	b9401be0 	ldr	w0, [sp,#24]
    d794:	4b0003e0 	neg	w0, w0
    d798:	14000025 	b	d82c <mpa_cmp_short+0x100>
/home/rex/devel/optee/optee_os/lib/libmpa/mpa_cmp.c:149 (discriminator 2)
    d79c:	52800000 	mov	w0, #0x0                   	// #0
    d7a0:	14000023 	b	d82c <mpa_cmp_short+0x100>
/home/rex/devel/optee/optee_os/lib/libmpa/mpa_cmp.c:152
    d7a4:	f94007e0 	ldr	x0, [sp,#8]
    d7a8:	b9400400 	ldr	w0, [x0,#4]
    d7ac:	7100001f 	cmp	w0, #0x0
    d7b0:	5a80a400 	cneg	w0, w0, lt
    d7b4:	7100041f 	cmp	w0, #0x1
    d7b8:	5400006d 	b.le	d7c4 <mpa_cmp_short+0x98>
/home/rex/devel/optee/optee_os/lib/libmpa/mpa_cmp.c:153
    d7bc:	b9401fe0 	ldr	w0, [sp,#28]
    d7c0:	1400001b 	b	d82c <mpa_cmp_short+0x100>
/home/rex/devel/optee/optee_os/lib/libmpa/mpa_cmp.c:156
    d7c4:	b9401fe1 	ldr	w1, [sp,#28]
    d7c8:	b9401be0 	ldr	w0, [sp,#24]
    d7cc:	6b00003f 	cmp	w1, w0
    d7d0:	54000060 	b.eq	d7dc <mpa_cmp_short+0xb0>
/home/rex/devel/optee/optee_os/lib/libmpa/mpa_cmp.c:157
    d7d4:	b9401fe0 	ldr	w0, [sp,#28]
    d7d8:	14000015 	b	d82c <mpa_cmp_short+0x100>
/home/rex/devel/optee/optee_os/lib/libmpa/mpa_cmp.c:161
    d7dc:	b94007e0 	ldr	w0, [sp,#4]
    d7e0:	7100001f 	cmp	w0, #0x0
    d7e4:	5a80a400 	cneg	w0, w0, lt
    d7e8:	b90017e0 	str	w0, [sp,#20]
/home/rex/devel/optee/optee_os/lib/libmpa/mpa_cmp.c:163
    d7ec:	f94007e0 	ldr	x0, [sp,#8]
    d7f0:	b9400801 	ldr	w1, [x0,#8]
    d7f4:	b94017e0 	ldr	w0, [sp,#20]
    d7f8:	6b00003f 	cmp	w1, w0
    d7fc:	54000061 	b.ne	d808 <mpa_cmp_short+0xdc>
/home/rex/devel/optee/optee_os/lib/libmpa/mpa_cmp.c:164
    d800:	52800000 	mov	w0, #0x0                   	// #0
    d804:	1400000a 	b	d82c <mpa_cmp_short+0x100>
/home/rex/devel/optee/optee_os/lib/libmpa/mpa_cmp.c:166
    d808:	f94007e0 	ldr	x0, [sp,#8]
    d80c:	b9400801 	ldr	w1, [x0,#8]
    d810:	b94017e0 	ldr	w0, [sp,#20]
    d814:	6b00003f 	cmp	w1, w0
    d818:	54000088 	b.hi	d828 <mpa_cmp_short+0xfc>
/home/rex/devel/optee/optee_os/lib/libmpa/mpa_cmp.c:166 (discriminator 1)
    d81c:	b9401fe0 	ldr	w0, [sp,#28]
    d820:	4b0003e0 	neg	w0, w0
    d824:	14000002 	b	d82c <mpa_cmp_short+0x100>
/home/rex/devel/optee/optee_os/lib/libmpa/mpa_cmp.c:166 (discriminator 2)
    d828:	b9401fe0 	ldr	w0, [sp,#28]
/home/rex/devel/optee/optee_os/lib/libmpa/mpa_cmp.c:171
    d82c:	910083ff 	add	sp, sp, #0x20
    d830:	d65f03c0 	ret

000000000000d834 <mpa_exp_mod>:
mpa_exp_mod():
/home/rex/devel/optee/optee_os/lib/libmpa/mpa_expmod.c:51
    d834:	a9b57bfd 	stp	x29, x30, [sp,#-176]!
    d838:	910003fd 	mov	x29, sp
    d83c:	f90027a0 	str	x0, [x29,#72]
    d840:	f90023a1 	str	x1, [x29,#64]
    d844:	f9001fa2 	str	x2, [x29,#56]
    d848:	f9001ba3 	str	x3, [x29,#48]
    d84c:	f90017a4 	str	x4, [x29,#40]
    d850:	f90013a5 	str	x5, [x29,#32]
    d854:	b9001fa6 	str	w6, [x29,#28]
    d858:	f9000ba7 	str	x7, [x29,#16]
/home/rex/devel/optee/optee_os/lib/libmpa/mpa_expmod.c:62
    d85c:	910243a0 	add	x0, x29, #0x90
    d860:	f9400ba1 	ldr	x1, [x29,#16]
    d864:	97fff658 	bl	b1c4 <mpa_alloc_static_temp_var>
/home/rex/devel/optee/optee_os/lib/libmpa/mpa_expmod.c:63
    d868:	910223a0 	add	x0, x29, #0x88
    d86c:	f9400ba1 	ldr	x1, [x29,#16]
    d870:	97fff655 	bl	b1c4 <mpa_alloc_static_temp_var>
/home/rex/devel/optee/optee_os/lib/libmpa/mpa_expmod.c:64
    d874:	910203a0 	add	x0, x29, #0x80
    d878:	f9400ba1 	ldr	x1, [x29,#16]
    d87c:	97fff652 	bl	b1c4 <mpa_alloc_static_temp_var>
/home/rex/devel/optee/optee_os/lib/libmpa/mpa_expmod.c:65
    d880:	9101e3a0 	add	x0, x29, #0x78
    d884:	f9400ba1 	ldr	x1, [x29,#16]
    d888:	97fff64f 	bl	b1c4 <mpa_alloc_static_temp_var>
/home/rex/devel/optee/optee_os/lib/libmpa/mpa_expmod.c:71
    d88c:	f94043a0 	ldr	x0, [x29,#128]
    d890:	b9401fa4 	ldr	w4, [x29,#28]
    d894:	f9401ba3 	ldr	x3, [x29,#48]
    d898:	f94013a2 	ldr	x2, [x29,#32]
    d89c:	f94023a1 	ldr	x1, [x29,#64]
    d8a0:	97ffec04 	bl	88b0 <__mpa_montgomery_mul>
/home/rex/devel/optee/optee_os/lib/libmpa/mpa_expmod.c:73
    d8a4:	f9404ba0 	ldr	x0, [x29,#144]
    d8a8:	f94017a1 	ldr	x1, [x29,#40]
    d8ac:	97ffeabb 	bl	8398 <mpa_copy>
/home/rex/devel/optee/optee_os/lib/libmpa/mpa_expmod.c:75
    d8b0:	910243a0 	add	x0, x29, #0x90
    d8b4:	f9003ba0 	str	x0, [x29,#112]
/home/rex/devel/optee/optee_os/lib/libmpa/mpa_expmod.c:76
    d8b8:	910223a0 	add	x0, x29, #0x88
    d8bc:	f90037a0 	str	x0, [x29,#104]
/home/rex/devel/optee/optee_os/lib/libmpa/mpa_expmod.c:77
    d8c0:	910203a0 	add	x0, x29, #0x80
    d8c4:	f90033a0 	str	x0, [x29,#96]
/home/rex/devel/optee/optee_os/lib/libmpa/mpa_expmod.c:78
    d8c8:	9101e3a0 	add	x0, x29, #0x78
    d8cc:	f9002fa0 	str	x0, [x29,#88]
/home/rex/devel/optee/optee_os/lib/libmpa/mpa_expmod.c:80
    d8d0:	f9404ba0 	ldr	x0, [x29,#144]
    d8d4:	97ffea85 	bl	82e8 <__mpa_set_unused_digits_to_zero>
/home/rex/devel/optee/optee_os/lib/libmpa/mpa_expmod.c:81
    d8d8:	f94043a0 	ldr	x0, [x29,#128]
    d8dc:	97ffea83 	bl	82e8 <__mpa_set_unused_digits_to_zero>
/home/rex/devel/optee/optee_os/lib/libmpa/mpa_expmod.c:83
    d8e0:	f9401fa0 	ldr	x0, [x29,#56]
    d8e4:	97ffeadd 	bl	8458 <mpa_highest_bit_index>
    d8e8:	b900afa0 	str	w0, [x29,#172]
    d8ec:	14000043 	b	d9f8 <mpa_exp_mod+0x1c4>
/home/rex/devel/optee/optee_os/lib/libmpa/mpa_expmod.c:84
    d8f0:	b940afa0 	ldr	w0, [x29,#172]
    d8f4:	2a0003e1 	mov	w1, w0
    d8f8:	f9401fa0 	ldr	x0, [x29,#56]
    d8fc:	97ffeb05 	bl	8510 <mpa_get_bit>
    d900:	7100001f 	cmp	w0, #0x0
    d904:	54000301 	b.ne	d964 <mpa_exp_mod+0x130>
/home/rex/devel/optee/optee_os/lib/libmpa/mpa_expmod.c:86
    d908:	f9402fa0 	ldr	x0, [x29,#88]
    d90c:	f9400005 	ldr	x5, [x0]
    d910:	f9403ba0 	ldr	x0, [x29,#112]
    d914:	f9400001 	ldr	x1, [x0]
    d918:	f94033a0 	ldr	x0, [x29,#96]
    d91c:	f9400000 	ldr	x0, [x0]
    d920:	b9401fa4 	ldr	w4, [x29,#28]
    d924:	f9401ba3 	ldr	x3, [x29,#48]
    d928:	aa0003e2 	mov	x2, x0
    d92c:	aa0503e0 	mov	x0, x5
    d930:	97ffebe0 	bl	88b0 <__mpa_montgomery_mul>
/home/rex/devel/optee/optee_os/lib/libmpa/mpa_expmod.c:90
    d934:	f94037a0 	ldr	x0, [x29,#104]
    d938:	f9400005 	ldr	x5, [x0]
    d93c:	f9403ba0 	ldr	x0, [x29,#112]
    d940:	f9400001 	ldr	x1, [x0]
    d944:	f9403ba0 	ldr	x0, [x29,#112]
    d948:	f9400000 	ldr	x0, [x0]
    d94c:	b9401fa4 	ldr	w4, [x29,#28]
    d950:	f9401ba3 	ldr	x3, [x29,#48]
    d954:	aa0003e2 	mov	x2, x0
    d958:	aa0503e0 	mov	x0, x5
    d95c:	97ffebd5 	bl	88b0 <__mpa_montgomery_mul>
    d960:	14000017 	b	d9bc <mpa_exp_mod+0x188>
/home/rex/devel/optee/optee_os/lib/libmpa/mpa_expmod.c:94
    d964:	f94037a0 	ldr	x0, [x29,#104]
    d968:	f9400005 	ldr	x5, [x0]
    d96c:	f9403ba0 	ldr	x0, [x29,#112]
    d970:	f9400001 	ldr	x1, [x0]
    d974:	f94033a0 	ldr	x0, [x29,#96]
    d978:	f9400000 	ldr	x0, [x0]
    d97c:	b9401fa4 	ldr	w4, [x29,#28]
    d980:	f9401ba3 	ldr	x3, [x29,#48]
    d984:	aa0003e2 	mov	x2, x0
    d988:	aa0503e0 	mov	x0, x5
    d98c:	97ffebc9 	bl	88b0 <__mpa_montgomery_mul>
/home/rex/devel/optee/optee_os/lib/libmpa/mpa_expmod.c:98
    d990:	f9402fa0 	ldr	x0, [x29,#88]
    d994:	f9400005 	ldr	x5, [x0]
    d998:	f94033a0 	ldr	x0, [x29,#96]
    d99c:	f9400001 	ldr	x1, [x0]
    d9a0:	f94033a0 	ldr	x0, [x29,#96]
    d9a4:	f9400000 	ldr	x0, [x0]
    d9a8:	b9401fa4 	ldr	w4, [x29,#28]
    d9ac:	f9401ba3 	ldr	x3, [x29,#48]
    d9b0:	aa0003e2 	mov	x2, x0
    d9b4:	aa0503e0 	mov	x0, x5
    d9b8:	97ffebbe 	bl	88b0 <__mpa_montgomery_mul>
/home/rex/devel/optee/optee_os/lib/libmpa/mpa_expmod.c:106 (discriminator 2)
    d9bc:	f94037a0 	ldr	x0, [x29,#104]
    d9c0:	f90053a0 	str	x0, [x29,#160]
    d9c4:	f9403ba0 	ldr	x0, [x29,#112]
    d9c8:	f90037a0 	str	x0, [x29,#104]
    d9cc:	f94053a0 	ldr	x0, [x29,#160]
    d9d0:	f9003ba0 	str	x0, [x29,#112]
/home/rex/devel/optee/optee_os/lib/libmpa/mpa_expmod.c:107 (discriminator 2)
    d9d4:	f9402fa0 	ldr	x0, [x29,#88]
    d9d8:	f9004fa0 	str	x0, [x29,#152]
    d9dc:	f94033a0 	ldr	x0, [x29,#96]
    d9e0:	f9002fa0 	str	x0, [x29,#88]
    d9e4:	f9404fa0 	ldr	x0, [x29,#152]
    d9e8:	f90033a0 	str	x0, [x29,#96]
/home/rex/devel/optee/optee_os/lib/libmpa/mpa_expmod.c:83 (discriminator 2)
    d9ec:	b940afa0 	ldr	w0, [x29,#172]
    d9f0:	51000400 	sub	w0, w0, #0x1
    d9f4:	b900afa0 	str	w0, [x29,#172]
/home/rex/devel/optee/optee_os/lib/libmpa/mpa_expmod.c:83 (discriminator 1)
    d9f8:	b940afa0 	ldr	w0, [x29,#172]
    d9fc:	7100001f 	cmp	w0, #0x0
    da00:	54fff78a 	b.ge	d8f0 <mpa_exp_mod+0xbc>
/home/rex/devel/optee/optee_os/lib/libmpa/mpa_expmod.c:111
    da04:	f94037a0 	ldr	x0, [x29,#104]
    da08:	f9400005 	ldr	x5, [x0]
    da0c:	f9403ba0 	ldr	x0, [x29,#112]
    da10:	f9400001 	ldr	x1, [x0]
    da14:	f0000000 	adrp	x0, 10000 <PRIME_TABLE+0x538>
    da18:	f9458400 	ldr	x0, [x0,#2824]
    da1c:	b9401fa4 	ldr	w4, [x29,#28]
    da20:	f9401ba3 	ldr	x3, [x29,#48]
    da24:	aa0103e2 	mov	x2, x1
    da28:	aa0003e1 	mov	x1, x0
    da2c:	aa0503e0 	mov	x0, x5
    da30:	97ffeba0 	bl	88b0 <__mpa_montgomery_mul>
/home/rex/devel/optee/optee_os/lib/libmpa/mpa_expmod.c:114
    da34:	f94037a0 	ldr	x0, [x29,#104]
    da38:	f9400000 	ldr	x0, [x0]
    da3c:	aa0003e1 	mov	x1, x0
    da40:	f94027a0 	ldr	x0, [x29,#72]
    da44:	97ffea55 	bl	8398 <mpa_copy>
/home/rex/devel/optee/optee_os/lib/libmpa/mpa_expmod.c:116
    da48:	910243a0 	add	x0, x29, #0x90
    da4c:	f9400ba1 	ldr	x1, [x29,#16]
    da50:	97fff5e8 	bl	b1f0 <mpa_free_static_temp_var>
/home/rex/devel/optee/optee_os/lib/libmpa/mpa_expmod.c:117
    da54:	910223a0 	add	x0, x29, #0x88
    da58:	f9400ba1 	ldr	x1, [x29,#16]
    da5c:	97fff5e5 	bl	b1f0 <mpa_free_static_temp_var>
/home/rex/devel/optee/optee_os/lib/libmpa/mpa_expmod.c:118
    da60:	910203a0 	add	x0, x29, #0x80
    da64:	f9400ba1 	ldr	x1, [x29,#16]
    da68:	97fff5e2 	bl	b1f0 <mpa_free_static_temp_var>
/home/rex/devel/optee/optee_os/lib/libmpa/mpa_expmod.c:119
    da6c:	9101e3a0 	add	x0, x29, #0x78
    da70:	f9400ba1 	ldr	x1, [x29,#16]
    da74:	97fff5df 	bl	b1f0 <mpa_free_static_temp_var>
/home/rex/devel/optee/optee_os/lib/libmpa/mpa_expmod.c:120
    da78:	d503201f 	nop
    da7c:	a8cb7bfd 	ldp	x29, x30, [sp],#176
    da80:	d65f03c0 	ret

000000000000da84 <mpa_init_static>:
mpa_init_static():
/home/rex/devel/optee/optee_os/lib/libmpa/mpa_init.c:34
    da84:	d10043ff 	sub	sp, sp, #0x10
    da88:	f90007e0 	str	x0, [sp,#8]
    da8c:	b90007e1 	str	w1, [sp,#4]
/home/rex/devel/optee/optee_os/lib/libmpa/mpa_init.c:35
    da90:	b94007e1 	ldr	w1, [sp,#4]
    da94:	321f73e0 	mov	w0, #0x3ffffffe            	// #1073741822
    da98:	0b000020 	add	w0, w1, w0
    da9c:	531e7400 	lsl	w0, w0, #2
    daa0:	2a0003e0 	mov	w0, w0
    daa4:	91000c00 	add	x0, x0, #0x3
    daa8:	d342fc00 	lsr	x0, x0, #2
    daac:	2a0003e1 	mov	w1, w0
    dab0:	f94007e0 	ldr	x0, [sp,#8]
    dab4:	b9000001 	str	w1, [x0]
/home/rex/devel/optee/optee_os/lib/libmpa/mpa_init.c:36
    dab8:	f94007e0 	ldr	x0, [sp,#8]
    dabc:	b900041f 	str	wzr, [x0,#4]
/home/rex/devel/optee/optee_os/lib/libmpa/mpa_init.c:37
    dac0:	f94007e0 	ldr	x0, [sp,#8]
    dac4:	b9400000 	ldr	w0, [x0]
    dac8:	7100001f 	cmp	w0, #0x0
    dacc:	54000060 	b.eq	dad8 <mpa_init_static+0x54>
/home/rex/devel/optee/optee_os/lib/libmpa/mpa_init.c:38
    dad0:	f94007e0 	ldr	x0, [sp,#8]
    dad4:	b900081f 	str	wzr, [x0,#8]
/home/rex/devel/optee/optee_os/lib/libmpa/mpa_init.c:39
    dad8:	d503201f 	nop
    dadc:	910043ff 	add	sp, sp, #0x10
    dae0:	d65f03c0 	ret

000000000000dae4 <mpa_init_static_fmm_context>:
mpa_init_static_fmm_context():
/home/rex/devel/optee/optee_os/lib/libmpa/mpa_init.c:47
    dae4:	a9bd7bfd 	stp	x29, x30, [sp,#-48]!
    dae8:	910003fd 	mov	x29, sp
    daec:	f9000fa0 	str	x0, [x29,#24]
    daf0:	b90017a1 	str	w1, [x29,#20]
/home/rex/devel/optee/optee_os/lib/libmpa/mpa_init.c:51
    daf4:	b94017a1 	ldr	w1, [x29,#20]
    daf8:	529fff40 	mov	w0, #0xfffa                	// #65530
    dafc:	72a7ffe0 	movk	w0, #0x3fff, lsl #16
    db00:	0b000020 	add	w0, w1, w0
    db04:	531e7400 	lsl	w0, w0, #2
    db08:	2a0003e0 	mov	w0, w0
    db0c:	91000c00 	add	x0, x0, #0x3
    db10:	d342fc00 	lsr	x0, x0, #2
/home/rex/devel/optee/optee_os/lib/libmpa/mpa_init.c:50
    db14:	b9002fa0 	str	w0, [x29,#44]
/home/rex/devel/optee/optee_os/lib/libmpa/mpa_init.c:54
    db18:	f9400fa0 	ldr	x0, [x29,#24]
    db1c:	91005003 	add	x3, x0, #0x14
    db20:	b9402fa0 	ldr	w0, [x29,#44]
    db24:	531e7400 	lsl	w0, w0, #2
    db28:	2a0003e0 	mov	w0, w0
    db2c:	aa0003e2 	mov	x2, x0
    db30:	52800001 	mov	w1, #0x0                   	// #0
    db34:	aa0303e0 	mov	x0, x3
    db38:	97ffdf12 	bl	5780 <memset>
/home/rex/devel/optee/optee_os/lib/libmpa/mpa_init.c:55
    db3c:	b9402fa0 	ldr	w0, [x29,#44]
    db40:	53017c00 	lsr	w0, w0, #1
    db44:	b9002fa0 	str	w0, [x29,#44]
/home/rex/devel/optee/optee_os/lib/libmpa/mpa_init.c:58
    db48:	f9400fa0 	ldr	x0, [x29,#24]
    db4c:	b900101f 	str	wzr, [x0,#16]
/home/rex/devel/optee/optee_os/lib/libmpa/mpa_init.c:60
    db50:	f9400fa0 	ldr	x0, [x29,#24]
    db54:	91005001 	add	x1, x0, #0x14
    db58:	f9400fa0 	ldr	x0, [x29,#24]
    db5c:	f9000001 	str	x1, [x0]
/home/rex/devel/optee/optee_os/lib/libmpa/mpa_init.c:61
    db60:	f9400fa0 	ldr	x0, [x29,#24]
    db64:	f9400000 	ldr	x0, [x0]
/home/rex/devel/optee/optee_os/lib/libmpa/mpa_init.c:62
    db68:	b9402fa1 	ldr	w1, [x29,#44]
    db6c:	51000821 	sub	w1, w1, #0x2
/home/rex/devel/optee/optee_os/lib/libmpa/mpa_init.c:61
    db70:	b9000001 	str	w1, [x0]
/home/rex/devel/optee/optee_os/lib/libmpa/mpa_init.c:63
    db74:	f9400fa0 	ldr	x0, [x29,#24]
    db78:	f9400000 	ldr	x0, [x0]
    db7c:	b900041f 	str	wzr, [x0,#4]
/home/rex/devel/optee/optee_os/lib/libmpa/mpa_init.c:65
    db80:	f9400fa0 	ldr	x0, [x29,#24]
    db84:	91005001 	add	x1, x0, #0x14
    db88:	b9402fa0 	ldr	w0, [x29,#44]
    db8c:	d37ef400 	lsl	x0, x0, #2
    db90:	8b000021 	add	x1, x1, x0
    db94:	f9400fa0 	ldr	x0, [x29,#24]
    db98:	f9000401 	str	x1, [x0,#8]
/home/rex/devel/optee/optee_os/lib/libmpa/mpa_init.c:66
    db9c:	f9400fa0 	ldr	x0, [x29,#24]
    dba0:	f9400400 	ldr	x0, [x0,#8]
/home/rex/devel/optee/optee_os/lib/libmpa/mpa_init.c:67
    dba4:	b9402fa1 	ldr	w1, [x29,#44]
    dba8:	51000821 	sub	w1, w1, #0x2
/home/rex/devel/optee/optee_os/lib/libmpa/mpa_init.c:66
    dbac:	b9000001 	str	w1, [x0]
/home/rex/devel/optee/optee_os/lib/libmpa/mpa_init.c:68
    dbb0:	f9400fa0 	ldr	x0, [x29,#24]
    dbb4:	f9400400 	ldr	x0, [x0,#8]
    dbb8:	b900041f 	str	wzr, [x0,#4]
/home/rex/devel/optee/optee_os/lib/libmpa/mpa_init.c:69
    dbbc:	d503201f 	nop
    dbc0:	a8c37bfd 	ldp	x29, x30, [sp],#48
    dbc4:	d65f03c0 	ret

000000000000dbc8 <__mpa_isspace>:
__mpa_isspace():
/home/rex/devel/optee/optee_os/lib/libmpa/mpa_io.c:49
    dbc8:	d10043ff 	sub	sp, sp, #0x10
    dbcc:	39003fe0 	strb	w0, [sp,#15]
/home/rex/devel/optee/optee_os/lib/libmpa/mpa_io.c:54
    dbd0:	39403fe0 	ldrb	w0, [sp,#15]
    dbd4:	71017c1f 	cmp	w0, #0x5f
    dbd8:	540001a0 	b.eq	dc0c <__mpa_isspace+0x44>
/home/rex/devel/optee/optee_os/lib/libmpa/mpa_io.c:50
    dbdc:	39403fe0 	ldrb	w0, [sp,#15]
    dbe0:	7100801f 	cmp	w0, #0x20
    dbe4:	54000140 	b.eq	dc0c <__mpa_isspace+0x44>
/home/rex/devel/optee/optee_os/lib/libmpa/mpa_io.c:52
    dbe8:	39403fe0 	ldrb	w0, [sp,#15]
    dbec:	7100281f 	cmp	w0, #0xa
    dbf0:	540000e0 	b.eq	dc0c <__mpa_isspace+0x44>
/home/rex/devel/optee/optee_os/lib/libmpa/mpa_io.c:53
    dbf4:	39403fe0 	ldrb	w0, [sp,#15]
    dbf8:	7100341f 	cmp	w0, #0xd
    dbfc:	54000080 	b.eq	dc0c <__mpa_isspace+0x44>
/home/rex/devel/optee/optee_os/lib/libmpa/mpa_io.c:54 (discriminator 2)
    dc00:	39403fe0 	ldrb	w0, [sp,#15]
    dc04:	7100241f 	cmp	w0, #0x9
    dc08:	54000061 	b.ne	dc14 <__mpa_isspace+0x4c>
/home/rex/devel/optee/optee_os/lib/libmpa/mpa_io.c:54 (discriminator 1)
    dc0c:	52800020 	mov	w0, #0x1                   	// #1
    dc10:	14000002 	b	dc18 <__mpa_isspace+0x50>
/home/rex/devel/optee/optee_os/lib/libmpa/mpa_io.c:54 (discriminator 3)
    dc14:	52800000 	mov	w0, #0x0                   	// #0
/home/rex/devel/optee/optee_os/lib/libmpa/mpa_io.c:56 (discriminator 6)
    dc18:	910043ff 	add	sp, sp, #0x10
    dc1c:	d65f03c0 	ret

000000000000dc20 <__mpa_is_char_in_base>:
__mpa_is_char_in_base():
/home/rex/devel/optee/optee_os/lib/libmpa/mpa_io.c:65
    dc20:	a9be7bfd 	stp	x29, x30, [sp,#-32]!
    dc24:	910003fd 	mov	x29, sp
    dc28:	b9001fa0 	str	w0, [x29,#28]
    dc2c:	b9001ba1 	str	w1, [x29,#24]
/home/rex/devel/optee/optee_os/lib/libmpa/mpa_io.c:66
    dc30:	b9401ba0 	ldr	w0, [x29,#24]
    dc34:	12001c00 	and	w0, w0, #0xff
    dc38:	97ffffe4 	bl	dbc8 <__mpa_isspace>
    dc3c:	7100001f 	cmp	w0, #0x0
    dc40:	54000060 	b.eq	dc4c <__mpa_is_char_in_base+0x2c>
/home/rex/devel/optee/optee_os/lib/libmpa/mpa_io.c:67
    dc44:	52800020 	mov	w0, #0x1                   	// #1
    dc48:	14000028 	b	dce8 <__mpa_is_char_in_base+0xc8>
/home/rex/devel/optee/optee_os/lib/libmpa/mpa_io.c:69
    dc4c:	b9401fa0 	ldr	w0, [x29,#28]
    dc50:	7100281f 	cmp	w0, #0xa
    dc54:	54000080 	b.eq	dc64 <__mpa_is_char_in_base+0x44>
    dc58:	7100401f 	cmp	w0, #0x10
    dc5c:	54000180 	b.eq	dc8c <__mpa_is_char_in_base+0x6c>
    dc60:	14000021 	b	dce4 <__mpa_is_char_in_base+0xc4>
/home/rex/devel/optee/optee_os/lib/libmpa/mpa_io.c:71
    dc64:	b9401ba0 	ldr	w0, [x29,#24]
    dc68:	7100bc1f 	cmp	w0, #0x2f
    dc6c:	540000cd 	b.le	dc84 <__mpa_is_char_in_base+0x64>
/home/rex/devel/optee/optee_os/lib/libmpa/mpa_io.c:71 (discriminator 1)
    dc70:	b9401ba0 	ldr	w0, [x29,#24]
    dc74:	7100e41f 	cmp	w0, #0x39
    dc78:	5400006c 	b.gt	dc84 <__mpa_is_char_in_base+0x64>
/home/rex/devel/optee/optee_os/lib/libmpa/mpa_io.c:71 (discriminator 3)
    dc7c:	52800020 	mov	w0, #0x1                   	// #1
    dc80:	1400001a 	b	dce8 <__mpa_is_char_in_base+0xc8>
/home/rex/devel/optee/optee_os/lib/libmpa/mpa_io.c:71 (discriminator 4)
    dc84:	52800000 	mov	w0, #0x0                   	// #0
    dc88:	14000018 	b	dce8 <__mpa_is_char_in_base+0xc8>
/home/rex/devel/optee/optee_os/lib/libmpa/mpa_io.c:74
    dc8c:	b9401ba0 	ldr	w0, [x29,#24]
    dc90:	7100bc1f 	cmp	w0, #0x2f
    dc94:	5400008d 	b.le	dca4 <__mpa_is_char_in_base+0x84>
/home/rex/devel/optee/optee_os/lib/libmpa/mpa_io.c:73
    dc98:	b9401ba0 	ldr	w0, [x29,#24]
    dc9c:	7100e41f 	cmp	w0, #0x39
    dca0:	540001ad 	b.le	dcd4 <__mpa_is_char_in_base+0xb4>
/home/rex/devel/optee/optee_os/lib/libmpa/mpa_io.c:73 (discriminator 1)
    dca4:	b9401ba0 	ldr	w0, [x29,#24]
    dca8:	7101001f 	cmp	w0, #0x40
    dcac:	5400008d 	b.le	dcbc <__mpa_is_char_in_base+0x9c>
/home/rex/devel/optee/optee_os/lib/libmpa/mpa_io.c:74
    dcb0:	b9401ba0 	ldr	w0, [x29,#24]
    dcb4:	7101181f 	cmp	w0, #0x46
    dcb8:	540000ed 	b.le	dcd4 <__mpa_is_char_in_base+0xb4>
/home/rex/devel/optee/optee_os/lib/libmpa/mpa_io.c:74 (discriminator 2)
    dcbc:	b9401ba0 	ldr	w0, [x29,#24]
    dcc0:	7101801f 	cmp	w0, #0x60
    dcc4:	540000cd 	b.le	dcdc <__mpa_is_char_in_base+0xbc>
/home/rex/devel/optee/optee_os/lib/libmpa/mpa_io.c:75
    dcc8:	b9401ba0 	ldr	w0, [x29,#24]
    dccc:	7101981f 	cmp	w0, #0x66
    dcd0:	5400006c 	b.gt	dcdc <__mpa_is_char_in_base+0xbc>
/home/rex/devel/optee/optee_os/lib/libmpa/mpa_io.c:74 (discriminator 1)
    dcd4:	52800020 	mov	w0, #0x1                   	// #1
    dcd8:	14000004 	b	dce8 <__mpa_is_char_in_base+0xc8>
/home/rex/devel/optee/optee_os/lib/libmpa/mpa_io.c:74 (discriminator 3)
    dcdc:	52800000 	mov	w0, #0x0                   	// #0
    dce0:	14000002 	b	dce8 <__mpa_is_char_in_base+0xc8>
/home/rex/devel/optee/optee_os/lib/libmpa/mpa_io.c:77
    dce4:	52800000 	mov	w0, #0x0                   	// #0
/home/rex/devel/optee/optee_os/lib/libmpa/mpa_io.c:79
    dce8:	a8c27bfd 	ldp	x29, x30, [sp],#32
    dcec:	d65f03c0 	ret

000000000000dcf0 <__mpa_digit_value>:
__mpa_digit_value():
/home/rex/devel/optee/optee_os/lib/libmpa/mpa_io.c:87
    dcf0:	d10043ff 	sub	sp, sp, #0x10
    dcf4:	b9000fe0 	str	w0, [sp,#12]
/home/rex/devel/optee/optee_os/lib/libmpa/mpa_io.c:88
    dcf8:	b9400fe0 	ldr	w0, [sp,#12]
    dcfc:	7100bc1f 	cmp	w0, #0x2f
    dd00:	540000ed 	b.le	dd1c <__mpa_digit_value+0x2c>
/home/rex/devel/optee/optee_os/lib/libmpa/mpa_io.c:88 (discriminator 1)
    dd04:	b9400fe0 	ldr	w0, [sp,#12]
    dd08:	7100e41f 	cmp	w0, #0x39
    dd0c:	5400008c 	b.gt	dd1c <__mpa_digit_value+0x2c>
/home/rex/devel/optee/optee_os/lib/libmpa/mpa_io.c:89
    dd10:	b9400fe0 	ldr	w0, [sp,#12]
    dd14:	5100c000 	sub	w0, w0, #0x30
    dd18:	14000014 	b	dd68 <__mpa_digit_value+0x78>
/home/rex/devel/optee/optee_os/lib/libmpa/mpa_io.c:90
    dd1c:	b9400fe0 	ldr	w0, [sp,#12]
    dd20:	7101001f 	cmp	w0, #0x40
    dd24:	540000ed 	b.le	dd40 <__mpa_digit_value+0x50>
/home/rex/devel/optee/optee_os/lib/libmpa/mpa_io.c:90 (discriminator 1)
    dd28:	b9400fe0 	ldr	w0, [sp,#12]
    dd2c:	7101181f 	cmp	w0, #0x46
    dd30:	5400008c 	b.gt	dd40 <__mpa_digit_value+0x50>
/home/rex/devel/optee/optee_os/lib/libmpa/mpa_io.c:91
    dd34:	b9400fe0 	ldr	w0, [sp,#12]
    dd38:	5100dc00 	sub	w0, w0, #0x37
    dd3c:	1400000b 	b	dd68 <__mpa_digit_value+0x78>
/home/rex/devel/optee/optee_os/lib/libmpa/mpa_io.c:92
    dd40:	b9400fe0 	ldr	w0, [sp,#12]
    dd44:	7101801f 	cmp	w0, #0x60
    dd48:	540000ed 	b.le	dd64 <__mpa_digit_value+0x74>
/home/rex/devel/optee/optee_os/lib/libmpa/mpa_io.c:92 (discriminator 1)
    dd4c:	b9400fe0 	ldr	w0, [sp,#12]
    dd50:	7101981f 	cmp	w0, #0x66
    dd54:	5400008c 	b.gt	dd64 <__mpa_digit_value+0x74>
/home/rex/devel/optee/optee_os/lib/libmpa/mpa_io.c:93
    dd58:	b9400fe0 	ldr	w0, [sp,#12]
    dd5c:	51015c00 	sub	w0, w0, #0x57
    dd60:	14000002 	b	dd68 <__mpa_digit_value+0x78>
/home/rex/devel/optee/optee_os/lib/libmpa/mpa_io.c:96
    dd64:	52800000 	mov	w0, #0x0                   	// #0
/home/rex/devel/optee/optee_os/lib/libmpa/mpa_io.c:97
    dd68:	910043ff 	add	sp, sp, #0x10
    dd6c:	d65f03c0 	ret

000000000000dd70 <__mpa_digitstr_to_binary_wsize_base_16>:
__mpa_digitstr_to_binary_wsize_base_16():
/home/rex/devel/optee/optee_os/lib/libmpa/mpa_io.c:106
    dd70:	d10043ff 	sub	sp, sp, #0x10
    dd74:	b9000fe0 	str	w0, [sp,#12]
/home/rex/devel/optee/optee_os/lib/libmpa/mpa_io.c:107
    dd78:	b9400fe0 	ldr	w0, [sp,#12]
    dd7c:	11001c00 	add	w0, w0, #0x7
    dd80:	13037c00 	asr	w0, w0, #3
/home/rex/devel/optee/optee_os/lib/libmpa/mpa_io.c:108
    dd84:	910043ff 	add	sp, sp, #0x10
    dd88:	d65f03c0 	ret

000000000000dd8c <__mpa_nibble_to_char>:
__mpa_nibble_to_char():
/home/rex/devel/optee/optee_os/lib/libmpa/mpa_io.c:116
    dd8c:	d10043ff 	sub	sp, sp, #0x10
    dd90:	b9000fe0 	str	w0, [sp,#12]
    dd94:	b9000be1 	str	w1, [sp,#8]
/home/rex/devel/optee/optee_os/lib/libmpa/mpa_io.c:117
    dd98:	b9400fe0 	ldr	w0, [sp,#12]
    dd9c:	12000c00 	and	w0, w0, #0xf
    dda0:	b9000fe0 	str	w0, [sp,#12]
/home/rex/devel/optee/optee_os/lib/libmpa/mpa_io.c:118
    dda4:	b9400fe0 	ldr	w0, [sp,#12]
    dda8:	7100241f 	cmp	w0, #0x9
    ddac:	540000c8 	b.hi	ddc4 <__mpa_nibble_to_char+0x38>
/home/rex/devel/optee/optee_os/lib/libmpa/mpa_io.c:119
    ddb0:	b9400fe0 	ldr	w0, [sp,#12]
    ddb4:	12001c00 	and	w0, w0, #0xff
    ddb8:	1100c000 	add	w0, w0, #0x30
    ddbc:	12001c00 	and	w0, w0, #0xff
    ddc0:	1400000d 	b	ddf4 <__mpa_nibble_to_char+0x68>
/home/rex/devel/optee/optee_os/lib/libmpa/mpa_io.c:120
    ddc4:	b9400be0 	ldr	w0, [sp,#8]
    ddc8:	7100001f 	cmp	w0, #0x0
    ddcc:	540000c1 	b.ne	dde4 <__mpa_nibble_to_char+0x58>
/home/rex/devel/optee/optee_os/lib/libmpa/mpa_io.c:120 (discriminator 1)
    ddd0:	b9400fe0 	ldr	w0, [sp,#12]
    ddd4:	12001c00 	and	w0, w0, #0xff
    ddd8:	1100dc00 	add	w0, w0, #0x37
    dddc:	12001c00 	and	w0, w0, #0xff
    dde0:	14000005 	b	ddf4 <__mpa_nibble_to_char+0x68>
/home/rex/devel/optee/optee_os/lib/libmpa/mpa_io.c:120 (discriminator 2)
    dde4:	b9400fe0 	ldr	w0, [sp,#12]
    dde8:	12001c00 	and	w0, w0, #0xff
    ddec:	11015c00 	add	w0, w0, #0x57
    ddf0:	12001c00 	and	w0, w0, #0xff
/home/rex/devel/optee/optee_os/lib/libmpa/mpa_io.c:121
    ddf4:	910043ff 	add	sp, sp, #0x10
    ddf8:	d65f03c0 	ret

000000000000ddfc <__mpa_word_to_hexstr>:
__mpa_word_to_hexstr():
/home/rex/devel/optee/optee_os/lib/libmpa/mpa_io.c:129
    ddfc:	a9bc7bfd 	stp	x29, x30, [sp,#-64]!
    de00:	910003fd 	mov	x29, sp
    de04:	f9000bf3 	str	x19, [sp,#16]
    de08:	f90017a0 	str	x0, [x29,#40]
    de0c:	b90027a1 	str	w1, [x29,#36]
    de10:	b90023a2 	str	w2, [x29,#32]
/home/rex/devel/optee/optee_os/lib/libmpa/mpa_io.c:131
    de14:	52800100 	mov	w0, #0x8                   	// #8
    de18:	b9003fa0 	str	w0, [x29,#60]
    de1c:	14000012 	b	de64 <__mpa_word_to_hexstr+0x68>
/home/rex/devel/optee/optee_os/lib/libmpa/mpa_io.c:132 (discriminator 3)
    de20:	b9803fa0 	ldrsw	x0, [x29,#60]
    de24:	d1000400 	sub	x0, x0, #0x1
    de28:	f94017a1 	ldr	x1, [x29,#40]
    de2c:	8b000033 	add	x19, x1, x0
/home/rex/devel/optee/optee_os/lib/libmpa/mpa_io.c:133 (discriminator 3)
    de30:	b9403fa0 	ldr	w0, [x29,#60]
    de34:	51000400 	sub	w0, w0, #0x1
    de38:	531e7400 	lsl	w0, w0, #2
    de3c:	b94027a1 	ldr	w1, [x29,#36]
    de40:	1ac02420 	lsr	w0, w1, w0
    de44:	12000c00 	and	w0, w0, #0xf
    de48:	b94023a1 	ldr	w1, [x29,#32]
    de4c:	97ffffd0 	bl	dd8c <__mpa_nibble_to_char>
    de50:	12001c00 	and	w0, w0, #0xff
/home/rex/devel/optee/optee_os/lib/libmpa/mpa_io.c:132 (discriminator 3)
    de54:	39000260 	strb	w0, [x19]
/home/rex/devel/optee/optee_os/lib/libmpa/mpa_io.c:131 (discriminator 3)
    de58:	b9403fa0 	ldr	w0, [x29,#60]
    de5c:	51000400 	sub	w0, w0, #0x1
    de60:	b9003fa0 	str	w0, [x29,#60]
/home/rex/devel/optee/optee_os/lib/libmpa/mpa_io.c:131 (discriminator 1)
    de64:	b9403fa0 	ldr	w0, [x29,#60]
    de68:	7100001f 	cmp	w0, #0x0
    de6c:	54fffdac 	b.gt	de20 <__mpa_word_to_hexstr+0x24>
/home/rex/devel/optee/optee_os/lib/libmpa/mpa_io.c:135
    de70:	d503201f 	nop
    de74:	f9400bf3 	ldr	x19, [sp,#16]
    de78:	a8c47bfd 	ldp	x29, x30, [sp],#64
    de7c:	d65f03c0 	ret

000000000000de80 <__mpa_mpanum_to_hexstr>:
__mpa_mpanum_to_hexstr():
/home/rex/devel/optee/optee_os/lib/libmpa/mpa_io.c:143
    de80:	a9bb7bfd 	stp	x29, x30, [sp,#-80]!
    de84:	910003fd 	mov	x29, sp
    de88:	f90017a0 	str	x0, [x29,#40]
    de8c:	b90027a1 	str	w1, [x29,#36]
    de90:	f9000fa2 	str	x2, [x29,#24]
/home/rex/devel/optee/optee_os/lib/libmpa/mpa_io.c:151
    de94:	f9400fa0 	ldr	x0, [x29,#24]
    de98:	b9400400 	ldr	w0, [x0,#4]
    de9c:	7100001f 	cmp	w0, #0x0
    dea0:	5a80a400 	cneg	w0, w0, lt
    dea4:	b9004fa0 	str	w0, [x29,#76]
/home/rex/devel/optee/optee_os/lib/libmpa/mpa_io.c:152
    dea8:	b9404fa0 	ldr	w0, [x29,#76]
    deac:	7100001f 	cmp	w0, #0x0
    deb0:	54000141 	b.ne	ded8 <__mpa_mpanum_to_hexstr+0x58>
/home/rex/devel/optee/optee_os/lib/libmpa/mpa_io.c:153
    deb4:	f94017a0 	ldr	x0, [x29,#40]
    deb8:	91000401 	add	x1, x0, #0x1
    debc:	f90017a1 	str	x1, [x29,#40]
    dec0:	52800601 	mov	w1, #0x30                  	// #48
    dec4:	39000001 	strb	w1, [x0]
/home/rex/devel/optee/optee_os/lib/libmpa/mpa_io.c:154
    dec8:	f94017a0 	ldr	x0, [x29,#40]
    decc:	3900001f 	strb	wzr, [x0]
/home/rex/devel/optee/optee_os/lib/libmpa/mpa_io.c:155
    ded0:	52800020 	mov	w0, #0x1                   	// #1
    ded4:	14000056 	b	e02c <__mpa_mpanum_to_hexstr+0x1ac>
/home/rex/devel/optee/optee_os/lib/libmpa/mpa_io.c:157
    ded8:	b9404fa0 	ldr	w0, [x29,#76]
    dedc:	51000400 	sub	w0, w0, #0x1
    dee0:	b9004fa0 	str	w0, [x29,#76]
/home/rex/devel/optee/optee_os/lib/libmpa/mpa_io.c:159
    dee4:	f94017a0 	ldr	x0, [x29,#40]
    dee8:	f90023a0 	str	x0, [x29,#64]
/home/rex/devel/optee/optee_os/lib/libmpa/mpa_io.c:163
    deec:	f9400fa1 	ldr	x1, [x29,#24]
    def0:	b9804fa0 	ldrsw	x0, [x29,#76]
    def4:	d37ef400 	lsl	x0, x0, #2
    def8:	8b000020 	add	x0, x1, x0
    defc:	b9400801 	ldr	w1, [x0,#8]
    df00:	9100c3a0 	add	x0, x29, #0x30
    df04:	b94027a2 	ldr	w2, [x29,#36]
    df08:	97ffffbd 	bl	ddfc <__mpa_word_to_hexstr>
/home/rex/devel/optee/optee_os/lib/libmpa/mpa_io.c:166
    df0c:	52800100 	mov	w0, #0x8                   	// #8
    df10:	b9004ba0 	str	w0, [x29,#72]
/home/rex/devel/optee/optee_os/lib/libmpa/mpa_io.c:167
    df14:	14000006 	b	df2c <__mpa_mpanum_to_hexstr+0xac>
/home/rex/devel/optee/optee_os/lib/libmpa/mpa_io.c:168
    df18:	b9804ba0 	ldrsw	x0, [x29,#72]
    df1c:	9100c3a1 	add	x1, x29, #0x30
    df20:	38606820 	ldrb	w0, [x1,x0]
    df24:	7100c01f 	cmp	w0, #0x30
    df28:	540000e1 	b.ne	df44 <__mpa_mpanum_to_hexstr+0xc4>
/home/rex/devel/optee/optee_os/lib/libmpa/mpa_io.c:167
    df2c:	b9404ba0 	ldr	w0, [x29,#72]
    df30:	51000401 	sub	w1, w0, #0x1
    df34:	b9004ba1 	str	w1, [x29,#72]
    df38:	7100001f 	cmp	w0, #0x0
    df3c:	54fffeec 	b.gt	df18 <__mpa_mpanum_to_hexstr+0x98>
    df40:	1400000d 	b	df74 <__mpa_mpanum_to_hexstr+0xf4>
/home/rex/devel/optee/optee_os/lib/libmpa/mpa_io.c:169
    df44:	d503201f 	nop
/home/rex/devel/optee/optee_os/lib/libmpa/mpa_io.c:170
    df48:	1400000b 	b	df74 <__mpa_mpanum_to_hexstr+0xf4>
/home/rex/devel/optee/optee_os/lib/libmpa/mpa_io.c:171
    df4c:	f94017a0 	ldr	x0, [x29,#40]
    df50:	91000401 	add	x1, x0, #0x1
    df54:	f90017a1 	str	x1, [x29,#40]
    df58:	b9404ba1 	ldr	w1, [x29,#72]
    df5c:	51000422 	sub	w2, w1, #0x1
    df60:	b9004ba2 	str	w2, [x29,#72]
    df64:	93407c21 	sxtw	x1, w1
    df68:	9100c3a2 	add	x2, x29, #0x30
    df6c:	38616841 	ldrb	w1, [x2,x1]
    df70:	39000001 	strb	w1, [x0]
/home/rex/devel/optee/optee_os/lib/libmpa/mpa_io.c:170
    df74:	b9404ba0 	ldr	w0, [x29,#72]
    df78:	7100001f 	cmp	w0, #0x0
    df7c:	54fffe8a 	b.ge	df4c <__mpa_mpanum_to_hexstr+0xcc>
/home/rex/devel/optee/optee_os/lib/libmpa/mpa_io.c:174
    df80:	b9404fa0 	ldr	w0, [x29,#76]
    df84:	51000400 	sub	w0, w0, #0x1
    df88:	b9004fa0 	str	w0, [x29,#76]
/home/rex/devel/optee/optee_os/lib/libmpa/mpa_io.c:175
    df8c:	1400001c 	b	dffc <__mpa_mpanum_to_hexstr+0x17c>
/home/rex/devel/optee/optee_os/lib/libmpa/mpa_io.c:176
    df90:	f9400fa1 	ldr	x1, [x29,#24]
    df94:	b9804fa0 	ldrsw	x0, [x29,#76]
    df98:	d37ef400 	lsl	x0, x0, #2
    df9c:	8b000020 	add	x0, x1, x0
    dfa0:	b9400801 	ldr	w1, [x0,#8]
    dfa4:	9100c3a0 	add	x0, x29, #0x30
    dfa8:	b94027a2 	ldr	w2, [x29,#36]
    dfac:	97ffff94 	bl	ddfc <__mpa_word_to_hexstr>
/home/rex/devel/optee/optee_os/lib/libmpa/mpa_io.c:177
    dfb0:	528000e0 	mov	w0, #0x7                   	// #7
    dfb4:	b9004ba0 	str	w0, [x29,#72]
/home/rex/devel/optee/optee_os/lib/libmpa/mpa_io.c:178
    dfb8:	1400000b 	b	dfe4 <__mpa_mpanum_to_hexstr+0x164>
/home/rex/devel/optee/optee_os/lib/libmpa/mpa_io.c:179
    dfbc:	f94017a0 	ldr	x0, [x29,#40]
    dfc0:	91000401 	add	x1, x0, #0x1
    dfc4:	f90017a1 	str	x1, [x29,#40]
    dfc8:	b9404ba1 	ldr	w1, [x29,#72]
    dfcc:	51000422 	sub	w2, w1, #0x1
    dfd0:	b9004ba2 	str	w2, [x29,#72]
    dfd4:	93407c21 	sxtw	x1, w1
    dfd8:	9100c3a2 	add	x2, x29, #0x30
    dfdc:	38616841 	ldrb	w1, [x2,x1]
    dfe0:	39000001 	strb	w1, [x0]
/home/rex/devel/optee/optee_os/lib/libmpa/mpa_io.c:178
    dfe4:	b9404ba0 	ldr	w0, [x29,#72]
    dfe8:	7100001f 	cmp	w0, #0x0
    dfec:	54fffe8a 	b.ge	dfbc <__mpa_mpanum_to_hexstr+0x13c>
/home/rex/devel/optee/optee_os/lib/libmpa/mpa_io.c:180
    dff0:	b9404fa0 	ldr	w0, [x29,#76]
    dff4:	51000400 	sub	w0, w0, #0x1
    dff8:	b9004fa0 	str	w0, [x29,#76]
/home/rex/devel/optee/optee_os/lib/libmpa/mpa_io.c:175
    dffc:	b9404fa0 	ldr	w0, [x29,#76]
    e000:	7100001f 	cmp	w0, #0x0
    e004:	54fffc6a 	b.ge	df90 <__mpa_mpanum_to_hexstr+0x110>
/home/rex/devel/optee/optee_os/lib/libmpa/mpa_io.c:182
    e008:	f94017a1 	ldr	x1, [x29,#40]
    e00c:	f94023a0 	ldr	x0, [x29,#64]
    e010:	cb000020 	sub	x0, x1, x0
    e014:	b9003fa0 	str	w0, [x29,#60]
/home/rex/devel/optee/optee_os/lib/libmpa/mpa_io.c:183
    e018:	f94017a0 	ldr	x0, [x29,#40]
    e01c:	91000401 	add	x1, x0, #0x1
    e020:	f90017a1 	str	x1, [x29,#40]
    e024:	3900001f 	strb	wzr, [x0]
/home/rex/devel/optee/optee_os/lib/libmpa/mpa_io.c:184
    e028:	b9403fa0 	ldr	w0, [x29,#60]
/home/rex/devel/optee/optee_os/lib/libmpa/mpa_io.c:185 (discriminator 2)
    e02c:	a8c57bfd 	ldp	x29, x30, [sp],#80
    e030:	d65f03c0 	ret

000000000000e034 <__mpa_count_leading_zero_bits>:
__mpa_count_leading_zero_bits():
/home/rex/devel/optee/optee_os/lib/libmpa/mpa_io.c:193
    e034:	d10083ff 	sub	sp, sp, #0x20
    e038:	b9000fe0 	str	w0, [sp,#12]
/home/rex/devel/optee/optee_os/lib/libmpa/mpa_io.c:197
    e03c:	b9400fe0 	ldr	w0, [sp,#12]
    e040:	7100001f 	cmp	w0, #0x0
    e044:	54000061 	b.ne	e050 <__mpa_count_leading_zero_bits+0x1c>
/home/rex/devel/optee/optee_os/lib/libmpa/mpa_io.c:198
    e048:	52800400 	mov	w0, #0x20                  	// #32
    e04c:	14000011 	b	e090 <__mpa_count_leading_zero_bits+0x5c>
/home/rex/devel/optee/optee_os/lib/libmpa/mpa_io.c:199
    e050:	52b00000 	mov	w0, #0x80000000            	// #-2147483648
    e054:	b9001fe0 	str	w0, [sp,#28]
/home/rex/devel/optee/optee_os/lib/libmpa/mpa_io.c:200
    e058:	b9001bff 	str	wzr, [sp,#24]
/home/rex/devel/optee/optee_os/lib/libmpa/mpa_io.c:201
    e05c:	14000007 	b	e078 <__mpa_count_leading_zero_bits+0x44>
/home/rex/devel/optee/optee_os/lib/libmpa/mpa_io.c:202
    e060:	b9401be0 	ldr	w0, [sp,#24]
    e064:	11000400 	add	w0, w0, #0x1
    e068:	b9001be0 	str	w0, [sp,#24]
/home/rex/devel/optee/optee_os/lib/libmpa/mpa_io.c:203
    e06c:	b9401fe0 	ldr	w0, [sp,#28]
    e070:	53017c00 	lsr	w0, w0, #1
    e074:	b9001fe0 	str	w0, [sp,#28]
/home/rex/devel/optee/optee_os/lib/libmpa/mpa_io.c:201
    e078:	b9400fe1 	ldr	w1, [sp,#12]
    e07c:	b9401fe0 	ldr	w0, [sp,#28]
    e080:	0a000020 	and	w0, w1, w0
    e084:	7100001f 	cmp	w0, #0x0
    e088:	54fffec0 	b.eq	e060 <__mpa_count_leading_zero_bits+0x2c>
/home/rex/devel/optee/optee_os/lib/libmpa/mpa_io.c:205
    e08c:	b9401be0 	ldr	w0, [sp,#24]
/home/rex/devel/optee/optee_os/lib/libmpa/mpa_io.c:206
    e090:	910083ff 	add	sp, sp, #0x20
    e094:	d65f03c0 	ret

000000000000e098 <__mpa_size_in_base_255>:
__mpa_size_in_base_255():
/home/rex/devel/optee/optee_os/lib/libmpa/mpa_io.c:214
    e098:	a9bd7bfd 	stp	x29, x30, [sp,#-48]!
    e09c:	910003fd 	mov	x29, sp
    e0a0:	f9000fa0 	str	x0, [x29,#24]
/home/rex/devel/optee/optee_os/lib/libmpa/mpa_io.c:219
    e0a4:	f9400fa0 	ldr	x0, [x29,#24]
    e0a8:	b9400400 	ldr	w0, [x0,#4]
    e0ac:	7100001f 	cmp	w0, #0x0
    e0b0:	54000061 	b.ne	e0bc <__mpa_size_in_base_255+0x24>
/home/rex/devel/optee/optee_os/lib/libmpa/mpa_io.c:220
    e0b4:	52800020 	mov	w0, #0x1                   	// #1
    e0b8:	14000019 	b	e11c <__mpa_size_in_base_255+0x84>
/home/rex/devel/optee/optee_os/lib/libmpa/mpa_io.c:223
    e0bc:	f9400fa0 	ldr	x0, [x29,#24]
    e0c0:	b9400400 	ldr	w0, [x0,#4]
    e0c4:	7100001f 	cmp	w0, #0x0
    e0c8:	5a80a400 	cneg	w0, w0, lt
    e0cc:	51000400 	sub	w0, w0, #0x1
/home/rex/devel/optee/optee_os/lib/libmpa/mpa_io.c:222
    e0d0:	f9400fa1 	ldr	x1, [x29,#24]
    e0d4:	93407c00 	sxtw	x0, w0
    e0d8:	d37ef400 	lsl	x0, x0, #2
    e0dc:	8b000020 	add	x0, x1, x0
    e0e0:	b9400800 	ldr	w0, [x0,#8]
    e0e4:	97ffffd4 	bl	e034 <__mpa_count_leading_zero_bits>
    e0e8:	b9002fa0 	str	w0, [x29,#44]
/home/rex/devel/optee/optee_os/lib/libmpa/mpa_io.c:224
    e0ec:	f9400fa0 	ldr	x0, [x29,#24]
    e0f0:	b9400400 	ldr	w0, [x0,#4]
    e0f4:	7100001f 	cmp	w0, #0x0
    e0f8:	5a80a400 	cneg	w0, w0, lt
    e0fc:	531b6800 	lsl	w0, w0, #5
    e100:	2a0003e1 	mov	w1, w0
    e104:	b9402fa0 	ldr	w0, [x29,#44]
    e108:	4b000020 	sub	w0, w1, w0
    e10c:	b9002ba0 	str	w0, [x29,#40]
/home/rex/devel/optee/optee_os/lib/libmpa/mpa_io.c:226
    e110:	b9402ba0 	ldr	w0, [x29,#40]
    e114:	11001c00 	add	w0, w0, #0x7
    e118:	53037c00 	lsr	w0, w0, #3
/home/rex/devel/optee/optee_os/lib/libmpa/mpa_io.c:227
    e11c:	a8c37bfd 	ldp	x29, x30, [sp],#48
    e120:	d65f03c0 	ret

000000000000e124 <mpa_get_str_size>:
mpa_get_str_size():
/home/rex/devel/optee/optee_os/lib/libmpa/mpa_io.c:236
    e124:	52820040 	mov	w0, #0x1002                	// #4098
/home/rex/devel/optee/optee_os/lib/libmpa/mpa_io.c:237
    e128:	d65f03c0 	ret

000000000000e12c <mpa_set_str>:
mpa_set_str():
/home/rex/devel/optee/optee_os/lib/libmpa/mpa_io.c:261
    e12c:	a9ba7bfd 	stp	x29, x30, [sp,#-96]!
    e130:	910003fd 	mov	x29, sp
    e134:	f9000bf3 	str	x19, [sp,#16]
    e138:	f90017a0 	str	x0, [x29,#40]
    e13c:	f90013a1 	str	x1, [x29,#32]
/home/rex/devel/optee/optee_os/lib/libmpa/mpa_io.c:280
    e140:	f94013a0 	ldr	x0, [x29,#32]
    e144:	39400000 	ldrb	w0, [x0]
    e148:	7100001f 	cmp	w0, #0x0
    e14c:	54000061 	b.ne	e158 <mpa_set_str+0x2c>
/home/rex/devel/optee/optee_os/lib/libmpa/mpa_io.c:281
    e150:	52800000 	mov	w0, #0x0                   	// #0
    e154:	14000118 	b	e5b4 <mpa_set_str+0x488>
/home/rex/devel/optee/optee_os/lib/libmpa/mpa_io.c:285 (discriminator 1)
    e158:	f94013a0 	ldr	x0, [x29,#32]
    e15c:	91000401 	add	x1, x0, #0x1
    e160:	f90013a1 	str	x1, [x29,#32]
    e164:	39400000 	ldrb	w0, [x0]
    e168:	b9005ba0 	str	w0, [x29,#88]
/home/rex/devel/optee/optee_os/lib/libmpa/mpa_io.c:286 (discriminator 1)
    e16c:	b9405ba0 	ldr	w0, [x29,#88]
    e170:	12001c00 	and	w0, w0, #0xff
    e174:	97fffe95 	bl	dbc8 <__mpa_isspace>
    e178:	7100001f 	cmp	w0, #0x0
    e17c:	54fffee1 	b.ne	e158 <mpa_set_str+0x2c>
/home/rex/devel/optee/optee_os/lib/libmpa/mpa_io.c:289
    e180:	b9005fbf 	str	wzr, [x29,#92]
/home/rex/devel/optee/optee_os/lib/libmpa/mpa_io.c:290
    e184:	b9405ba0 	ldr	w0, [x29,#88]
    e188:	7100b41f 	cmp	w0, #0x2d
    e18c:	54000101 	b.ne	e1ac <mpa_set_str+0x80>
/home/rex/devel/optee/optee_os/lib/libmpa/mpa_io.c:291
    e190:	52800020 	mov	w0, #0x1                   	// #1
    e194:	b9005fa0 	str	w0, [x29,#92]
/home/rex/devel/optee/optee_os/lib/libmpa/mpa_io.c:292
    e198:	f94013a0 	ldr	x0, [x29,#32]
    e19c:	91000401 	add	x1, x0, #0x1
    e1a0:	f90013a1 	str	x1, [x29,#32]
    e1a4:	39400000 	ldrb	w0, [x0]
    e1a8:	b9005ba0 	str	w0, [x29,#88]
/home/rex/devel/optee/optee_os/lib/libmpa/mpa_io.c:294
    e1ac:	b9405ba0 	ldr	w0, [x29,#88]
    e1b0:	7100001f 	cmp	w0, #0x0
    e1b4:	540000c1 	b.ne	e1cc <mpa_set_str+0xa0>
/home/rex/devel/optee/optee_os/lib/libmpa/mpa_io.c:295
    e1b8:	52800001 	mov	w1, #0x0                   	// #0
    e1bc:	f94017a0 	ldr	x0, [x29,#40]
    e1c0:	97ffec5e 	bl	9338 <mpa_set_word>
/home/rex/devel/optee/optee_os/lib/libmpa/mpa_io.c:296
    e1c4:	52800000 	mov	w0, #0x0                   	// #0
    e1c8:	140000fb 	b	e5b4 <mpa_set_str+0x488>
/home/rex/devel/optee/optee_os/lib/libmpa/mpa_io.c:300
    e1cc:	b9405ba0 	ldr	w0, [x29,#88]
    e1d0:	7100c01f 	cmp	w0, #0x30
    e1d4:	540002e1 	b.ne	e230 <mpa_set_str+0x104>
/home/rex/devel/optee/optee_os/lib/libmpa/mpa_io.c:301
    e1d8:	f94013a0 	ldr	x0, [x29,#32]
    e1dc:	91000401 	add	x1, x0, #0x1
    e1e0:	f90013a1 	str	x1, [x29,#32]
    e1e4:	39400000 	ldrb	w0, [x0]
    e1e8:	b9005ba0 	str	w0, [x29,#88]
/home/rex/devel/optee/optee_os/lib/libmpa/mpa_io.c:302
    e1ec:	b9405ba0 	ldr	w0, [x29,#88]
    e1f0:	7101e01f 	cmp	w0, #0x78
    e1f4:	54000080 	b.eq	e204 <mpa_set_str+0xd8>
/home/rex/devel/optee/optee_os/lib/libmpa/mpa_io.c:302 (discriminator 1)
    e1f8:	b9405ba0 	ldr	w0, [x29,#88]
    e1fc:	7101601f 	cmp	w0, #0x58
    e200:	54000181 	b.ne	e230 <mpa_set_str+0x104>
/home/rex/devel/optee/optee_os/lib/libmpa/mpa_io.c:303
    e204:	f94013a0 	ldr	x0, [x29,#32]
    e208:	91000401 	add	x1, x0, #0x1
    e20c:	f90013a1 	str	x1, [x29,#32]
    e210:	39400000 	ldrb	w0, [x0]
    e214:	b9005ba0 	str	w0, [x29,#88]
/home/rex/devel/optee/optee_os/lib/libmpa/mpa_io.c:307
    e218:	14000006 	b	e230 <mpa_set_str+0x104>
/home/rex/devel/optee/optee_os/lib/libmpa/mpa_io.c:308
    e21c:	f94013a0 	ldr	x0, [x29,#32]
    e220:	91000401 	add	x1, x0, #0x1
    e224:	f90013a1 	str	x1, [x29,#32]
    e228:	39400000 	ldrb	w0, [x0]
    e22c:	b9005ba0 	str	w0, [x29,#88]
/home/rex/devel/optee/optee_os/lib/libmpa/mpa_io.c:307
    e230:	b9405ba0 	ldr	w0, [x29,#88]
    e234:	7100c01f 	cmp	w0, #0x30
    e238:	54ffff20 	b.eq	e21c <mpa_set_str+0xf0>
/home/rex/devel/optee/optee_os/lib/libmpa/mpa_io.c:307 (discriminator 1)
    e23c:	b9405ba0 	ldr	w0, [x29,#88]
    e240:	12001c00 	and	w0, w0, #0xff
    e244:	97fffe61 	bl	dbc8 <__mpa_isspace>
    e248:	7100001f 	cmp	w0, #0x0
    e24c:	54fffe81 	b.ne	e21c <mpa_set_str+0xf0>
/home/rex/devel/optee/optee_os/lib/libmpa/mpa_io.c:311
    e250:	b9405ba0 	ldr	w0, [x29,#88]
    e254:	7100001f 	cmp	w0, #0x0
    e258:	540000c1 	b.ne	e270 <mpa_set_str+0x144>
/home/rex/devel/optee/optee_os/lib/libmpa/mpa_io.c:312
    e25c:	52800001 	mov	w1, #0x0                   	// #0
    e260:	f94017a0 	ldr	x0, [x29,#40]
    e264:	97ffec35 	bl	9338 <mpa_set_word>
/home/rex/devel/optee/optee_os/lib/libmpa/mpa_io.c:313
    e268:	52800000 	mov	w0, #0x0                   	// #0
    e26c:	140000d2 	b	e5b4 <mpa_set_str+0x488>
/home/rex/devel/optee/optee_os/lib/libmpa/mpa_io.c:317
    e270:	f94013a0 	ldr	x0, [x29,#32]
    e274:	f90027a0 	str	x0, [x29,#72]
/home/rex/devel/optee/optee_os/lib/libmpa/mpa_io.c:318
    e278:	14000004 	b	e288 <mpa_set_str+0x15c>
/home/rex/devel/optee/optee_os/lib/libmpa/mpa_io.c:319
    e27c:	f94027a0 	ldr	x0, [x29,#72]
    e280:	91000400 	add	x0, x0, #0x1
    e284:	f90027a0 	str	x0, [x29,#72]
/home/rex/devel/optee/optee_os/lib/libmpa/mpa_io.c:318
    e288:	f94027a0 	ldr	x0, [x29,#72]
    e28c:	39400000 	ldrb	w0, [x0]
    e290:	7100001f 	cmp	w0, #0x0
    e294:	54ffff41 	b.ne	e27c <mpa_set_str+0x150>
/home/rex/devel/optee/optee_os/lib/libmpa/mpa_io.c:322
    e298:	f94027a1 	ldr	x1, [x29,#72]
    e29c:	f94013a0 	ldr	x0, [x29,#32]
    e2a0:	cb000020 	sub	x0, x1, x0
    e2a4:	11000400 	add	w0, w0, #0x1
    e2a8:	b90033a0 	str	w0, [x29,#48]
/home/rex/devel/optee/optee_os/lib/libmpa/mpa_io.c:323
    e2ac:	b94033a1 	ldr	w1, [x29,#48]
    e2b0:	52820040 	mov	w0, #0x1002                	// #4098
    e2b4:	6b00003f 	cmp	w1, w0
    e2b8:	540001ed 	b.le	e2f4 <mpa_set_str+0x1c8>
/home/rex/devel/optee/optee_os/lib/libmpa/mpa_io.c:324
    e2bc:	d0000000 	adrp	x0, 10000 <PRIME_TABLE+0x538>
    e2c0:	911fe001 	add	x1, x0, #0x7f8
    e2c4:	d0000000 	adrp	x0, 10000 <PRIME_TABLE+0x538>
    e2c8:	9121a000 	add	x0, x0, #0x868
    e2cc:	52820046 	mov	w6, #0x1002                	// #4098
    e2d0:	b94033a5 	ldr	w5, [x29,#48]
    e2d4:	aa0103e4 	mov	x4, x1
    e2d8:	52800023 	mov	w3, #0x1                   	// #1
    e2dc:	52800022 	mov	w2, #0x1                   	// #1
    e2e0:	52802881 	mov	w1, #0x144                 	// #324
    e2e4:	97ffe68f 	bl	7d20 <trace_printf>
/home/rex/devel/optee/optee_os/lib/libmpa/mpa_io.c:325
    e2e8:	12800000 	mov	w0, #0xffffffff            	// #-1
    e2ec:	b90047a0 	str	w0, [x29,#68]
/home/rex/devel/optee/optee_os/lib/libmpa/mpa_io.c:326
    e2f0:	140000b0 	b	e5b0 <mpa_set_str+0x484>
/home/rex/devel/optee/optee_os/lib/libmpa/mpa_io.c:330
    e2f4:	b90057bf 	str	wzr, [x29,#84]
/home/rex/devel/optee/optee_os/lib/libmpa/mpa_io.c:331
    e2f8:	14000015 	b	e34c <mpa_set_str+0x220>
/home/rex/devel/optee/optee_os/lib/libmpa/mpa_io.c:332
    e2fc:	b9405ba0 	ldr	w0, [x29,#88]
    e300:	12001c00 	and	w0, w0, #0xff
    e304:	97fffe31 	bl	dbc8 <__mpa_isspace>
    e308:	7100001f 	cmp	w0, #0x0
    e30c:	54000161 	b.ne	e338 <mpa_set_str+0x20c>
/home/rex/devel/optee/optee_os/lib/libmpa/mpa_io.c:333
    e310:	b94057b3 	ldr	w19, [x29,#84]
    e314:	11000660 	add	w0, w19, #0x1
    e318:	b90057a0 	str	w0, [x29,#84]
    e31c:	b9405ba0 	ldr	w0, [x29,#88]
    e320:	97fffe74 	bl	dcf0 <__mpa_digit_value>
    e324:	12001c02 	and	w2, w0, #0xff
    e328:	90000060 	adrp	x0, 1a000 <mempool_u32+0xe80>
    e32c:	91352001 	add	x1, x0, #0xd48
    e330:	93407e60 	sxtw	x0, w19
    e334:	38206822 	strb	w2, [x1,x0]
/home/rex/devel/optee/optee_os/lib/libmpa/mpa_io.c:334
    e338:	f94013a0 	ldr	x0, [x29,#32]
    e33c:	91000401 	add	x1, x0, #0x1
    e340:	f90013a1 	str	x1, [x29,#32]
    e344:	39400000 	ldrb	w0, [x0]
    e348:	b9005ba0 	str	w0, [x29,#88]
/home/rex/devel/optee/optee_os/lib/libmpa/mpa_io.c:331
    e34c:	b9405ba1 	ldr	w1, [x29,#88]
    e350:	52800200 	mov	w0, #0x10                  	// #16
    e354:	97fffe33 	bl	dc20 <__mpa_is_char_in_base>
    e358:	7100001f 	cmp	w0, #0x0
    e35c:	54fffd01 	b.ne	e2fc <mpa_set_str+0x1d0>
/home/rex/devel/optee/optee_os/lib/libmpa/mpa_io.c:337
    e360:	b94057a0 	ldr	w0, [x29,#84]
    e364:	7100001f 	cmp	w0, #0x0
    e368:	54000081 	b.ne	e378 <mpa_set_str+0x24c>
/home/rex/devel/optee/optee_os/lib/libmpa/mpa_io.c:338
    e36c:	12800000 	mov	w0, #0xffffffff            	// #-1
    e370:	b90047a0 	str	w0, [x29,#68]
/home/rex/devel/optee/optee_os/lib/libmpa/mpa_io.c:339
    e374:	1400008f 	b	e5b0 <mpa_set_str+0x484>
/home/rex/devel/optee/optee_os/lib/libmpa/mpa_io.c:341
    e378:	b94057a0 	ldr	w0, [x29,#84]
    e37c:	97fffe7d 	bl	dd70 <__mpa_digitstr_to_binary_wsize_base_16>
    e380:	2a0003e1 	mov	w1, w0
/home/rex/devel/optee/optee_os/lib/libmpa/mpa_io.c:342
    e384:	f94017a0 	ldr	x0, [x29,#40]
    e388:	b9400000 	ldr	w0, [x0]
/home/rex/devel/optee/optee_os/lib/libmpa/mpa_io.c:341
    e38c:	6b00003f 	cmp	w1, w0
    e390:	54000289 	b.ls	e3e0 <mpa_set_str+0x2b4>
/home/rex/devel/optee/optee_os/lib/libmpa/mpa_io.c:343
    e394:	b94057a0 	ldr	w0, [x29,#84]
    e398:	97fffe76 	bl	dd70 <__mpa_digitstr_to_binary_wsize_base_16>
    e39c:	2a0003e3 	mov	w3, w0
    e3a0:	f94017a0 	ldr	x0, [x29,#40]
    e3a4:	b9400002 	ldr	w2, [x0]
    e3a8:	d0000000 	adrp	x0, 10000 <PRIME_TABLE+0x538>
    e3ac:	91206001 	add	x1, x0, #0x818
    e3b0:	d0000000 	adrp	x0, 10000 <PRIME_TABLE+0x538>
    e3b4:	9121a000 	add	x0, x0, #0x868
    e3b8:	2a0203e6 	mov	w6, w2
    e3bc:	2a0303e5 	mov	w5, w3
    e3c0:	aa0103e4 	mov	x4, x1
    e3c4:	52800023 	mov	w3, #0x1                   	// #1
    e3c8:	52800022 	mov	w2, #0x1                   	// #1
    e3cc:	52802b21 	mov	w1, #0x159                 	// #345
    e3d0:	97ffe654 	bl	7d20 <trace_printf>
/home/rex/devel/optee/optee_os/lib/libmpa/mpa_io.c:346
    e3d4:	12800000 	mov	w0, #0xffffffff            	// #-1
    e3d8:	b90047a0 	str	w0, [x29,#68]
/home/rex/devel/optee/optee_os/lib/libmpa/mpa_io.c:347
    e3dc:	14000075 	b	e5b0 <mpa_set_str+0x484>
/home/rex/devel/optee/optee_os/lib/libmpa/mpa_io.c:350
    e3e0:	b94057a0 	ldr	w0, [x29,#84]
    e3e4:	b90047a0 	str	w0, [x29,#68]
/home/rex/devel/optee/optee_os/lib/libmpa/mpa_io.c:351
    e3e8:	f94017a0 	ldr	x0, [x29,#40]
    e3ec:	91002000 	add	x0, x0, #0x8
    e3f0:	f9001fa0 	str	x0, [x29,#56]
/home/rex/devel/optee/optee_os/lib/libmpa/mpa_io.c:352
    e3f4:	52800001 	mov	w1, #0x0                   	// #0
    e3f8:	f94017a0 	ldr	x0, [x29,#40]
    e3fc:	97ffebcf 	bl	9338 <mpa_set_word>
/home/rex/devel/optee/optee_os/lib/libmpa/mpa_io.c:354
    e400:	f9401fa0 	ldr	x0, [x29,#56]
    e404:	b900001f 	str	wzr, [x0]
/home/rex/devel/optee/optee_os/lib/libmpa/mpa_io.c:355
    e408:	52800080 	mov	w0, #0x4                   	// #4
    e40c:	b90037a0 	str	w0, [x29,#52]
/home/rex/devel/optee/optee_os/lib/libmpa/mpa_io.c:356
    e410:	f94017a0 	ldr	x0, [x29,#40]
    e414:	52800021 	mov	w1, #0x1                   	// #1
    e418:	b9000401 	str	w1, [x0,#4]
/home/rex/devel/optee/optee_os/lib/libmpa/mpa_io.c:357
    e41c:	b94057a0 	ldr	w0, [x29,#84]
    e420:	51000400 	sub	w0, w0, #0x1
    e424:	b90057a0 	str	w0, [x29,#84]
/home/rex/devel/optee/optee_os/lib/libmpa/mpa_io.c:358
    e428:	1400002c 	b	e4d8 <mpa_set_str+0x3ac>
/home/rex/devel/optee/optee_os/lib/libmpa/mpa_io.c:359
    e42c:	f9401fa0 	ldr	x0, [x29,#56]
    e430:	b9400001 	ldr	w1, [x0]
    e434:	b94057a0 	ldr	w0, [x29,#84]
    e438:	51000403 	sub	w3, w0, #0x1
    e43c:	90000060 	adrp	x0, 1a000 <mempool_u32+0xe80>
    e440:	91352002 	add	x2, x0, #0xd48
    e444:	93407c60 	sxtw	x0, w3
    e448:	38606840 	ldrb	w0, [x2,x0]
    e44c:	531c6c00 	lsl	w0, w0, #4
    e450:	90000062 	adrp	x2, 1a000 <mempool_u32+0xe80>
    e454:	91352043 	add	x3, x2, #0xd48
    e458:	b98057a2 	ldrsw	x2, [x29,#84]
    e45c:	38626862 	ldrb	w2, [x3,x2]
    e460:	4a020002 	eor	w2, w0, w2
/home/rex/devel/optee/optee_os/lib/libmpa/mpa_io.c:360
    e464:	52800083 	mov	w3, #0x4                   	// #4
    e468:	b94037a0 	ldr	w0, [x29,#52]
    e46c:	4b000060 	sub	w0, w3, w0
    e470:	531d7000 	lsl	w0, w0, #3
/home/rex/devel/optee/optee_os/lib/libmpa/mpa_io.c:359
    e474:	1ac02040 	lsl	w0, w2, w0
    e478:	4a000021 	eor	w1, w1, w0
    e47c:	f9401fa0 	ldr	x0, [x29,#56]
    e480:	b9000001 	str	w1, [x0]
/home/rex/devel/optee/optee_os/lib/libmpa/mpa_io.c:361
    e484:	b94037a0 	ldr	w0, [x29,#52]
    e488:	51000400 	sub	w0, w0, #0x1
    e48c:	b90037a0 	str	w0, [x29,#52]
/home/rex/devel/optee/optee_os/lib/libmpa/mpa_io.c:362
    e490:	b94057a0 	ldr	w0, [x29,#84]
    e494:	51000800 	sub	w0, w0, #0x2
    e498:	b90057a0 	str	w0, [x29,#84]
/home/rex/devel/optee/optee_os/lib/libmpa/mpa_io.c:363
    e49c:	b94037a0 	ldr	w0, [x29,#52]
    e4a0:	7100001f 	cmp	w0, #0x0
    e4a4:	540001a1 	b.ne	e4d8 <mpa_set_str+0x3ac>
/home/rex/devel/optee/optee_os/lib/libmpa/mpa_io.c:364
    e4a8:	f9401fa0 	ldr	x0, [x29,#56]
    e4ac:	91001000 	add	x0, x0, #0x4
    e4b0:	f9001fa0 	str	x0, [x29,#56]
/home/rex/devel/optee/optee_os/lib/libmpa/mpa_io.c:365
    e4b4:	f9401fa0 	ldr	x0, [x29,#56]
    e4b8:	b900001f 	str	wzr, [x0]
/home/rex/devel/optee/optee_os/lib/libmpa/mpa_io.c:366
    e4bc:	52800080 	mov	w0, #0x4                   	// #4
    e4c0:	b90037a0 	str	w0, [x29,#52]
/home/rex/devel/optee/optee_os/lib/libmpa/mpa_io.c:367
    e4c4:	f94017a0 	ldr	x0, [x29,#40]
    e4c8:	b9400400 	ldr	w0, [x0,#4]
    e4cc:	11000401 	add	w1, w0, #0x1
    e4d0:	f94017a0 	ldr	x0, [x29,#40]
    e4d4:	b9000401 	str	w1, [x0,#4]
/home/rex/devel/optee/optee_os/lib/libmpa/mpa_io.c:358
    e4d8:	b94057a0 	ldr	w0, [x29,#84]
    e4dc:	7100041f 	cmp	w0, #0x1
    e4e0:	54fffa6c 	b.gt	e42c <mpa_set_str+0x300>
/home/rex/devel/optee/optee_os/lib/libmpa/mpa_io.c:370
    e4e4:	b94057a0 	ldr	w0, [x29,#84]
    e4e8:	7100041f 	cmp	w0, #0x1
    e4ec:	540002e1 	b.ne	e548 <mpa_set_str+0x41c>
/home/rex/devel/optee/optee_os/lib/libmpa/mpa_io.c:371
    e4f0:	f9401fa0 	ldr	x0, [x29,#56]
    e4f4:	b9400001 	ldr	w1, [x0]
    e4f8:	b94057a0 	ldr	w0, [x29,#84]
    e4fc:	51000403 	sub	w3, w0, #0x1
    e500:	90000060 	adrp	x0, 1a000 <mempool_u32+0xe80>
    e504:	91352002 	add	x2, x0, #0xd48
    e508:	93407c60 	sxtw	x0, w3
    e50c:	38606840 	ldrb	w0, [x2,x0]
    e510:	531c6c00 	lsl	w0, w0, #4
    e514:	90000062 	adrp	x2, 1a000 <mempool_u32+0xe80>
    e518:	91352043 	add	x3, x2, #0xd48
    e51c:	b98057a2 	ldrsw	x2, [x29,#84]
    e520:	38626862 	ldrb	w2, [x3,x2]
    e524:	4a020002 	eor	w2, w0, w2
/home/rex/devel/optee/optee_os/lib/libmpa/mpa_io.c:372
    e528:	52800083 	mov	w3, #0x4                   	// #4
    e52c:	b94037a0 	ldr	w0, [x29,#52]
    e530:	4b000060 	sub	w0, w3, w0
    e534:	531d7000 	lsl	w0, w0, #3
/home/rex/devel/optee/optee_os/lib/libmpa/mpa_io.c:371
    e538:	1ac02040 	lsl	w0, w2, w0
    e53c:	4a000021 	eor	w1, w1, w0
    e540:	f9401fa0 	ldr	x0, [x29,#56]
    e544:	b9000001 	str	w1, [x0]
/home/rex/devel/optee/optee_os/lib/libmpa/mpa_io.c:373
    e548:	b94057a0 	ldr	w0, [x29,#84]
    e54c:	7100001f 	cmp	w0, #0x0
    e550:	54000201 	b.ne	e590 <mpa_set_str+0x464>
/home/rex/devel/optee/optee_os/lib/libmpa/mpa_io.c:374
    e554:	f9401fa0 	ldr	x0, [x29,#56]
    e558:	b9400001 	ldr	w1, [x0]
    e55c:	90000060 	adrp	x0, 1a000 <mempool_u32+0xe80>
    e560:	91352002 	add	x2, x0, #0xd48
    e564:	b98057a0 	ldrsw	x0, [x29,#84]
    e568:	38606840 	ldrb	w0, [x2,x0]
    e56c:	2a0003e3 	mov	w3, w0
/home/rex/devel/optee/optee_os/lib/libmpa/mpa_io.c:375
    e570:	52800082 	mov	w2, #0x4                   	// #4
    e574:	b94037a0 	ldr	w0, [x29,#52]
    e578:	4b000040 	sub	w0, w2, w0
    e57c:	531d7000 	lsl	w0, w0, #3
/home/rex/devel/optee/optee_os/lib/libmpa/mpa_io.c:374
    e580:	1ac02060 	lsl	w0, w3, w0
    e584:	4a000021 	eor	w1, w1, w0
    e588:	f9401fa0 	ldr	x0, [x29,#56]
    e58c:	b9000001 	str	w1, [x0]
/home/rex/devel/optee/optee_os/lib/libmpa/mpa_io.c:377
    e590:	b9405fa0 	ldr	w0, [x29,#92]
    e594:	7100001f 	cmp	w0, #0x0
    e598:	540000c0 	b.eq	e5b0 <mpa_set_str+0x484>
/home/rex/devel/optee/optee_os/lib/libmpa/mpa_io.c:378
    e59c:	f94017a0 	ldr	x0, [x29,#40]
    e5a0:	b9400400 	ldr	w0, [x0,#4]
    e5a4:	4b0003e1 	neg	w1, w0
    e5a8:	f94017a0 	ldr	x0, [x29,#40]
    e5ac:	b9000401 	str	w1, [x0,#4]
/home/rex/devel/optee/optee_os/lib/libmpa/mpa_io.c:381
    e5b0:	b94047a0 	ldr	w0, [x29,#68]
/home/rex/devel/optee/optee_os/lib/libmpa/mpa_io.c:382
    e5b4:	f9400bf3 	ldr	x19, [sp,#16]
    e5b8:	a8c67bfd 	ldp	x29, x30, [sp],#96
    e5bc:	d65f03c0 	ret

000000000000e5c0 <mpa_get_str>:
mpa_get_str():
/home/rex/devel/optee/optee_os/lib/libmpa/mpa_io.c:398
    e5c0:	a9bc7bfd 	stp	x29, x30, [sp,#-64]!
    e5c4:	910003fd 	mov	x29, sp
    e5c8:	f90017a0 	str	x0, [x29,#40]
    e5cc:	b90027a1 	str	w1, [x29,#36]
    e5d0:	f9000fa2 	str	x2, [x29,#24]
/home/rex/devel/optee/optee_os/lib/libmpa/mpa_io.c:399
    e5d4:	f94017a0 	ldr	x0, [x29,#40]
    e5d8:	f9001fa0 	str	x0, [x29,#56]
/home/rex/devel/optee/optee_os/lib/libmpa/mpa_io.c:401
    e5dc:	f94017a0 	ldr	x0, [x29,#40]
    e5e0:	f100001f 	cmp	x0, #0x0
    e5e4:	54000161 	b.ne	e610 <mpa_get_str+0x50>
/home/rex/devel/optee/optee_os/lib/libmpa/mpa_io.c:401 (discriminator 1)
    e5e8:	d0000000 	adrp	x0, 10000 <PRIME_TABLE+0x538>
    e5ec:	9121e002 	add	x2, x0, #0x878
    e5f0:	d0000000 	adrp	x0, 10000 <PRIME_TABLE+0x538>
    e5f4:	91212001 	add	x1, x0, #0x848
    e5f8:	d0000000 	adrp	x0, 10000 <PRIME_TABLE+0x538>
    e5fc:	91218000 	add	x0, x0, #0x860
    e600:	aa0203e3 	mov	x3, x2
    e604:	52803222 	mov	w2, #0x191                 	// #401
    e608:	97ffd27d 	bl	2ffc <_assert_log>
    e60c:	97ffd294 	bl	305c <_assert_break>
/home/rex/devel/optee/optee_os/lib/libmpa/mpa_io.c:404
    e610:	f9400fa0 	ldr	x0, [x29,#24]
    e614:	b9400400 	ldr	w0, [x0,#4]
    e618:	7100001f 	cmp	w0, #0x0
    e61c:	540000ea 	b.ge	e638 <mpa_get_str+0x78>
/home/rex/devel/optee/optee_os/lib/libmpa/mpa_io.c:405
    e620:	f9401fa0 	ldr	x0, [x29,#56]
    e624:	528005a1 	mov	w1, #0x2d                  	// #45
    e628:	39000001 	strb	w1, [x0]
/home/rex/devel/optee/optee_os/lib/libmpa/mpa_io.c:406
    e62c:	f9401fa0 	ldr	x0, [x29,#56]
    e630:	91000400 	add	x0, x0, #0x1
    e634:	f9001fa0 	str	x0, [x29,#56]
/home/rex/devel/optee/optee_os/lib/libmpa/mpa_io.c:408
    e638:	b94027a0 	ldr	w0, [x29,#36]
    e63c:	7100401f 	cmp	w0, #0x10
    e640:	54000080 	b.eq	e650 <mpa_get_str+0x90>
    e644:	7100441f 	cmp	w0, #0x11
    e648:	540000e0 	b.eq	e664 <mpa_get_str+0xa4>
    e64c:	1400000b 	b	e678 <mpa_get_str+0xb8>
/home/rex/devel/optee/optee_os/lib/libmpa/mpa_io.c:410
    e650:	f9400fa2 	ldr	x2, [x29,#24]
    e654:	52800001 	mov	w1, #0x0                   	// #0
    e658:	f9401fa0 	ldr	x0, [x29,#56]
    e65c:	97fffe09 	bl	de80 <__mpa_mpanum_to_hexstr>
/home/rex/devel/optee/optee_os/lib/libmpa/mpa_io.c:411
    e660:	14000008 	b	e680 <mpa_get_str+0xc0>
/home/rex/devel/optee/optee_os/lib/libmpa/mpa_io.c:413
    e664:	f9400fa2 	ldr	x2, [x29,#24]
    e668:	52800021 	mov	w1, #0x1                   	// #1
    e66c:	f9401fa0 	ldr	x0, [x29,#56]
    e670:	97fffe04 	bl	de80 <__mpa_mpanum_to_hexstr>
/home/rex/devel/optee/optee_os/lib/libmpa/mpa_io.c:414
    e674:	14000003 	b	e680 <mpa_get_str+0xc0>
/home/rex/devel/optee/optee_os/lib/libmpa/mpa_io.c:416
    e678:	d2800000 	mov	x0, #0x0                   	// #0
    e67c:	14000002 	b	e684 <mpa_get_str+0xc4>
/home/rex/devel/optee/optee_os/lib/libmpa/mpa_io.c:419
    e680:	f94017a0 	ldr	x0, [x29,#40]
/home/rex/devel/optee/optee_os/lib/libmpa/mpa_io.c:420
    e684:	a8c47bfd 	ldp	x29, x30, [sp],#64
    e688:	d65f03c0 	ret

000000000000e68c <set_word>:
set_word():
/home/rex/devel/optee/optee_os/lib/libmpa/mpa_io.c:425
    e68c:	d10083ff 	sub	sp, sp, #0x20
    e690:	f90007e0 	str	x0, [sp,#8]
    e694:	f90003e1 	str	x1, [sp]
/home/rex/devel/optee/optee_os/lib/libmpa/mpa_io.c:429
    e698:	b9001bff 	str	wzr, [sp,#24]
/home/rex/devel/optee/optee_os/lib/libmpa/mpa_io.c:430
    e69c:	f94003e0 	ldr	x0, [sp]
    e6a0:	51000400 	sub	w0, w0, #0x1
    e6a4:	b9001fe0 	str	w0, [sp,#28]
    e6a8:	14000014 	b	e6f8 <set_word+0x6c>
/home/rex/devel/optee/optee_os/lib/libmpa/mpa_io.c:431 (discriminator 3)
    e6ac:	b9801fe0 	ldrsw	x0, [sp,#28]
    e6b0:	f94007e1 	ldr	x1, [sp,#8]
    e6b4:	8b000020 	add	x0, x1, x0
    e6b8:	39400000 	ldrb	w0, [x0]
    e6bc:	2a0003e2 	mov	w2, w0
    e6c0:	b9801fe0 	ldrsw	x0, [sp,#28]
    e6c4:	f94003e1 	ldr	x1, [sp]
    e6c8:	cb000020 	sub	x0, x1, x0
    e6cc:	2a0003e1 	mov	w1, w0
    e6d0:	12bc0000 	mov	w0, #0x1fffffff            	// #536870911
    e6d4:	0b000020 	add	w0, w1, w0
    e6d8:	531d7000 	lsl	w0, w0, #3
    e6dc:	1ac02040 	lsl	w0, w2, w0
    e6e0:	b9401be1 	ldr	w1, [sp,#24]
    e6e4:	2a000020 	orr	w0, w1, w0
    e6e8:	b9001be0 	str	w0, [sp,#24]
/home/rex/devel/optee/optee_os/lib/libmpa/mpa_io.c:430 (discriminator 3)
    e6ec:	b9401fe0 	ldr	w0, [sp,#28]
    e6f0:	51000400 	sub	w0, w0, #0x1
    e6f4:	b9001fe0 	str	w0, [sp,#28]
/home/rex/devel/optee/optee_os/lib/libmpa/mpa_io.c:430 (discriminator 1)
    e6f8:	b9401fe0 	ldr	w0, [sp,#28]
    e6fc:	7100001f 	cmp	w0, #0x0
    e700:	54fffd6a 	b.ge	e6ac <set_word+0x20>
/home/rex/devel/optee/optee_os/lib/libmpa/mpa_io.c:432
    e704:	b9401be0 	ldr	w0, [sp,#24]
/home/rex/devel/optee/optee_os/lib/libmpa/mpa_io.c:433
    e708:	910083ff 	add	sp, sp, #0x20
    e70c:	d65f03c0 	ret

000000000000e710 <mpa_set_oct_str>:
mpa_set_oct_str():
/home/rex/devel/optee/optee_os/lib/libmpa/mpa_io.c:437
    e710:	a9bb7bfd 	stp	x29, x30, [sp,#-80]!
    e714:	910003fd 	mov	x29, sp
    e718:	f90017a0 	str	x0, [x29,#40]
    e71c:	f90013a1 	str	x1, [x29,#32]
    e720:	f9000fa2 	str	x2, [x29,#24]
    e724:	39005fa3 	strb	w3, [x29,#23]
/home/rex/devel/optee/optee_os/lib/libmpa/mpa_io.c:438
    e728:	f94013a0 	ldr	x0, [x29,#32]
    e72c:	f90027a0 	str	x0, [x29,#72]
/home/rex/devel/optee/optee_os/lib/libmpa/mpa_io.c:439
    e730:	f9400fa0 	ldr	x0, [x29,#24]
    e734:	b90047a0 	str	w0, [x29,#68]
/home/rex/devel/optee/optee_os/lib/libmpa/mpa_io.c:443
    e738:	1400000b 	b	e764 <mpa_set_oct_str+0x54>
/home/rex/devel/optee/optee_os/lib/libmpa/mpa_io.c:444
    e73c:	f94027a0 	ldr	x0, [x29,#72]
    e740:	39400000 	ldrb	w0, [x0]
    e744:	7100001f 	cmp	w0, #0x0
    e748:	54000161 	b.ne	e774 <mpa_set_oct_str+0x64>
/home/rex/devel/optee/optee_os/lib/libmpa/mpa_io.c:446
    e74c:	b94047a0 	ldr	w0, [x29,#68]
    e750:	51000400 	sub	w0, w0, #0x1
    e754:	b90047a0 	str	w0, [x29,#68]
/home/rex/devel/optee/optee_os/lib/libmpa/mpa_io.c:447
    e758:	f94027a0 	ldr	x0, [x29,#72]
    e75c:	91000400 	add	x0, x0, #0x1
    e760:	f90027a0 	str	x0, [x29,#72]
/home/rex/devel/optee/optee_os/lib/libmpa/mpa_io.c:443
    e764:	b94047a0 	ldr	w0, [x29,#68]
    e768:	7100001f 	cmp	w0, #0x0
    e76c:	54fffe8c 	b.gt	e73c <mpa_set_oct_str+0x2c>
    e770:	14000002 	b	e778 <mpa_set_oct_str+0x68>
/home/rex/devel/optee/optee_os/lib/libmpa/mpa_io.c:445
    e774:	d503201f 	nop
/home/rex/devel/optee/optee_os/lib/libmpa/mpa_io.c:450
    e778:	b94047a0 	ldr	w0, [x29,#68]
    e77c:	7100001f 	cmp	w0, #0x0
    e780:	540000c1 	b.ne	e798 <mpa_set_oct_str+0x88>
/home/rex/devel/optee/optee_os/lib/libmpa/mpa_io.c:451
    e784:	52800001 	mov	w1, #0x0                   	// #0
    e788:	f94017a0 	ldr	x0, [x29,#40]
    e78c:	97ffeaeb 	bl	9338 <mpa_set_word>
/home/rex/devel/optee/optee_os/lib/libmpa/mpa_io.c:452
    e790:	52800000 	mov	w0, #0x0                   	// #0
    e794:	1400003b 	b	e880 <mpa_set_oct_str+0x170>
/home/rex/devel/optee/optee_os/lib/libmpa/mpa_io.c:460
    e798:	b94047a0 	ldr	w0, [x29,#68]
    e79c:	51000400 	sub	w0, w0, #0x1
    e7a0:	93407c01 	sxtw	x1, w0
    e7a4:	f94017a0 	ldr	x0, [x29,#40]
    e7a8:	b9400000 	ldr	w0, [x0]
    e7ac:	531e7400 	lsl	w0, w0, #2
    e7b0:	2a0003e0 	mov	w0, w0
    e7b4:	eb00003f 	cmp	x1, x0
    e7b8:	54000069 	b.ls	e7c4 <mpa_set_oct_str+0xb4>
/home/rex/devel/optee/optee_os/lib/libmpa/mpa_io.c:461
    e7bc:	12800000 	mov	w0, #0xffffffff            	// #-1
    e7c0:	14000030 	b	e880 <mpa_set_oct_str+0x170>
/home/rex/devel/optee/optee_os/lib/libmpa/mpa_io.c:463
    e7c4:	f94017a0 	ldr	x0, [x29,#40]
    e7c8:	91002000 	add	x0, x0, #0x8
    e7cc:	f9001fa0 	str	x0, [x29,#56]
/home/rex/devel/optee/optee_os/lib/libmpa/mpa_io.c:464
    e7d0:	52800001 	mov	w1, #0x0                   	// #0
    e7d4:	f94017a0 	ldr	x0, [x29,#40]
    e7d8:	97ffead8 	bl	9338 <mpa_set_word>
/home/rex/devel/optee/optee_os/lib/libmpa/mpa_io.c:466
    e7dc:	f94017a0 	ldr	x0, [x29,#40]
    e7e0:	b900041f 	str	wzr, [x0,#4]
/home/rex/devel/optee/optee_os/lib/libmpa/mpa_io.c:467
    e7e4:	1400001b 	b	e850 <mpa_set_oct_str+0x140>
/home/rex/devel/optee/optee_os/lib/libmpa/mpa_io.c:468
    e7e8:	b94047a2 	ldr	w2, [x29,#68]
    e7ec:	b94047a1 	ldr	w1, [x29,#68]
    e7f0:	52800080 	mov	w0, #0x4                   	// #4
    e7f4:	7100105f 	cmp	w2, #0x4
    e7f8:	1a80d020 	csel	w0, w1, w0, le
    e7fc:	b90037a0 	str	w0, [x29,#52]
/home/rex/devel/optee/optee_os/lib/libmpa/mpa_io.c:470
    e800:	b94047a1 	ldr	w1, [x29,#68]
    e804:	b94037a0 	ldr	w0, [x29,#52]
    e808:	4b000020 	sub	w0, w1, w0
    e80c:	b90047a0 	str	w0, [x29,#68]
/home/rex/devel/optee/optee_os/lib/libmpa/mpa_io.c:471
    e810:	b98047a0 	ldrsw	x0, [x29,#68]
    e814:	f94027a1 	ldr	x1, [x29,#72]
    e818:	8b000020 	add	x0, x1, x0
    e81c:	b98037a1 	ldrsw	x1, [x29,#52]
    e820:	97ffff9b 	bl	e68c <set_word>
    e824:	2a0003e1 	mov	w1, w0
    e828:	f9401fa0 	ldr	x0, [x29,#56]
    e82c:	b9000001 	str	w1, [x0]
/home/rex/devel/optee/optee_os/lib/libmpa/mpa_io.c:472
    e830:	f9401fa0 	ldr	x0, [x29,#56]
    e834:	91001000 	add	x0, x0, #0x4
    e838:	f9001fa0 	str	x0, [x29,#56]
/home/rex/devel/optee/optee_os/lib/libmpa/mpa_io.c:473
    e83c:	f94017a0 	ldr	x0, [x29,#40]
    e840:	b9400400 	ldr	w0, [x0,#4]
    e844:	11000401 	add	w1, w0, #0x1
    e848:	f94017a0 	ldr	x0, [x29,#40]
    e84c:	b9000401 	str	w1, [x0,#4]
/home/rex/devel/optee/optee_os/lib/libmpa/mpa_io.c:467
    e850:	b94047a0 	ldr	w0, [x29,#68]
    e854:	7100001f 	cmp	w0, #0x0
    e858:	54fffc8c 	b.gt	e7e8 <mpa_set_oct_str+0xd8>
/home/rex/devel/optee/optee_os/lib/libmpa/mpa_io.c:476
    e85c:	39405fa0 	ldrb	w0, [x29,#23]
    e860:	7100001f 	cmp	w0, #0x0
    e864:	540000c0 	b.eq	e87c <mpa_set_oct_str+0x16c>
/home/rex/devel/optee/optee_os/lib/libmpa/mpa_io.c:477
    e868:	f94017a0 	ldr	x0, [x29,#40]
    e86c:	b9400400 	ldr	w0, [x0,#4]
    e870:	4b0003e1 	neg	w1, w0
    e874:	f94017a0 	ldr	x0, [x29,#40]
    e878:	b9000401 	str	w1, [x0,#4]
/home/rex/devel/optee/optee_os/lib/libmpa/mpa_io.c:479
    e87c:	52800000 	mov	w0, #0x0                   	// #0
/home/rex/devel/optee/optee_os/lib/libmpa/mpa_io.c:480
    e880:	a8c57bfd 	ldp	x29, x30, [sp],#80
    e884:	d65f03c0 	ret

000000000000e888 <get_word>:
get_word():
/home/rex/devel/optee/optee_os/lib/libmpa/mpa_io.c:483
    e888:	d10083ff 	sub	sp, sp, #0x20
    e88c:	b9000fe0 	str	w0, [sp,#12]
    e890:	f90003e1 	str	x1, [sp]
/home/rex/devel/optee/optee_os/lib/libmpa/mpa_io.c:486
    e894:	52800060 	mov	w0, #0x3                   	// #3
    e898:	b9001fe0 	str	w0, [sp,#28]
    e89c:	1400000d 	b	e8d0 <get_word+0x48>
/home/rex/devel/optee/optee_os/lib/libmpa/mpa_io.c:487 (discriminator 3)
    e8a0:	b9801fe0 	ldrsw	x0, [sp,#28]
    e8a4:	f94003e1 	ldr	x1, [sp]
    e8a8:	8b000020 	add	x0, x1, x0
    e8ac:	b9400fe1 	ldr	w1, [sp,#12]
    e8b0:	12001c21 	and	w1, w1, #0xff
    e8b4:	39000001 	strb	w1, [x0]
/home/rex/devel/optee/optee_os/lib/libmpa/mpa_io.c:488 (discriminator 3)
    e8b8:	b9400fe0 	ldr	w0, [sp,#12]
    e8bc:	53087c00 	lsr	w0, w0, #8
    e8c0:	b9000fe0 	str	w0, [sp,#12]
/home/rex/devel/optee/optee_os/lib/libmpa/mpa_io.c:486 (discriminator 3)
    e8c4:	b9401fe0 	ldr	w0, [sp,#28]
    e8c8:	51000400 	sub	w0, w0, #0x1
    e8cc:	b9001fe0 	str	w0, [sp,#28]
/home/rex/devel/optee/optee_os/lib/libmpa/mpa_io.c:486 (discriminator 1)
    e8d0:	b9401fe0 	ldr	w0, [sp,#28]
    e8d4:	7100001f 	cmp	w0, #0x0
    e8d8:	54fffe4a 	b.ge	e8a0 <get_word+0x18>
/home/rex/devel/optee/optee_os/lib/libmpa/mpa_io.c:490
    e8dc:	d503201f 	nop
    e8e0:	910083ff 	add	sp, sp, #0x20
    e8e4:	d65f03c0 	ret

000000000000e8e8 <mpa_get_oct_str>:
mpa_get_oct_str():
/home/rex/devel/optee/optee_os/lib/libmpa/mpa_io.c:493
    e8e8:	a9bb7bfd 	stp	x29, x30, [sp,#-80]!
    e8ec:	910003fd 	mov	x29, sp
    e8f0:	f90017a0 	str	x0, [x29,#40]
    e8f4:	f90013a1 	str	x1, [x29,#32]
    e8f8:	f9000fa2 	str	x2, [x29,#24]
/home/rex/devel/optee/optee_os/lib/libmpa/mpa_io.c:494
    e8fc:	f9400fa0 	ldr	x0, [x29,#24]
    e900:	97fffde6 	bl	e098 <__mpa_size_in_base_255>
    e904:	2a0003e0 	mov	w0, w0
    e908:	f9001fa0 	str	x0, [x29,#56]
/home/rex/devel/optee/optee_os/lib/libmpa/mpa_io.c:496
    e90c:	f90027bf 	str	xzr, [x29,#72]
/home/rex/devel/optee/optee_os/lib/libmpa/mpa_io.c:500
    e910:	f94013a0 	ldr	x0, [x29,#32]
    e914:	f9400001 	ldr	x1, [x0]
    e918:	f9401fa0 	ldr	x0, [x29,#56]
    e91c:	eb00003f 	cmp	x1, x0
    e920:	540000c2 	b.cs	e938 <mpa_get_oct_str+0x50>
/home/rex/devel/optee/optee_os/lib/libmpa/mpa_io.c:501
    e924:	f94013a0 	ldr	x0, [x29,#32]
    e928:	f9401fa1 	ldr	x1, [x29,#56]
    e92c:	f9000001 	str	x1, [x0]
/home/rex/devel/optee/optee_os/lib/libmpa/mpa_io.c:502
    e930:	12800000 	mov	w0, #0xffffffff            	// #-1
    e934:	1400005a 	b	ea9c <mpa_get_oct_str+0x1b4>
/home/rex/devel/optee/optee_os/lib/libmpa/mpa_io.c:505
    e938:	f9400fa0 	ldr	x0, [x29,#24]
    e93c:	b9400400 	ldr	w0, [x0,#4]
    e940:	7100001f 	cmp	w0, #0x0
    e944:	5a80a400 	cneg	w0, w0, lt
    e948:	b90047a0 	str	w0, [x29,#68]
/home/rex/devel/optee/optee_os/lib/libmpa/mpa_io.c:506
    e94c:	b94047a0 	ldr	w0, [x29,#68]
    e950:	7100001f 	cmp	w0, #0x0
    e954:	54000101 	b.ne	e974 <mpa_get_oct_str+0x8c>
/home/rex/devel/optee/optee_os/lib/libmpa/mpa_io.c:507
    e958:	f94013a0 	ldr	x0, [x29,#32]
    e95c:	f9400000 	ldr	x0, [x0]
    e960:	aa0003e2 	mov	x2, x0
    e964:	52800001 	mov	w1, #0x0                   	// #0
    e968:	f94017a0 	ldr	x0, [x29,#40]
    e96c:	97ffdb85 	bl	5780 <memset>
/home/rex/devel/optee/optee_os/lib/libmpa/mpa_io.c:508
    e970:	14000047 	b	ea8c <mpa_get_oct_str+0x1a4>
/home/rex/devel/optee/optee_os/lib/libmpa/mpa_io.c:510
    e974:	b94047a0 	ldr	w0, [x29,#68]
    e978:	51000400 	sub	w0, w0, #0x1
    e97c:	b90047a0 	str	w0, [x29,#68]
/home/rex/devel/optee/optee_os/lib/libmpa/mpa_io.c:513
    e980:	f9400fa1 	ldr	x1, [x29,#24]
    e984:	b98047a0 	ldrsw	x0, [x29,#68]
    e988:	d37ef400 	lsl	x0, x0, #2
    e98c:	8b000020 	add	x0, x1, x0
    e990:	b9400800 	ldr	w0, [x0,#8]
    e994:	9100c3a1 	add	x1, x29, #0x30
    e998:	97ffffbc 	bl	e888 <get_word>
/home/rex/devel/optee/optee_os/lib/libmpa/mpa_io.c:515
    e99c:	b90043bf 	str	wzr, [x29,#64]
    e9a0:	1400001a 	b	ea08 <mpa_get_oct_str+0x120>
/home/rex/devel/optee/optee_os/lib/libmpa/mpa_io.c:516
    e9a4:	b98043a0 	ldrsw	x0, [x29,#64]
    e9a8:	9100c3a1 	add	x1, x29, #0x30
    e9ac:	38606820 	ldrb	w0, [x1,x0]
    e9b0:	7100001f 	cmp	w0, #0x0
    e9b4:	54000240 	b.eq	e9fc <mpa_get_oct_str+0x114>
/home/rex/devel/optee/optee_os/lib/libmpa/mpa_io.c:517
    e9b8:	b98043a0 	ldrsw	x0, [x29,#64]
    e9bc:	9100c3a1 	add	x1, x29, #0x30
    e9c0:	8b000023 	add	x3, x1, x0
    e9c4:	52800081 	mov	w1, #0x4                   	// #4
    e9c8:	b94043a0 	ldr	w0, [x29,#64]
    e9cc:	4b000020 	sub	w0, w1, w0
    e9d0:	93407c00 	sxtw	x0, w0
    e9d4:	aa0003e2 	mov	x2, x0
    e9d8:	aa0303e1 	mov	x1, x3
    e9dc:	f94017a0 	ldr	x0, [x29,#40]
    e9e0:	97ffda85 	bl	53f4 <memcpy>
/home/rex/devel/optee/optee_os/lib/libmpa/mpa_io.c:518
    e9e4:	52800081 	mov	w1, #0x4                   	// #4
    e9e8:	b94043a0 	ldr	w0, [x29,#64]
    e9ec:	4b000020 	sub	w0, w1, w0
    e9f0:	93407c00 	sxtw	x0, w0
    e9f4:	f90027a0 	str	x0, [x29,#72]
/home/rex/devel/optee/optee_os/lib/libmpa/mpa_io.c:519
    e9f8:	14000007 	b	ea14 <mpa_get_oct_str+0x12c>
/home/rex/devel/optee/optee_os/lib/libmpa/mpa_io.c:515 (discriminator 2)
    e9fc:	b94043a0 	ldr	w0, [x29,#64]
    ea00:	11000400 	add	w0, w0, #0x1
    ea04:	b90043a0 	str	w0, [x29,#64]
/home/rex/devel/optee/optee_os/lib/libmpa/mpa_io.c:515 (discriminator 1)
    ea08:	b94043a0 	ldr	w0, [x29,#64]
    ea0c:	71000c1f 	cmp	w0, #0x3
    ea10:	54fffcad 	b.le	e9a4 <mpa_get_oct_str+0xbc>
/home/rex/devel/optee/optee_os/lib/libmpa/mpa_io.c:522
    ea14:	b94047a0 	ldr	w0, [x29,#68]
    ea18:	51000400 	sub	w0, w0, #0x1
    ea1c:	b90047a0 	str	w0, [x29,#68]
/home/rex/devel/optee/optee_os/lib/libmpa/mpa_io.c:524
    ea20:	14000018 	b	ea80 <mpa_get_oct_str+0x198>
/home/rex/devel/optee/optee_os/lib/libmpa/mpa_io.c:525
    ea24:	f94027a1 	ldr	x1, [x29,#72]
    ea28:	f9401fa0 	ldr	x0, [x29,#56]
    ea2c:	eb00003f 	cmp	x1, x0
    ea30:	54000069 	b.ls	ea3c <mpa_get_oct_str+0x154>
/home/rex/devel/optee/optee_os/lib/libmpa/mpa_io.c:526
    ea34:	12800000 	mov	w0, #0xffffffff            	// #-1
    ea38:	14000019 	b	ea9c <mpa_get_oct_str+0x1b4>
/home/rex/devel/optee/optee_os/lib/libmpa/mpa_io.c:527
    ea3c:	f9400fa1 	ldr	x1, [x29,#24]
    ea40:	b98047a0 	ldrsw	x0, [x29,#68]
    ea44:	d37ef400 	lsl	x0, x0, #2
    ea48:	8b000020 	add	x0, x1, x0
    ea4c:	b9400802 	ldr	w2, [x0,#8]
    ea50:	f94017a1 	ldr	x1, [x29,#40]
    ea54:	f94027a0 	ldr	x0, [x29,#72]
    ea58:	8b000020 	add	x0, x1, x0
    ea5c:	aa0003e1 	mov	x1, x0
    ea60:	2a0203e0 	mov	w0, w2
    ea64:	97ffff89 	bl	e888 <get_word>
/home/rex/devel/optee/optee_os/lib/libmpa/mpa_io.c:529
    ea68:	f94027a0 	ldr	x0, [x29,#72]
    ea6c:	91001000 	add	x0, x0, #0x4
    ea70:	f90027a0 	str	x0, [x29,#72]
/home/rex/devel/optee/optee_os/lib/libmpa/mpa_io.c:530
    ea74:	b94047a0 	ldr	w0, [x29,#68]
    ea78:	51000400 	sub	w0, w0, #0x1
    ea7c:	b90047a0 	str	w0, [x29,#68]
/home/rex/devel/optee/optee_os/lib/libmpa/mpa_io.c:524
    ea80:	b94047a0 	ldr	w0, [x29,#68]
    ea84:	7100001f 	cmp	w0, #0x0
    ea88:	54fffcea 	b.ge	ea24 <mpa_get_oct_str+0x13c>
/home/rex/devel/optee/optee_os/lib/libmpa/mpa_io.c:534
    ea8c:	f94013a0 	ldr	x0, [x29,#32]
    ea90:	f9401fa1 	ldr	x1, [x29,#56]
    ea94:	f9000001 	str	x1, [x0]
/home/rex/devel/optee/optee_os/lib/libmpa/mpa_io.c:535
    ea98:	52800000 	mov	w0, #0x0                   	// #0
/home/rex/devel/optee/optee_os/lib/libmpa/mpa_io.c:536 (discriminator 1)
    ea9c:	a8c57bfd 	ldp	x29, x30, [sp],#80
    eaa0:	d65f03c0 	ret

000000000000eaa4 <mpa_mod>:
mpa_mod():
/home/rex/devel/optee/optee_os/lib/libmpa/mpa_modulus.c:41
    eaa4:	a9bd7bfd 	stp	x29, x30, [sp,#-48]!
    eaa8:	910003fd 	mov	x29, sp
    eaac:	f90017a0 	str	x0, [x29,#40]
    eab0:	f90013a1 	str	x1, [x29,#32]
    eab4:	f9000fa2 	str	x2, [x29,#24]
    eab8:	f9000ba3 	str	x3, [x29,#16]
/home/rex/devel/optee/optee_os/lib/libmpa/mpa_modulus.c:42
    eabc:	f9400ba4 	ldr	x4, [x29,#16]
    eac0:	f9400fa3 	ldr	x3, [x29,#24]
    eac4:	f94013a2 	ldr	x2, [x29,#32]
    eac8:	f94017a1 	ldr	x1, [x29,#40]
    eacc:	d2800000 	mov	x0, #0x0                   	// #0
    ead0:	97ffede9 	bl	a274 <mpa_div>
/home/rex/devel/optee/optee_os/lib/libmpa/mpa_modulus.c:43
    ead4:	d503201f 	nop
    ead8:	a8c37bfd 	ldp	x29, x30, [sp],#48
    eadc:	d65f03c0 	ret

000000000000eae0 <mpa_add_mod>:
mpa_add_mod():
/home/rex/devel/optee/optee_os/lib/libmpa/mpa_modulus.c:53
    eae0:	a9bb7bfd 	stp	x29, x30, [sp,#-80]!
    eae4:	910003fd 	mov	x29, sp
    eae8:	f9001fa0 	str	x0, [x29,#56]
    eaec:	f9001ba1 	str	x1, [x29,#48]
    eaf0:	f90017a2 	str	x2, [x29,#40]
    eaf4:	f90013a3 	str	x3, [x29,#32]
    eaf8:	f9000fa4 	str	x4, [x29,#24]
/home/rex/devel/optee/optee_os/lib/libmpa/mpa_modulus.c:56
    eafc:	910123a0 	add	x0, x29, #0x48
    eb00:	f9400fa1 	ldr	x1, [x29,#24]
    eb04:	97fff1b0 	bl	b1c4 <mpa_alloc_static_temp_var>
/home/rex/devel/optee/optee_os/lib/libmpa/mpa_modulus.c:58
    eb08:	f94027a0 	ldr	x0, [x29,#72]
    eb0c:	f9400fa3 	ldr	x3, [x29,#24]
    eb10:	f94017a2 	ldr	x2, [x29,#40]
    eb14:	f9401ba1 	ldr	x1, [x29,#48]
    eb18:	97fff7dd 	bl	ca8c <mpa_add>
/home/rex/devel/optee/optee_os/lib/libmpa/mpa_modulus.c:59
    eb1c:	f94027a0 	ldr	x0, [x29,#72]
    eb20:	f9400fa4 	ldr	x4, [x29,#24]
    eb24:	f94013a3 	ldr	x3, [x29,#32]
    eb28:	aa0003e2 	mov	x2, x0
    eb2c:	f9401fa1 	ldr	x1, [x29,#56]
    eb30:	d2800000 	mov	x0, #0x0                   	// #0
    eb34:	97ffedd0 	bl	a274 <mpa_div>
/home/rex/devel/optee/optee_os/lib/libmpa/mpa_modulus.c:61
    eb38:	910123a0 	add	x0, x29, #0x48
    eb3c:	f9400fa1 	ldr	x1, [x29,#24]
    eb40:	97fff1ac 	bl	b1f0 <mpa_free_static_temp_var>
/home/rex/devel/optee/optee_os/lib/libmpa/mpa_modulus.c:62
    eb44:	d503201f 	nop
    eb48:	a8c57bfd 	ldp	x29, x30, [sp],#80
    eb4c:	d65f03c0 	ret

000000000000eb50 <mpa_sub_mod>:
mpa_sub_mod():
/home/rex/devel/optee/optee_os/lib/libmpa/mpa_modulus.c:72
    eb50:	a9bb7bfd 	stp	x29, x30, [sp,#-80]!
    eb54:	910003fd 	mov	x29, sp
    eb58:	f9001fa0 	str	x0, [x29,#56]
    eb5c:	f9001ba1 	str	x1, [x29,#48]
    eb60:	f90017a2 	str	x2, [x29,#40]
    eb64:	f90013a3 	str	x3, [x29,#32]
    eb68:	f9000fa4 	str	x4, [x29,#24]
/home/rex/devel/optee/optee_os/lib/libmpa/mpa_modulus.c:75
    eb6c:	910123a0 	add	x0, x29, #0x48
    eb70:	f9400fa1 	ldr	x1, [x29,#24]
    eb74:	97fff194 	bl	b1c4 <mpa_alloc_static_temp_var>
/home/rex/devel/optee/optee_os/lib/libmpa/mpa_modulus.c:77
    eb78:	f94027a0 	ldr	x0, [x29,#72]
    eb7c:	f9400fa3 	ldr	x3, [x29,#24]
    eb80:	f94017a2 	ldr	x2, [x29,#40]
    eb84:	f9401ba1 	ldr	x1, [x29,#48]
    eb88:	97fff870 	bl	cd48 <mpa_sub>
/home/rex/devel/optee/optee_os/lib/libmpa/mpa_modulus.c:78
    eb8c:	f94027a0 	ldr	x0, [x29,#72]
    eb90:	f9400fa4 	ldr	x4, [x29,#24]
    eb94:	f94013a3 	ldr	x3, [x29,#32]
    eb98:	aa0003e2 	mov	x2, x0
    eb9c:	f9401fa1 	ldr	x1, [x29,#56]
    eba0:	d2800000 	mov	x0, #0x0                   	// #0
    eba4:	97ffedb4 	bl	a274 <mpa_div>
/home/rex/devel/optee/optee_os/lib/libmpa/mpa_modulus.c:80
    eba8:	910123a0 	add	x0, x29, #0x48
    ebac:	f9400fa1 	ldr	x1, [x29,#24]
    ebb0:	97fff190 	bl	b1f0 <mpa_free_static_temp_var>
/home/rex/devel/optee/optee_os/lib/libmpa/mpa_modulus.c:81
    ebb4:	d503201f 	nop
    ebb8:	a8c57bfd 	ldp	x29, x30, [sp],#80
    ebbc:	d65f03c0 	ret

000000000000ebc0 <mpa_mul_mod>:
mpa_mul_mod():
/home/rex/devel/optee/optee_os/lib/libmpa/mpa_modulus.c:91
    ebc0:	a9bb7bfd 	stp	x29, x30, [sp,#-80]!
    ebc4:	910003fd 	mov	x29, sp
    ebc8:	f9001fa0 	str	x0, [x29,#56]
    ebcc:	f9001ba1 	str	x1, [x29,#48]
    ebd0:	f90017a2 	str	x2, [x29,#40]
    ebd4:	f90013a3 	str	x3, [x29,#32]
    ebd8:	f9000fa4 	str	x4, [x29,#24]
/home/rex/devel/optee/optee_os/lib/libmpa/mpa_modulus.c:94
    ebdc:	910123a0 	add	x0, x29, #0x48
    ebe0:	f9400fa1 	ldr	x1, [x29,#24]
    ebe4:	97fff178 	bl	b1c4 <mpa_alloc_static_temp_var>
/home/rex/devel/optee/optee_os/lib/libmpa/mpa_modulus.c:96
    ebe8:	f94027a0 	ldr	x0, [x29,#72]
    ebec:	f9400fa3 	ldr	x3, [x29,#24]
    ebf0:	f94017a2 	ldr	x2, [x29,#40]
    ebf4:	f9401ba1 	ldr	x1, [x29,#48]
    ebf8:	97fff2a4 	bl	b688 <mpa_mul>
/home/rex/devel/optee/optee_os/lib/libmpa/mpa_modulus.c:97
    ebfc:	f94027a0 	ldr	x0, [x29,#72]
    ec00:	f9400fa4 	ldr	x4, [x29,#24]
    ec04:	f94013a3 	ldr	x3, [x29,#32]
    ec08:	aa0003e2 	mov	x2, x0
    ec0c:	f9401fa1 	ldr	x1, [x29,#56]
    ec10:	d2800000 	mov	x0, #0x0                   	// #0
    ec14:	97ffed98 	bl	a274 <mpa_div>
/home/rex/devel/optee/optee_os/lib/libmpa/mpa_modulus.c:99
    ec18:	910123a0 	add	x0, x29, #0x48
    ec1c:	f9400fa1 	ldr	x1, [x29,#24]
    ec20:	97fff174 	bl	b1f0 <mpa_free_static_temp_var>
/home/rex/devel/optee/optee_os/lib/libmpa/mpa_modulus.c:100
    ec24:	d503201f 	nop
    ec28:	a8c57bfd 	ldp	x29, x30, [sp],#80
    ec2c:	d65f03c0 	ret

000000000000ec30 <mpa_inv_mod>:
mpa_inv_mod():
/home/rex/devel/optee/optee_os/lib/libmpa/mpa_modulus.c:109
    ec30:	a9bb7bfd 	stp	x29, x30, [sp,#-80]!
    ec34:	910003fd 	mov	x29, sp
    ec38:	f90017a0 	str	x0, [x29,#40]
    ec3c:	f90013a1 	str	x1, [x29,#32]
    ec40:	f9000fa2 	str	x2, [x29,#24]
    ec44:	f9000ba3 	str	x3, [x29,#16]
/home/rex/devel/optee/optee_os/lib/libmpa/mpa_modulus.c:115
    ec48:	52800021 	mov	w1, #0x1                   	// #1
    ec4c:	f94013a0 	ldr	x0, [x29,#32]
    ec50:	97fffab7 	bl	d72c <mpa_cmp_short>
    ec54:	7100001f 	cmp	w0, #0x0
    ec58:	540000c1 	b.ne	ec70 <mpa_inv_mod+0x40>
/home/rex/devel/optee/optee_os/lib/libmpa/mpa_modulus.c:116
    ec5c:	52800021 	mov	w1, #0x1                   	// #1
    ec60:	f94017a0 	ldr	x0, [x29,#40]
    ec64:	97ffe961 	bl	91e8 <mpa_set_S32>
/home/rex/devel/optee/optee_os/lib/libmpa/mpa_modulus.c:117
    ec68:	52800000 	mov	w0, #0x0                   	// #0
    ec6c:	1400003c 	b	ed5c <mpa_inv_mod+0x12c>
/home/rex/devel/optee/optee_os/lib/libmpa/mpa_modulus.c:120
    ec70:	f94017a1 	ldr	x1, [x29,#40]
    ec74:	f94013a0 	ldr	x0, [x29,#32]
    ec78:	eb00003f 	cmp	x1, x0
    ec7c:	1a9f17e0 	cset	w0, eq
    ec80:	12001c00 	and	w0, w0, #0xff
    ec84:	b9004fa0 	str	w0, [x29,#76]
/home/rex/devel/optee/optee_os/lib/libmpa/mpa_modulus.c:121
    ec88:	b9404fa0 	ldr	w0, [x29,#76]
    ec8c:	7100001f 	cmp	w0, #0x0
    ec90:	540000a0 	b.eq	eca4 <mpa_inv_mod+0x74>
/home/rex/devel/optee/optee_os/lib/libmpa/mpa_modulus.c:122
    ec94:	9100e3a0 	add	x0, x29, #0x38
    ec98:	f9400ba1 	ldr	x1, [x29,#16]
    ec9c:	97fff14a 	bl	b1c4 <mpa_alloc_static_temp_var>
    eca0:	14000003 	b	ecac <mpa_inv_mod+0x7c>
/home/rex/devel/optee/optee_os/lib/libmpa/mpa_modulus.c:124
    eca4:	f94017a0 	ldr	x0, [x29,#40]
    eca8:	f9001fa0 	str	x0, [x29,#56]
/home/rex/devel/optee/optee_os/lib/libmpa/mpa_modulus.c:126
    ecac:	910103a0 	add	x0, x29, #0x40
    ecb0:	f9400ba1 	ldr	x1, [x29,#16]
    ecb4:	97fff144 	bl	b1c4 <mpa_alloc_static_temp_var>
/home/rex/devel/optee/optee_os/lib/libmpa/mpa_modulus.c:128
    ecb8:	f94023a0 	ldr	x0, [x29,#64]
    ecbc:	f9401fa1 	ldr	x1, [x29,#56]
    ecc0:	f9400ba5 	ldr	x5, [x29,#16]
    ecc4:	f9400fa4 	ldr	x4, [x29,#24]
    ecc8:	f94013a3 	ldr	x3, [x29,#32]
    eccc:	d2800002 	mov	x2, #0x0                   	// #0
    ecd0:	97ffefd0 	bl	ac10 <mpa_extended_gcd>
/home/rex/devel/optee/optee_os/lib/libmpa/mpa_modulus.c:129
    ecd4:	f94023a0 	ldr	x0, [x29,#64]
    ecd8:	52800021 	mov	w1, #0x1                   	// #1
    ecdc:	97fffa94 	bl	d72c <mpa_cmp_short>
    ece0:	b9004ba0 	str	w0, [x29,#72]
/home/rex/devel/optee/optee_os/lib/libmpa/mpa_modulus.c:131
    ece4:	b9404fa0 	ldr	w0, [x29,#76]
    ece8:	7100001f 	cmp	w0, #0x0
    ecec:	54000100 	b.eq	ed0c <mpa_inv_mod+0xdc>
/home/rex/devel/optee/optee_os/lib/libmpa/mpa_modulus.c:132
    ecf0:	f9401fa0 	ldr	x0, [x29,#56]
    ecf4:	aa0003e1 	mov	x1, x0
    ecf8:	f94017a0 	ldr	x0, [x29,#40]
    ecfc:	97ffe5a7 	bl	8398 <mpa_copy>
/home/rex/devel/optee/optee_os/lib/libmpa/mpa_modulus.c:133
    ed00:	9100e3a0 	add	x0, x29, #0x38
    ed04:	f9400ba1 	ldr	x1, [x29,#16]
    ed08:	97fff13a 	bl	b1f0 <mpa_free_static_temp_var>
/home/rex/devel/optee/optee_os/lib/libmpa/mpa_modulus.c:136
    ed0c:	910103a0 	add	x0, x29, #0x40
    ed10:	f9400ba1 	ldr	x1, [x29,#16]
    ed14:	97fff137 	bl	b1f0 <mpa_free_static_temp_var>
/home/rex/devel/optee/optee_os/lib/libmpa/mpa_modulus.c:137
    ed18:	b9404ba0 	ldr	w0, [x29,#72]
    ed1c:	7100001f 	cmp	w0, #0x0
    ed20:	540001c1 	b.ne	ed58 <mpa_inv_mod+0x128>
/home/rex/devel/optee/optee_os/lib/libmpa/mpa_modulus.c:138
    ed24:	14000006 	b	ed3c <mpa_inv_mod+0x10c>
/home/rex/devel/optee/optee_os/lib/libmpa/mpa_modulus.c:139
    ed28:	f9400ba3 	ldr	x3, [x29,#16]
    ed2c:	f9400fa2 	ldr	x2, [x29,#24]
    ed30:	f94017a1 	ldr	x1, [x29,#40]
    ed34:	f94017a0 	ldr	x0, [x29,#40]
    ed38:	97fff755 	bl	ca8c <mpa_add>
/home/rex/devel/optee/optee_os/lib/libmpa/mpa_modulus.c:138
    ed3c:	52800001 	mov	w1, #0x0                   	// #0
    ed40:	f94017a0 	ldr	x0, [x29,#40]
    ed44:	97fffa7a 	bl	d72c <mpa_cmp_short>
    ed48:	7100001f 	cmp	w0, #0x0
    ed4c:	54fffeeb 	b.lt	ed28 <mpa_inv_mod+0xf8>
/home/rex/devel/optee/optee_os/lib/libmpa/mpa_modulus.c:140
    ed50:	52800000 	mov	w0, #0x0                   	// #0
    ed54:	14000002 	b	ed5c <mpa_inv_mod+0x12c>
/home/rex/devel/optee/optee_os/lib/libmpa/mpa_modulus.c:142
    ed58:	12800000 	mov	w0, #0xffffffff            	// #-1
/home/rex/devel/optee/optee_os/lib/libmpa/mpa_modulus.c:144 (discriminator 1)
    ed5c:	a8c57bfd 	ldp	x29, x30, [sp],#80
    ed60:	d65f03c0 	ret
