
cafe03b2-aa3c-4536-bbe4-fc78716d0505.elf:     file format elf64-littleaarch64
cafe03b2-aa3c-4536-bbe4-fc78716d0505.elf
architecture: aarch64, flags 0x00000150:
HAS_SYMS, DYNAMIC, D_PAGED
start address 0x0000000000000020

Program Header:
    LOAD off    0x0000000000010000 vaddr 0x0000000000000000 paddr 0x0000000000000000 align 2**16
         filesz 0x000000000000ee58 memsz 0x000000000000ee58 flags r-x
    LOAD off    0x000000000001ee58 vaddr 0x000000000000ee58 paddr 0x000000000000ee58 align 2**16
         filesz 0x00000000000021d4 memsz 0x00000000000021d4 flags r--
    LOAD off    0x0000000000022000 vaddr 0x0000000000012000 paddr 0x0000000000012000 align 2**16
         filesz 0x0000000000000134 memsz 0x000000000000ad58 flags rw-
 DYNAMIC off    0x0000000000020d50 vaddr 0x0000000000010d50 paddr 0x0000000000010d50 align 2**3
         filesz 0x0000000000000100 memsz 0x0000000000000100 flags rw-

Dynamic Section:
  HASH                 0x0000000000010fe8
  STRTAB               0x0000000000010f70
  SYMTAB               0x0000000000010e50
  STRSZ                0x0000000000000078
  SYMENT               0x0000000000000018
  DEBUG                0x0000000000000000
  RELA                 0x00000000000109b8
  RELASZ               0x0000000000000330
  RELAENT              0x0000000000000018
  FLAGS_1              0x0000000008000000
  RELACOUNT            0x0000000000000019
private flags = 0:

Sections:
Idx Name          Size      VMA               LMA               File off  Algn
  0 .ta_head      00000020  0000000000000000  0000000000000000  00010000  2**3
                  CONTENTS, ALLOC, LOAD, DATA
  1 .text         0000ee38  0000000000000020  0000000000000020  00010020  2**2
                  CONTENTS, ALLOC, LOAD, READONLY, CODE
  2 .rodata       00001b5c  000000000000ee58  000000000000ee58  0001ee58  2**3
                  CONTENTS, ALLOC, LOAD, READONLY, DATA
  3 .dynsym       00000120  0000000000010e50  0000000000010e50  00020e50  2**3
                  CONTENTS, ALLOC, LOAD, READONLY, DATA
  4 .rela.dyn     00000258  00000000000109b8  00000000000109b8  000209b8  2**3
                  CONTENTS, ALLOC, LOAD, READONLY, DATA
  5 .got          00000068  0000000000010c10  0000000000010c10  00020c10  2**3
                  CONTENTS, ALLOC, LOAD, DATA
  6 .rela.got     000000d8  0000000000010c78  0000000000010c78  00020c78  2**3
                  CONTENTS, ALLOC, LOAD, READONLY, DATA
  7 .dynamic      00000100  0000000000010d50  0000000000010d50  00020d50  2**3
                  CONTENTS, ALLOC, LOAD, DATA
  8 .dynstr       00000078  0000000000010f70  0000000000010f70  00020f70  2**0
                  CONTENTS, ALLOC, LOAD, READONLY, DATA
  9 .hash         00000044  0000000000010fe8  0000000000010fe8  00020fe8  2**3
                  CONTENTS, ALLOC, LOAD, READONLY, DATA
 10 .data         00000134  0000000000012000  0000000000012000  00022000  2**3
                  CONTENTS, ALLOC, LOAD, DATA
 11 .bss          0000ac20  0000000000012138  0000000000012138  00022134  2**3
                  ALLOC
 12 .debug_info   0000abb2  0000000000000000  0000000000000000  00022134  2**0
                  CONTENTS, READONLY, DEBUGGING
 13 .debug_abbrev 00002d58  0000000000000000  0000000000000000  0002cce6  2**0
                  CONTENTS, READONLY, DEBUGGING
 14 .debug_loc    000056f6  0000000000000000  0000000000000000  0002fa3e  2**0
                  CONTENTS, READONLY, DEBUGGING
 15 .debug_aranges 00000750  0000000000000000  0000000000000000  00035140  2**4
                  CONTENTS, READONLY, DEBUGGING
 16 .debug_line   00003cb0  0000000000000000  0000000000000000  00035890  2**0
                  CONTENTS, READONLY, DEBUGGING
 17 .debug_str    00002442  0000000000000000  0000000000000000  00039540  2**0
                  CONTENTS, READONLY, DEBUGGING
 18 .comment      0000002d  0000000000000000  0000000000000000  0003b982  2**0
                  CONTENTS, READONLY
 19 .debug_frame  000029b0  0000000000000000  0000000000000000  0003b9b0  2**3
                  CONTENTS, READONLY, DEBUGGING
SYMBOL TABLE:
0000000000000000 l    d  .ta_head	0000000000000000 .ta_head
0000000000000020 l    d  .text	0000000000000000 .text
000000000000ee58 l    d  .rodata	0000000000000000 .rodata
00000000000109b8 l    d  .rela.dyn	0000000000000000 .rela.dyn
0000000000010c10 l    d  .got	0000000000000000 .got
0000000000010c78 l    d  .rela.got	0000000000000000 .rela.got
0000000000010d50 l    d  .dynamic	0000000000000000 .dynamic
0000000000010e50 l    d  .dynsym	0000000000000000 .dynsym
0000000000010f70 l    d  .dynstr	0000000000000000 .dynstr
0000000000010fe8 l    d  .hash	0000000000000000 .hash
0000000000012000 l    d  .data	0000000000000000 .data
0000000000012138 l    d  .bss	0000000000000000 .bss
0000000000000000 l    d  .debug_info	0000000000000000 .debug_info
0000000000000000 l    d  .debug_abbrev	0000000000000000 .debug_abbrev
0000000000000000 l    d  .debug_loc	0000000000000000 .debug_loc
0000000000000000 l    d  .debug_aranges	0000000000000000 .debug_aranges
0000000000000000 l    d  .debug_line	0000000000000000 .debug_line
0000000000000000 l    d  .debug_str	0000000000000000 .debug_str
0000000000000000 l    d  .comment	0000000000000000 .comment
0000000000000000 l    d  .debug_frame	0000000000000000 .debug_frame
0000000000000000 l    df *ABS*	0000000000000000 user_ta_header.c
000000000000ef18 l     O .rodata	0000000000000001 __compound_literal.0
000000000000ef19 l     O .rodata	0000000000000001 __compound_literal.1
000000000000ef1a l     O .rodata	0000000000000001 __compound_literal.2
000000000000ef1c l     O .rodata	0000000000000004 __compound_literal.3
000000000000ef20 l     O .rodata	0000000000000004 __compound_literal.4
000000000000ef24 l     O .rodata	0000000000000004 __compound_literal.5
0000000000000000 l    df *ABS*	0000000000000000 boot_secure_os_ta.c
000000000000eea8 l     O .rodata	0000000000000014 __func__.3756
000000000000eec0 l     O .rodata	0000000000000015 __func__.3760
000000000000eed8 l     O .rodata	000000000000001a __func__.3770
0000000000000104 l     F .text	00000000000000d4 inc_value
000000000000eef8 l     O .rodata	000000000000000a __func__.3776
0000000000000000 l    df *ABS*	0000000000000000 user_ta_entry.c
0000000000000220 l     F .text	0000000000000008 __utee_gprof_init
0000000000000228 l     F .text	0000000000000008 __utee_gprof_fini
00000000000120e0 l     O .data	0000000000000010 ta_sessions
000000000001cd4c l     O .bss	0000000000000004 ta_ref_count
000000000001cd50 l     O .bss	0000000000000001 context_init
0000000000000230 l     F .text	0000000000000064 ta_header_save_params
0000000000000294 l     F .text	000000000000005c ta_header_get_session
00000000000002f0 l     F .text	0000000000000154 ta_header_add_session
0000000000000444 l     F .text	00000000000000f0 ta_header_remove_session
0000000000000534 l     F .text	00000000000000c8 entry_open_session
00000000000005fc l     F .text	000000000000004c entry_close_session
0000000000000648 l     F .text	00000000000000a0 entry_invoke_command
000000000000f050 l     O .rodata	000000000000000d __func__.4291
0000000000000000 l    df *ABS*	0000000000000000 utee_syscalls_a64.o
0000000000000000 l    df *ABS*	0000000000000000 gprof_a64.o
0000000000000000 l    df *ABS*	0000000000000000 tee_api_arith.c
000000000001a180 l     O .bss	0000000000001b40 mempool_u32
00000000000120f0 l     O .data	0000000000000008 mempool
0000000000000b10 l     F .text	0000000000000058 TEE_BigInt_Panic
000000000000f0d8 l     O .rodata	0000000000000011 __func__.4068
000000000000f0f0 l     O .rodata	0000000000000021 __func__.4104
000000000000f118 l     O .rodata	000000000000001f __func__.4113
000000000000f138 l     O .rodata	0000000000000017 __func__.4125
0000000000000000 l    df *ABS*	0000000000000000 tee_api.c
000000000000f150 l     O .rodata	0000000000000004 DEFAULT_TEE_MALLOC_HINT
000000000001bcc0 l     O .bss	0000000000000008 tee_api_instance_data
000000000000f168 l     O .rodata	0000000000000013 __func__.4259
000000000000f180 l     O .rodata	0000000000000014 __func__.4271
000000000000f198 l     O .rodata	0000000000000017 __func__.4282
000000000000f1b0 l     O .rodata	0000000000000015 __func__.4288
000000000000f1c8 l     O .rodata	0000000000000012 __func__.4321
000000000000f1e0 l     O .rodata	0000000000000009 __func__.4326
000000000000f1f0 l     O .rodata	0000000000000018 __func__.4331
000000000000f208 l     O .rodata	0000000000000018 __func__.4336
000000000000f220 l     O .rodata	000000000000000f __func__.4341
0000000000000000 l    df *ABS*	0000000000000000 tee_api_panic.c
0000000000000000 l    df *ABS*	0000000000000000 utee_misc.c
0000000000000000 l    df *ABS*	0000000000000000 tee_user_mem.c
000000000000f230 l     O .rodata	0000000000000004 DEFAULT_TEE_MALLOC_HINT
00000000000120f8 l     O .data	0000000000000008 ARTIST
000000000000f238 l     O .rodata	0000000000000008 CANARY_LINE_SIZE
0000000000002458 l     F .text	0000000000000018 buf_addr
0000000000002470 l     F .text	0000000000000024 buf_size
0000000000002494 l     F .text	0000000000000018 elem_addr
00000000000024ac l     F .text	0000000000000064 is_buffer_valid
0000000000002510 l     F .text	000000000000008c print_buf
000000000001bcc8 l     O .bss	0000000000000008 heap_level
000000000001bcd0 l     O .bss	0000000000000010 global_stats
000000000000259c l     F .text	0000000000000070 heap_inc
000000000000260c l     F .text	0000000000000070 heap_dec
000000000000267c l     F .text	0000000000000088 check_elem_end
000000000000f370 l     O .rodata	000000000000000f __func__.3875
0000000000002704 l     F .text	000000000000015c check_elem
000000000000f380 l     O .rodata	000000000000000b __func__.3880
0000000000002860 l     F .text	0000000000000078 is_mem_coherent
000000000000f390 l     O .rodata	0000000000000010 __func__.3885
000000000000f3a0 l     O .rodata	0000000000000013 __func__.3900
000000000000f3b8 l     O .rodata	0000000000000012 __func__.3917
000000000000f3d0 l     O .rodata	0000000000000018 __func__.3925
0000000000002de8 l     F .text	0000000000000090 tee_user_mem_status
000000000000f3e8 l     O .rodata	0000000000000014 __func__.3930
0000000000000000 l    df *ABS*	0000000000000000 trace_ext.c
000000000000f400 l     O .rodata	000000000000000a prefix.3608
000000000000f410 l     O .rodata	0000000000000011 failed.3609
000000000000f428 l     O .rodata	0000000000000005 trunc.3610
0000000000000000 l    df *ABS*	0000000000000000 assert.c
0000000000000000 l    df *ABS*	0000000000000000 bget_malloc.c
0000000000003160 l     F .text	0000000000000008 malloc_lock
0000000000003168 l     F .text	0000000000000014 malloc_unlock
000000000000317c l     F .text	0000000000000018 tag_asan_free
0000000000003194 l     F .text	0000000000000018 tag_asan_alloced
0000000000012110 l     O .data	0000000000000020 freelist
000000000001bce0 l     O .bss	0000000000000008 totalloc
000000000001bce8 l     O .bss	0000000000000008 numget
000000000001bcf0 l     O .bss	0000000000000008 numrel
000000000000f8b0 l     O .rodata	0000000000000005 __func__.3289
000000000000f8b8 l     O .rodata	0000000000000006 __func__.3303
000000000000f8c0 l     O .rodata	0000000000000006 __func__.3311
000000000000f8c8 l     O .rodata	0000000000000005 __func__.3318
000000000000f8d0 l     O .rodata	0000000000000006 __func__.3326
000000000000f8d8 l     O .rodata	0000000000000007 __func__.3335
000000000001bcf8 l     O .bss	0000000000000008 malloc_pool
000000000001bd00 l     O .bss	0000000000000008 malloc_pool_len
000000000001bd08 l     O .bss	0000000000000038 mstats
0000000000003e34 l     F .text	00000000000000cc raw_malloc_return_hook
0000000000003fac l     F .text	0000000000000008 raw_malloc_validate_pools
0000000000003fb4 l     F .text	0000000000000034 bpool_foreach_iterator_init
0000000000003fe8 l     F .text	0000000000000138 bpool_foreach_pool
000000000000f8e0 l     O .rodata	0000000000000013 __func__.3374
0000000000004120 l     F .text	00000000000000c4 bpool_foreach
00000000000041e4 l     F .text	000000000000008c raw_malloc
0000000000004270 l     F .text	0000000000000030 raw_free
00000000000042a0 l     F .text	00000000000000a8 raw_calloc
0000000000004348 l     F .text	0000000000000094 raw_realloc
00000000000043dc l     F .text	00000000000001c4 create_free_block
000000000000f8f8 l     O .rodata	0000000000000012 __func__.3421
00000000000045a0 l     F .text	00000000000001e8 brel_before
000000000000f910 l     O .rodata	000000000000000c __func__.3430
0000000000004788 l     F .text	0000000000000314 brel_after
000000000000f920 l     O .rodata	000000000000000b __func__.3440
0000000000004a9c l     F .text	0000000000000200 raw_memalign
000000000000f930 l     O .rodata	000000000000000d __func__.3454
0000000000004c9c l     F .text	0000000000000074 bget_buf_size
000000000000f940 l     O .rodata	000000000000000e __func__.3460
0000000000004dc0 l     F .text	000000000000002c realloc_unlocked
0000000000004e6c l     F .text	0000000000000030 get_payload_start_size
000000000000f950 l     O .rodata	0000000000000010 __func__.3506
0000000000000000 l    df *ABS*	0000000000000000 snprintf.c
0000000000000000 l    df *ABS*	0000000000000000 memcmp.c
0000000000000000 l    df *ABS*	0000000000000000 memcpy.c
0000000000000000 l    df *ABS*	0000000000000000 memmove.c
0000000000000000 l    df *ABS*	0000000000000000 memset.c
0000000000000000 l    df *ABS*	0000000000000000 strlen.c
0000000000000000 l    df *ABS*	0000000000000000 snprintk.c
000000000000f960 l     O .rodata	0000000000000011 hexdigits
000000000000f978 l     O .rodata	0000000000000011 HEXDIGITS
0000000000005df8 l     F .text	0000000000001e90 kprintf
0000000000005d08 l     F .text	00000000000000f0 uuid2str
0000000000000000 l    df *ABS*	0000000000000000 strlcpy.c
0000000000000000 l    df *ABS*	0000000000000000 trace.c
0000000000007da0 l     F .text	0000000000000074 trace_level_to_string
000000000000fb90 l     O .rodata	000000000000002d lvl_strs.3167
0000000000000000 l    df *ABS*	0000000000000000 memchr.c
0000000000000000 l    df *ABS*	0000000000000000 mpa_misc.c
0000000000000000 l    df *ABS*	0000000000000000 mpa_montgomery.c
0000000000000000 l    df *ABS*	0000000000000000 mpa_primetest.c
0000000000010830 l     O .rodata	00000000000000b8 const_small_prime_factors
00000000000108e8 l     O .rodata	0000000000000010 const_miller_rabin_proof_limit
00000000000108f8 l     O .rodata	000000000000000c const_two
0000000000008e28 l     F .text	00000000000000d4 is_small_prime
0000000000008efc l     F .text	0000000000000070 has_small_factors
0000000000008f6c l     F .text	0000000000000370 primality_test_miller_rabin
0000000000008df0 l     F .text	0000000000000038 check_table
0000000000010908 l     O .rodata	000000000000001c proof_a.3548
0000000000000000 l    df *ABS*	0000000000000000 mpa_conv.c
0000000000000000 l    df *ABS*	0000000000000000 mpa_div.c
00000000000094ac l     F .text	00000000000000cc __mpa_soft_div
00000000000095bc l     F .text	00000000000009bc __mpa_div_q_r_internal
0000000000000000 l    df *ABS*	0000000000000000 mpa_gcd.c
000000000000a4b0 l     F .text	0000000000000180 __mpa_divby2
000000000000a630 l     F .text	000000000000039c __mpa_egcd
000000000000a9cc l     F .text	00000000000001b0 __mpa_gcd
0000000000000000 l    df *ABS*	0000000000000000 mpa_mem_static.c
0000000000000000 l    df *ABS*	0000000000000000 mpa_mul.c
0000000000000000 l    df *ABS*	0000000000000000 mpa_random.c
000000000001bd40 l     O .bss	0000000000000008 get_rng_array
000000000000b9d0 l     F .text	0000000000000038 get_random_byte
0000000000000000 l    df *ABS*	0000000000000000 mpa_shift.c
0000000000000000 l    df *ABS*	0000000000000000 mpa_addsub.c
0000000000000000 l    df *ABS*	0000000000000000 mpa_cmp.c
0000000000000000 l    df *ABS*	0000000000000000 mpa_expmod.c
0000000000000000 l    df *ABS*	0000000000000000 mpa_init.c
0000000000000000 l    df *ABS*	0000000000000000 mpa_io.c
000000000000dcbc l     F .text	0000000000000058 __mpa_isspace
000000000000dd14 l     F .text	00000000000000d0 __mpa_is_char_in_base
000000000000dde4 l     F .text	0000000000000080 __mpa_digit_value
000000000000de64 l     F .text	000000000000001c __mpa_digitstr_to_binary_wsize_base_16
000000000000de80 l     F .text	0000000000000070 __mpa_nibble_to_char
000000000000def0 l     F .text	0000000000000084 __mpa_word_to_hexstr
000000000000df74 l     F .text	00000000000001b4 __mpa_mpanum_to_hexstr
000000000000e128 l     F .text	0000000000000064 __mpa_count_leading_zero_bits
000000000000e18c l     F .text	000000000000008c __mpa_size_in_base_255
0000000000010998 l     O .rodata	000000000000000c __func__.3622
000000000001bd48 l     O .bss	0000000000001002 buf.3608
00000000000109a8 l     O .rodata	000000000000000c __func__.3636
000000000000e780 l     F .text	0000000000000084 set_word
000000000000e97c l     F .text	0000000000000060 get_word
0000000000000000 l    df *ABS*	0000000000000000 mpa_modulus.c
0000000000000000 l    df *ABS*	0000000000000000 
0000000000010d50 l     O *ABS*	0000000000000000 _DYNAMIC
0000000000010c28 l     O *ABS*	0000000000000000 _GLOBAL_OFFSET_TABLE_
0000000000000adc g     F .text	000000000000000c utee_se_channel_transmit
0000000000000b00 g     F .text	000000000000000c utee_boot
000000000000db78 g     F .text	0000000000000060 mpa_init_static
000000000000848c g     F .text	0000000000000074 mpa_copy
0000000000001768 g     F .text	000000000000007c TEE_BigIntConvertToFMM
0000000000001538 g     F .text	0000000000000034 TEE_BigIntSquareMod
0000000000000f60 g     F .text	0000000000000044 TEE_BigIntShiftRight
0000000000009344 g     F .text	00000000000000e8 mpa_get_S32
000000000000854c g     F .text	00000000000000b8 mpa_highest_bit_index
00000000000009a4 g     F .text	000000000000000c utee_storage_obj_create
0000000000000ab8 g     F .text	000000000000000c utee_se_session_close
00000000000007ac g     F .text	000000000000000c utee_return
0000000000000a58 g     F .text	000000000000000c utee_se_service_get_readers
00000000000022c0 g     F .text	0000000000000028 TEE_Realloc
0000000000009f78 g     F .text	00000000000001e4 __mpa_div_q_r_internal_word
0000000000002aa8 g     F .text	0000000000000110 tee_user_mem_realloc
000000000000ce3c g     F .text	00000000000002f8 mpa_sub
0000000000002ef4 g     F .text	00000000000001d0 printf
0000000000002bb8 g     F .text	0000000000000198 tee_user_mem_free
00000000000007b8 g     F .text	000000000000000c utee_log
000000000000fbf4 g     O .rodata	0000000000000004 NR_STORED_PRIMES
0000000000001cec g     F .text	00000000000000f4 TEE_InvokeTACommand
0000000000008698 g     F .text	0000000000000038 mpa_can_hold
000000000000b4c4 g     F .text	0000000000000118 __mpa_abs_mul_word
0000000000008d10 g     F .text	000000000000006c mpa_montgomery_mul
0000000000005bcc g     F .text	0000000000000064 vsnprintk
00000000000086d0 g     F .text	0000000000000028 mpa_parity
0000000000005668 g     F .text	000000000000020c memmove
000000000000c63c g     F .text	0000000000000068 __mpa_full_adder_ackum
00000000000052a0 g     F .text	00000000000000bc snprintf
0000000000000f34 g     F .text	000000000000002c TEE_BigIntCmpS32
0000000000001004 g     F .text	0000000000000058 TEE_BigIntAdd
00000000000007dc g     F .text	000000000000000c utee_get_property_name_to_index
000000000000ef10 g     O .rodata	0000000000000008 ta_heap_size
000000000000fbf0 g     O .rodata	0000000000000004 MAX_TABULATED_PRIME
00000000000023b0 g     F .text	000000000000001c utee_malloc
0000000000000860 g     F .text	000000000000000c utee_cryp_state_alloc
0000000000000968 g     F .text	000000000000000c utee_authenc_enc_final
000000000000b450 g     F .text	0000000000000074 __mpa_mul_add_word_cum
00000000000010b4 g     F .text	0000000000000038 TEE_BigIntNeg
000000000000a368 g     F .text	0000000000000148 mpa_div
0000000000000020 g       .text	0000000000000000 __text_start
000000000000fbe0 g     O .rodata	000000000000000c const_one
0000000000005188 g     F .text	0000000000000118 malloc_buffer_overlaps_heap
000000000000d718 g     F .text	000000000000002c __mpa_abs_less_than
0000000000001380 g     F .text	00000000000000bc TEE_BigIntSubMod
000000000000ba08 g     F .text	00000000000001d4 mpa_get_random
0000000000002434 g     F .text	0000000000000024 get_rng_array
0000000000007e14 g     F .text	00000000000003ec trace_printf
0000000000000a40 g     F .text	000000000000000c utee_se_service_open
00000000000054e8 g     F .text	0000000000000180 memcpy
0000000000000878 g     F .text	000000000000000c utee_cryp_state_free
0000000000008444 g     F .text	0000000000000048 mpa_wipe
00000000000017e4 g     F .text	00000000000000c0 TEE_BigIntConvertFromFMM
0000000000002394 g     F .text	0000000000000014 TEE_Panic
0000000000000ad0 g     F .text	000000000000000c utee_se_channel_get_select_resp
00000000000030c4 g     F .text	000000000000002c puts
00000000000018a4 g     F .text	0000000000000080 TEE_BigIntComputeFMM
000000000000942c g     F .text	0000000000000040 mpa_set_word
0000000000003f54 g     F .text	0000000000000058 malloc_get_stats
000000000000bedc g     F .text	0000000000000388 mpa_shift_left
00000000000008c0 g     F .text	000000000000000c utee_cipher_final
000000000000b77c g     F .text	0000000000000130 mpa_mul
0000000000002238 g     F .text	0000000000000064 TEE_GetREETime
0000000000012000 g     O .data	00000000000000d8 ta_props
0000000000004d10 g     F .text	000000000000003c malloc
00000000000008fc g     F .text	000000000000000c utee_cryp_obj_close
0000000000000a7c g     F .text	000000000000000c utee_se_reader_open_session
000000000000535c g     F .text	0000000000000064 vsnprintf
0000000000012130 g     O .data	0000000000000004 trace_level
00000000000023a8 g     F .text	0000000000000008 utee_get_ta_exec_id
0000000000000f00 g     F .text	0000000000000034 TEE_BigIntCmp
00000000000023cc g     F .text	0000000000000024 utee_realloc
000000000000f038 g     O .rodata	0000000000000008 ta_num_props
00000000000035f4 g     F .text	00000000000000e8 bgetr
000000000000095c g     F .text	000000000000000c utee_authenc_update_payload
0000000000000d7c g     F .text	00000000000000c0 TEE_BigIntConvertToOctetString
0000000000000af4 g     F .text	000000000000000c utee_cache_operation
0000000000000944 g     F .text	000000000000000c utee_authenc_init
0000000000000fa4 g     F .text	0000000000000038 TEE_BigIntGetBit
000000000000ef08 g     O .rodata	0000000000000008 trace_ext_prefix
000000000000c6a4 g     F .text	00000000000001e4 __mpa_abs_add
0000000000003520 g     F .text	00000000000000d4 bgetz
0000000000001f74 g     F .text	0000000000000010 TEE_GetInstanceData
000000000000207c g     F .text	0000000000000070 TEE_Wait
0000000000000a10 g     F .text	000000000000000c utee_storage_obj_write
000000000000b2e4 g     F .text	0000000000000108 mpa_free_static_temp_var
0000000000008d7c g     F .text	0000000000000074 mpa_is_prob_prime
0000000000000ae8 g     F .text	000000000000000c utee_se_channel_close
000000000000b8ac g     F .text	0000000000000100 mpa_mul_word
0000000000002330 g     F .text	0000000000000028 TEE_CacheFlush
0000000000000058 g     F .text	0000000000000038 TA_DestroyEntryPoint
00000000000030f0 g     F .text	0000000000000060 _assert_log
0000000000000ca4 g     F .text	0000000000000024 TEE_BigIntFMMContextSizeInU32
000000000000a15c g     F .text	000000000000020c __mpa_div_q_r
0000000000000b68 g     F .text	0000000000000038 _TEE_MathAPI_Init
00000000000009f8 g     F .text	000000000000000c utee_storage_next_enum
0000000000012138 g     O .bss	0000000000008000 ta_heap
000000000000156c g     F .text	000000000000008c TEE_BigIntInvMod
00000000000000c8 g     F .text	000000000000003c TA_CloseSessionEntryPoint
000000000000086c g     F .text	000000000000000c utee_cryp_state_copy
00000000000001d8 g     F .text	0000000000000040 TA_InvokeCommandEntryPoint
000000000000e804 g     F .text	0000000000000178 mpa_set_oct_str
0000000000000aac g     F .text	000000000000000c utee_se_session_open_channel
000000000000bc7c g     F .text	0000000000000130 __mpa_shift_words_left
00000000000008f0 g     F .text	000000000000000c utee_cryp_obj_alloc
0000000000000854 g     F .text	000000000000000c utee_set_ta_time
00000000000008e4 g     F .text	000000000000000c utee_cryp_obj_get_attr
000000000000884c g     F .text	0000000000000158 __mpa_montgomery_sub_ack
0000000000004d7c g     F .text	0000000000000044 calloc
000000000000229c g     F .text	0000000000000024 TEE_Malloc
0000000000000830 g     F .text	000000000000000c utee_mask_cancellation
0000000000000908 g     F .text	000000000000000c utee_cryp_obj_reset
0000000000001eec g     F .text	0000000000000064 TEE_CheckMemoryAccessRights
000000000001cd58 g       .bss	0000000000000000 __gprof_buf_end
000000000000d134 g     F .text	000000000000003c mpa_neg
000000000000fbf8 g     O .rodata	0000000000000c38 PRIME_TABLE
0000000000000090 g     F .text	0000000000000038 TA_OpenSessionEntryPoint
000000000000ab7c g     F .text	0000000000000188 mpa_gcd
0000000000008500 g     F .text	000000000000004c mpa_abs
00000000000009ec g     F .text	000000000000000c utee_storage_start_enum
000000000000e220 g     F .text	0000000000000494 mpa_set_str
00000000000009bc g     F .text	000000000000000c utee_storage_obj_rename
000000000001a138 g     O .bss	0000000000000004 ta_param_types
0000000000001704 g     F .text	0000000000000064 TEE_BigIntIsProbablePrime
000000000000b2b8 g     F .text	000000000000002c mpa_alloc_static_temp_var
000000000000b9ac g     F .text	0000000000000024 mpa_set_random_generator
00000000000007d0 g     F .text	000000000000000c utee_get_property
0000000000000ba0 g     F .text	0000000000000028 TEE_BigIntInit
0000000000001f84 g     F .text	0000000000000030 TEE_MemMove
0000000000000cc8 g     F .text	00000000000000b4 TEE_BigIntConvertFromOctetString
00000000000120d8 g     O .data	0000000000000008 _ref__utee_mcount
0000000000008224 g     F .text	00000000000001b8 memchr
0000000000001e1c g     F .text	0000000000000068 TEE_UnmaskCancellation
000000000000ecb4 g     F .text	0000000000000070 mpa_mul_mod
00000000000009b0 g     F .text	000000000000000c utee_storage_obj_del
0000000000000a28 g     F .text	000000000000000c utee_storage_obj_seek
0000000000008b84 g     F .text	000000000000018c mpa_compute_fmm_context
0000000000000890 g     F .text	000000000000000c utee_hash_update
000000000000b014 g     F .text	0000000000000074 mpa_init_scratch_mem_sync
0000000000000b0c  w    F .text	0000000000000004 __utee_mcount
0000000000001218 g     F .text	00000000000000ac TEE_BigIntMod
0000000000000ac4 g     F .text	000000000000000c utee_se_channel_select_next
00000000000007f4 g     F .text	000000000000000c utee_close_ta_session
0000000000001190 g     F .text	0000000000000088 TEE_BigIntDiv
0000000000007c88 g     F .text	00000000000000b8 strlcpy
0000000000003f00 g     F .text	0000000000000054 malloc_reset_stats
00000000000008b4 g     F .text	000000000000000c utee_cipher_update
0000000000000aa0 g     F .text	000000000000000c utee_se_session_get_atr
0000000000004dec g     F .text	000000000000003c realloc
000000000000c888 g     F .text	0000000000000160 __mpa_abs_add_ackum
000000000000098c g     F .text	000000000000000c utee_asymm_verify
00000000000010ec g     F .text	0000000000000058 TEE_BigIntMul
000000000000946c g     F .text	0000000000000040 mpa_get_word
0000000000001fe4 g     F .text	0000000000000034 TEE_MemFill
00000000000053c0 g     F .text	0000000000000128 memcmp
0000000000004e9c g     F .text	0000000000000218 malloc_add_pool
0000000000007d90 g     F .text	0000000000000010 trace_get_level
0000000000000938 g     F .text	000000000000000c utee_cryp_random_number_generate
0000000000000c84 g     F .text	0000000000000020 TEE_BigIntFMMSizeInU32
0000000000000bc8 g     F .text	0000000000000050 TEE_BigIntInitFMM
0000000000000980 g     F .text	000000000000000c utee_asymm_operate
00000000000006e8 g     F .text	00000000000000c4 __utee_entry
000000000000ee58 g       .text	0000000000000000 __text_end
00000000000015f8 g     F .text	0000000000000094 TEE_BigIntRelativePrime
000000000000bbdc g     F .text	00000000000000a0 mpa_get_random_digits
0000000000003b88 g     F .text	0000000000000184 bpool
00000000000092dc g     F .text	0000000000000068 mpa_set_S32
000000000000dbd8 g     F .text	00000000000000e4 mpa_init_static_fmm_context
0000000000001de0 g     F .text	000000000000003c TEE_GetCancellationFlag
0000000000000a4c g     F .text	000000000000000c utee_se_service_close
00000000000028d8 g     F .text	00000000000001d0 tee_user_mem_alloc
0000000000012100 g     O .data	0000000000000010 user_mem_head
00000000000021b8 g     F .text	0000000000000080 TEE_SetTAPersistentTime
000000000000d170 g     F .text	00000000000001f8 mpa_add_word
0000000000000a64 g     F .text	000000000000000c utee_se_reader_get_prop
0000000000005874 g     F .text	00000000000001cc memset
00000000000020ec g     F .text	00000000000000cc TEE_GetTAPersistentTime
0000000000008200 g     F .text	0000000000000024 dhex_dump
0000000000001e84 g     F .text	0000000000000068 TEE_MaskCancellation
000000000000c5d8 g     F .text	0000000000000064 __mpa_full_sub
0000000000000a04 g     F .text	000000000000000c utee_storage_obj_read
00000000000023f0 g     F .text	0000000000000024 utee_calloc
0000000000000914 g     F .text	000000000000000c utee_cryp_obj_populate
000000000000d744 g     F .text	00000000000000dc mpa_cmp
000000000000ed24 g     F .text	0000000000000134 mpa_inv_mod
000000000000d368 g     F .text	0000000000000200 mpa_sub_word
000000000000b3ec g     F .text	0000000000000064 __mpa_mul_add_word
000000000000cb80 g     F .text	00000000000002bc mpa_add
000000000000d928 g     F .text	0000000000000250 mpa_exp_mod
000000000000bdac g     F .text	0000000000000130 __mpa_shift_words_right
0000000000007d40 g     F .text	0000000000000050 trace_set_level
0000000000000a94 g     F .text	000000000000000c utee_se_session_is_closed
00000000000008cc g     F .text	000000000000000c utee_cryp_obj_get_info
00000000000009c8 g     F .text	000000000000000c utee_storage_alloc_enum
00000000000009e0 g     F .text	000000000000000c utee_storage_reset_enum
0000000000000a1c g     F .text	000000000000000c utee_storage_obj_trunc
000000000000eb98 g     F .text	000000000000003c mpa_mod
000000000000d6e8 g     F .text	0000000000000030 __mpa_abs_greater_than
0000000000000e6c g     F .text	0000000000000094 TEE_BigIntConvertToS32
000000000000105c g     F .text	0000000000000058 TEE_BigIntSub
000000000000080c g     F .text	000000000000000c utee_get_cancellation_flag
0000000000000884 g     F .text	000000000000000c utee_hash_init
0000000000000218 g     F .text	0000000000000008 tahead_get_trace_level
0000000000001924 g     F .text	0000000000000184 __utee_from_param
000000000000fbd0 g     O .rodata	0000000000000010 Const_1_LShift_Base
0000000000001aa8 g     F .text	000000000000013c __utee_to_param
0000000000004e28 g     F .text	0000000000000044 memalign
0000000000000e3c g     F .text	0000000000000030 TEE_BigIntConvertFromS32
000000000000ec44 g     F .text	0000000000000070 mpa_sub_mod
00000000000008d8 g     F .text	000000000000000c utee_cryp_obj_restrict_usage
00000000000050b4 g     F .text	00000000000000d4 malloc_buffer_is_within_alloced
0000000000000920 g     F .text	000000000000000c utee_cryp_obj_copy
000000000000c264 g     F .text	0000000000000310 mpa_shift_right
0000000000000c18 g     F .text	000000000000006c TEE_BigIntInitFMMContext
000000000000092c g     F .text	000000000000000c utee_cryp_derive_key
00000000000089a4 g     F .text	00000000000001e0 __mpa_montgomery_mul
000000000000e9dc g     F .text	00000000000001bc mpa_get_oct_str
000000000000d820 g     F .text	0000000000000108 mpa_cmp_short
0000000000000974 g     F .text	000000000000000c utee_authenc_dec_final
000000000000d568 g     F .text	0000000000000180 __mpa_abs_cmp
0000000000001144 g     F .text	000000000000004c TEE_BigIntSquare
0000000000000020 g     F .text	0000000000000038 TA_CreateEntryPoint
0000000000005b14 g     F .text	00000000000000b8 snprintk
0000000000000fdc g     F .text	0000000000000028 TEE_BigIntGetBitCount
000000000000143c g     F .text	00000000000000fc TEE_BigIntMulMod
0000000000002380 g     F .text	0000000000000014 __TEE_Panic
000000000001a140 g     O .bss	0000000000000040 ta_params
000000000000b5dc g     F .text	00000000000001a0 __mpa_abs_mul
00000000000031ac g     F .text	0000000000000374 bget
00000000000022e8 g     F .text	0000000000000020 TEE_Free
0000000000000a70 g     F .text	000000000000000c utee_se_reader_get_name
0000000000002358 g     F .text	0000000000000028 TEE_CacheInvalidate
00000000000008a8 g     F .text	000000000000000c utee_cipher_init
0000000000003150 g     F .text	0000000000000010 _assert_break
00000000000012c4 g     F .text	00000000000000bc TEE_BigIntAddMod
00000000000009d4 g     F .text	000000000000000c utee_storage_free_enum
0000000000000950 g     F .text	000000000000000c utee_authenc_update_aad
0000000000008604 g     F .text	0000000000000094 mpa_get_bit
000000000000b088 g     F .text	000000000000003c mpa_init_scratch_mem
0000000000001fb4 g     F .text	0000000000000030 TEE_MemCompare
0000000000005c30 g     F .text	00000000000000d8 __vsnprintf
0000000000001be4 g     F .text	000000000000009c TEE_OpenTASession
00000000000007c4 g     F .text	000000000000000c utee_panic
0000000000002ec0 g     F .text	000000000000002c trace_ext_puts
0000000000002e78 g     F .text	0000000000000048 tee_user_mem_garbage
0000000000002eec g     F .text	0000000000000008 trace_ext_get_thread_id
0000000000002308 g     F .text	0000000000000028 TEE_CacheClean
00000000000007e8 g     F .text	000000000000000c utee_open_ta_session
0000000000009578 g     F .text	0000000000000044 __mpa_div_dword
00000000000083dc g     F .text	0000000000000068 __mpa_set_unused_digits_to_zero
000000000000fbc0 g     O .rodata	000000000000000c const_largest_deci_base
000000000000e218 g     F .text	0000000000000008 mpa_get_str_size
0000000000002d64 g     F .text	0000000000000084 tee_user_mem_check_heap
000000000000089c g     F .text	000000000000000c utee_hash_final
0000000000005a40 g     F .text	00000000000000d4 strlen
000000000000168c g     F .text	0000000000000078 TEE_BigIntComputeExtendedGcd
000000000000ad04 g     F .text	0000000000000310 mpa_extended_gcd
000000000000ebd4 g     F .text	0000000000000070 mpa_add_mod
0000000000000998 g     F .text	000000000000000c utee_storage_obj_open
0000000000000800 g     F .text	000000000000000c utee_invoke_ta_command
000000000000e6b4 g     F .text	00000000000000cc mpa_get_str
000000000000083c g     F .text	000000000000000c utee_wait
0000000000002414 g     F .text	0000000000000020 utee_free
0000000000002d50 g     F .text	0000000000000014 tee_user_mem_mark_heap
0000000000002018 g     F .text	0000000000000064 TEE_GetSystemTime
0000000000000000 g     O .ta_head	0000000000000020 ta_head
00000000000036dc g     F .text	00000000000004ac brel
000000000000b0c4 g     F .text	00000000000001f4 mpa_alloc_static_temp_var_size
0000000000000848 g     F .text	000000000000000c utee_get_time
0000000000008704 g     F .text	0000000000000148 __mpa_montgomery_mul_add
0000000000001f50 g     F .text	0000000000000024 TEE_SetInstanceData
0000000000000824 g     F .text	000000000000000c utee_unmask_cancellation
0000000000000818 g     F .text	000000000000000c utee_check_access_rights
0000000000000a88 g     F .text	000000000000000c utee_se_reader_close_sessions
0000000000000a34 g     F .text	000000000000000c utee_cryp_obj_generate_key
0000000000001c80 g     F .text	000000000000006c TEE_CloseTASession
00000000000086f8 g     F .text	000000000000000c mpa_constant_one
000000000000c574 g     F .text	0000000000000064 __mpa_full_adder
000000000000c9e8 g     F .text	0000000000000198 __mpa_abs_sub
000000000001cd58 g       .bss	0000000000000000 __gprof_buf_start
0000000000004d4c g     F .text	0000000000000030 free
0000000000003d0c g     F .text	0000000000000128 bstats



Disassembly of section .text:

0000000000000020 <TA_CreateEntryPoint>:
TA_CreateEntryPoint():
/home/rex/devel/optee/boot_secure_os/ta/boot_secure_os_ta.c:40
      20:	a9bf7bfd 	stp	x29, x30, [sp,#-16]!
      24:	910003fd 	mov	x29, sp
/home/rex/devel/optee/boot_secure_os/ta/boot_secure_os_ta.c:41
      28:	d0000060 	adrp	x0, e000 <__mpa_mpanum_to_hexstr+0x8c>
      2c:	91396001 	add	x1, x0, #0xe58
      30:	d0000060 	adrp	x0, e000 <__mpa_mpanum_to_hexstr+0x8c>
      34:	913aa000 	add	x0, x0, #0xea8
      38:	aa0103e4 	mov	x4, x1
      3c:	52800023 	mov	w3, #0x1                   	// #1
      40:	52800062 	mov	w2, #0x3                   	// #3
      44:	52800521 	mov	w1, #0x29                  	// #41
      48:	94001f73 	bl	7e14 <trace_printf>
/home/rex/devel/optee/boot_secure_os/ta/boot_secure_os_ta.c:42
      4c:	52800000 	mov	w0, #0x0                   	// #0
/home/rex/devel/optee/boot_secure_os/ta/boot_secure_os_ta.c:43
      50:	a8c17bfd 	ldp	x29, x30, [sp],#16
      54:	d65f03c0 	ret

0000000000000058 <TA_DestroyEntryPoint>:
TA_DestroyEntryPoint():
/home/rex/devel/optee/boot_secure_os/ta/boot_secure_os_ta.c:50
      58:	a9bf7bfd 	stp	x29, x30, [sp,#-16]!
      5c:	910003fd 	mov	x29, sp
/home/rex/devel/optee/boot_secure_os/ta/boot_secure_os_ta.c:51
      60:	d0000060 	adrp	x0, e000 <__mpa_mpanum_to_hexstr+0x8c>
      64:	91396001 	add	x1, x0, #0xe58
      68:	d0000060 	adrp	x0, e000 <__mpa_mpanum_to_hexstr+0x8c>
      6c:	913b0000 	add	x0, x0, #0xec0
      70:	aa0103e4 	mov	x4, x1
      74:	52800023 	mov	w3, #0x1                   	// #1
      78:	52800062 	mov	w2, #0x3                   	// #3
      7c:	52800661 	mov	w1, #0x33                  	// #51
      80:	94001f65 	bl	7e14 <trace_printf>
/home/rex/devel/optee/boot_secure_os/ta/boot_secure_os_ta.c:52
      84:	d503201f 	nop
      88:	a8c17bfd 	ldp	x29, x30, [sp],#16
      8c:	d65f03c0 	ret

0000000000000090 <TA_OpenSessionEntryPoint>:
TA_OpenSessionEntryPoint():
/home/rex/devel/optee/boot_secure_os/ta/boot_secure_os_ta.c:63
      90:	d100c3ff 	sub	sp, sp, #0x30
      94:	b9001fe0 	str	w0, [sp,#28]
      98:	f9000be1 	str	x1, [sp,#16]
      9c:	f90007e2 	str	x2, [sp,#8]
/home/rex/devel/optee/boot_secure_os/ta/boot_secure_os_ta.c:64
      a0:	b9002fff 	str	wzr, [sp,#44]
/home/rex/devel/optee/boot_secure_os/ta/boot_secure_os_ta.c:68
      a4:	b9401fe1 	ldr	w1, [sp,#28]
      a8:	b9402fe0 	ldr	w0, [sp,#44]
      ac:	6b00003f 	cmp	w1, w0
      b0:	54000060 	b.eq	bc <TA_OpenSessionEntryPoint+0x2c>
/home/rex/devel/optee/boot_secure_os/ta/boot_secure_os_ta.c:69
      b4:	129fff20 	mov	w0, #0xffff0006            	// #-65530
      b8:	14000002 	b	c0 <TA_OpenSessionEntryPoint+0x30>
/home/rex/devel/optee/boot_secure_os/ta/boot_secure_os_ta.c:81
      bc:	52800000 	mov	w0, #0x0                   	// #0
/home/rex/devel/optee/boot_secure_os/ta/boot_secure_os_ta.c:82
      c0:	9100c3ff 	add	sp, sp, #0x30
      c4:	d65f03c0 	ret

00000000000000c8 <TA_CloseSessionEntryPoint>:
TA_CloseSessionEntryPoint():
/home/rex/devel/optee/boot_secure_os/ta/boot_secure_os_ta.c:89
      c8:	a9be7bfd 	stp	x29, x30, [sp,#-32]!
      cc:	910003fd 	mov	x29, sp
      d0:	f9000fa0 	str	x0, [x29,#24]
/home/rex/devel/optee/boot_secure_os/ta/boot_secure_os_ta.c:91
      d4:	d0000060 	adrp	x0, e000 <__mpa_mpanum_to_hexstr+0x8c>
      d8:	9139a001 	add	x1, x0, #0xe68
      dc:	d0000060 	adrp	x0, e000 <__mpa_mpanum_to_hexstr+0x8c>
      e0:	913b6000 	add	x0, x0, #0xed8
      e4:	aa0103e4 	mov	x4, x1
      e8:	52800023 	mov	w3, #0x1                   	// #1
      ec:	52800062 	mov	w2, #0x3                   	// #3
      f0:	52800b61 	mov	w1, #0x5b                  	// #91
      f4:	94001f48 	bl	7e14 <trace_printf>
/home/rex/devel/optee/boot_secure_os/ta/boot_secure_os_ta.c:92
      f8:	d503201f 	nop
      fc:	a8c27bfd 	ldp	x29, x30, [sp],#32
     100:	d65f03c0 	ret

0000000000000104 <inc_value>:
inc_value():
/home/rex/devel/optee/boot_secure_os/ta/boot_secure_os_ta.c:96
     104:	a9bd7bfd 	stp	x29, x30, [sp,#-48]!
     108:	910003fd 	mov	x29, sp
     10c:	b9001fa0 	str	w0, [x29,#28]
     110:	f9000ba1 	str	x1, [x29,#16]
/home/rex/devel/optee/boot_secure_os/ta/boot_secure_os_ta.c:97
     114:	52800060 	mov	w0, #0x3                   	// #3
     118:	b9002fa0 	str	w0, [x29,#44]
/home/rex/devel/optee/boot_secure_os/ta/boot_secure_os_ta.c:102
     11c:	d0000060 	adrp	x0, e000 <__mpa_mpanum_to_hexstr+0x8c>
     120:	91396001 	add	x1, x0, #0xe58
     124:	d0000060 	adrp	x0, e000 <__mpa_mpanum_to_hexstr+0x8c>
     128:	913be000 	add	x0, x0, #0xef8
     12c:	aa0103e4 	mov	x4, x1
     130:	52800023 	mov	w3, #0x1                   	// #1
     134:	52800062 	mov	w2, #0x3                   	// #3
     138:	52800cc1 	mov	w1, #0x66                  	// #102
     13c:	94001f36 	bl	7e14 <trace_printf>
/home/rex/devel/optee/boot_secure_os/ta/boot_secure_os_ta.c:103
     140:	b9401fa1 	ldr	w1, [x29,#28]
     144:	b9402fa0 	ldr	w0, [x29,#44]
     148:	6b00003f 	cmp	w1, w0
     14c:	54000060 	b.eq	158 <inc_value+0x54>
/home/rex/devel/optee/boot_secure_os/ta/boot_secure_os_ta.c:104
     150:	129fff20 	mov	w0, #0xffff0006            	// #-65530
     154:	1400001f 	b	1d0 <inc_value+0xcc>
/home/rex/devel/optee/boot_secure_os/ta/boot_secure_os_ta.c:106
     158:	f9400ba0 	ldr	x0, [x29,#16]
     15c:	b9400002 	ldr	w2, [x0]
     160:	d0000060 	adrp	x0, e000 <__mpa_mpanum_to_hexstr+0x8c>
     164:	9139e001 	add	x1, x0, #0xe78
     168:	d0000060 	adrp	x0, e000 <__mpa_mpanum_to_hexstr+0x8c>
     16c:	913be000 	add	x0, x0, #0xef8
     170:	2a0203e5 	mov	w5, w2
     174:	aa0103e4 	mov	x4, x1
     178:	52800023 	mov	w3, #0x1                   	// #1
     17c:	52800062 	mov	w2, #0x3                   	// #3
     180:	52800d41 	mov	w1, #0x6a                  	// #106
     184:	94001f24 	bl	7e14 <trace_printf>
/home/rex/devel/optee/boot_secure_os/ta/boot_secure_os_ta.c:107
     188:	f9400ba0 	ldr	x0, [x29,#16]
     18c:	b9400000 	ldr	w0, [x0]
     190:	11000401 	add	w1, w0, #0x1
     194:	f9400ba0 	ldr	x0, [x29,#16]
     198:	b9000001 	str	w1, [x0]
/home/rex/devel/optee/boot_secure_os/ta/boot_secure_os_ta.c:108
     19c:	f9400ba0 	ldr	x0, [x29,#16]
     1a0:	b9400002 	ldr	w2, [x0]
     1a4:	d0000060 	adrp	x0, e000 <__mpa_mpanum_to_hexstr+0x8c>
     1a8:	913a4001 	add	x1, x0, #0xe90
     1ac:	d0000060 	adrp	x0, e000 <__mpa_mpanum_to_hexstr+0x8c>
     1b0:	913be000 	add	x0, x0, #0xef8
     1b4:	2a0203e5 	mov	w5, w2
     1b8:	aa0103e4 	mov	x4, x1
     1bc:	52800023 	mov	w3, #0x1                   	// #1
     1c0:	52800062 	mov	w2, #0x3                   	// #3
     1c4:	52800d81 	mov	w1, #0x6c                  	// #108
     1c8:	94001f13 	bl	7e14 <trace_printf>
/home/rex/devel/optee/boot_secure_os/ta/boot_secure_os_ta.c:109
     1cc:	52800000 	mov	w0, #0x0                   	// #0
/home/rex/devel/optee/boot_secure_os/ta/boot_secure_os_ta.c:110
     1d0:	a8c37bfd 	ldp	x29, x30, [sp],#48
     1d4:	d65f03c0 	ret

00000000000001d8 <TA_InvokeCommandEntryPoint>:
TA_InvokeCommandEntryPoint():
/home/rex/devel/optee/boot_secure_os/ta/boot_secure_os_ta.c:120
     1d8:	a9bd7bfd 	stp	x29, x30, [sp,#-48]!
     1dc:	910003fd 	mov	x29, sp
     1e0:	f90017a0 	str	x0, [x29,#40]
     1e4:	b90027a1 	str	w1, [x29,#36]
     1e8:	b90023a2 	str	w2, [x29,#32]
     1ec:	f9000fa3 	str	x3, [x29,#24]
/home/rex/devel/optee/boot_secure_os/ta/boot_secure_os_ta.c:123
     1f0:	b94027a0 	ldr	w0, [x29,#36]
     1f4:	7100001f 	cmp	w0, #0x0
     1f8:	540000a1 	b.ne	20c <TA_InvokeCommandEntryPoint+0x34>
/home/rex/devel/optee/boot_secure_os/ta/boot_secure_os_ta.c:125
     1fc:	f9400fa1 	ldr	x1, [x29,#24]
     200:	b94023a0 	ldr	w0, [x29,#32]
     204:	97ffffc0 	bl	104 <inc_value>
     208:	14000002 	b	210 <TA_InvokeCommandEntryPoint+0x38>
/home/rex/devel/optee/boot_secure_os/ta/boot_secure_os_ta.c:127
     20c:	129fff20 	mov	w0, #0xffff0006            	// #-65530
/home/rex/devel/optee/boot_secure_os/ta/boot_secure_os_ta.c:129
     210:	a8c37bfd 	ldp	x29, x30, [sp],#48
     214:	d65f03c0 	ret

0000000000000218 <tahead_get_trace_level>:
tahead_get_trace_level():
/home/rex/devel/optee/optee_os/out/arm/export-ta_arm64/src/user_ta_header.c:132
     218:	52800080 	mov	w0, #0x4                   	// #4
/home/rex/devel/optee/optee_os/out/arm/export-ta_arm64/src/user_ta_header.c:133
     21c:	d65f03c0 	ret

0000000000000220 <__utee_gprof_init>:
__utee_gprof_init():
/home/rex/devel/optee/optee_os/lib/libutee/arch/arm/../../tee_api_private.h:51
     220:	d503201f 	nop
     224:	d65f03c0 	ret

0000000000000228 <__utee_gprof_fini>:
__utee_gprof_fini():
/home/rex/devel/optee/optee_os/lib/libutee/arch/arm/../../tee_api_private.h:52
     228:	d503201f 	nop
     22c:	d65f03c0 	ret

0000000000000230 <ta_header_save_params>:
ta_header_save_params():
/home/rex/devel/optee/optee_os/lib/libutee/arch/arm/user_ta_entry.c:75
     230:	a9be7bfd 	stp	x29, x30, [sp,#-32]!
     234:	910003fd 	mov	x29, sp
     238:	b9001fa0 	str	w0, [x29,#28]
     23c:	f9000ba1 	str	x1, [x29,#16]
/home/rex/devel/optee/optee_os/lib/libutee/arch/arm/user_ta_entry.c:76
     240:	90000080 	adrp	x0, 10000 <PRIME_TABLE+0x408>
     244:	f9463000 	ldr	x0, [x0,#3168]
     248:	b9401fa1 	ldr	w1, [x29,#28]
     24c:	b9000001 	str	w1, [x0]
/home/rex/devel/optee/optee_os/lib/libutee/arch/arm/user_ta_entry.c:78
     250:	f9400ba0 	ldr	x0, [x29,#16]
     254:	f100001f 	cmp	x0, #0x0
     258:	540000e0 	b.eq	274 <ta_header_save_params+0x44>
/home/rex/devel/optee/optee_os/lib/libutee/arch/arm/user_ta_entry.c:79
     25c:	90000080 	adrp	x0, 10000 <PRIME_TABLE+0x408>
     260:	f9463800 	ldr	x0, [x0,#3184]
     264:	d2800802 	mov	x2, #0x40                  	// #64
     268:	f9400ba1 	ldr	x1, [x29,#16]
     26c:	9400149f 	bl	54e8 <memcpy>
/home/rex/devel/optee/optee_os/lib/libutee/arch/arm/user_ta_entry.c:82
     270:	14000006 	b	288 <ta_header_save_params+0x58>
/home/rex/devel/optee/optee_os/lib/libutee/arch/arm/user_ta_entry.c:81
     274:	90000080 	adrp	x0, 10000 <PRIME_TABLE+0x408>
     278:	f9463800 	ldr	x0, [x0,#3184]
     27c:	d2800802 	mov	x2, #0x40                  	// #64
     280:	52800001 	mov	w1, #0x0                   	// #0
     284:	9400157c 	bl	5874 <memset>
/home/rex/devel/optee/optee_os/lib/libutee/arch/arm/user_ta_entry.c:82
     288:	d503201f 	nop
     28c:	a8c27bfd 	ldp	x29, x30, [sp],#32
     290:	d65f03c0 	ret

0000000000000294 <ta_header_get_session>:
ta_header_get_session():
/home/rex/devel/optee/optee_os/lib/libutee/arch/arm/user_ta_entry.c:85
     294:	d10083ff 	sub	sp, sp, #0x20
     298:	b9000fe0 	str	w0, [sp,#12]
/home/rex/devel/optee/optee_os/lib/libutee/arch/arm/user_ta_entry.c:88
     29c:	d0000080 	adrp	x0, 12000 <ta_props>
     2a0:	91038000 	add	x0, x0, #0xe0
     2a4:	f9400000 	ldr	x0, [x0]
     2a8:	f9000fe0 	str	x0, [sp,#24]
     2ac:	1400000b 	b	2d8 <ta_header_get_session+0x44>
/home/rex/devel/optee/optee_os/lib/libutee/arch/arm/user_ta_entry.c:89
     2b0:	f9400fe0 	ldr	x0, [sp,#24]
     2b4:	b9400001 	ldr	w1, [x0]
     2b8:	b9400fe0 	ldr	w0, [sp,#12]
     2bc:	6b00003f 	cmp	w1, w0
     2c0:	54000061 	b.ne	2cc <ta_header_get_session+0x38>
/home/rex/devel/optee/optee_os/lib/libutee/arch/arm/user_ta_entry.c:90
     2c4:	f9400fe0 	ldr	x0, [sp,#24]
     2c8:	14000008 	b	2e8 <ta_header_get_session+0x54>
/home/rex/devel/optee/optee_os/lib/libutee/arch/arm/user_ta_entry.c:88 (discriminator 2)
     2cc:	f9400fe0 	ldr	x0, [sp,#24]
     2d0:	f9400800 	ldr	x0, [x0,#16]
     2d4:	f9000fe0 	str	x0, [sp,#24]
/home/rex/devel/optee/optee_os/lib/libutee/arch/arm/user_ta_entry.c:88 (discriminator 1)
     2d8:	f9400fe0 	ldr	x0, [sp,#24]
     2dc:	f100001f 	cmp	x0, #0x0
     2e0:	54fffe81 	b.ne	2b0 <ta_header_get_session+0x1c>
/home/rex/devel/optee/optee_os/lib/libutee/arch/arm/user_ta_entry.c:92
     2e4:	d2800000 	mov	x0, #0x0                   	// #0
/home/rex/devel/optee/optee_os/lib/libutee/arch/arm/user_ta_entry.c:93
     2e8:	910083ff 	add	sp, sp, #0x20
     2ec:	d65f03c0 	ret

00000000000002f0 <ta_header_add_session>:
ta_header_add_session():
/home/rex/devel/optee/optee_os/lib/libutee/arch/arm/user_ta_entry.c:96
     2f0:	a9bd7bfd 	stp	x29, x30, [sp,#-48]!
     2f4:	910003fd 	mov	x29, sp
     2f8:	b9001fa0 	str	w0, [x29,#28]
/home/rex/devel/optee/optee_os/lib/libutee/arch/arm/user_ta_entry.c:97
     2fc:	b9401fa0 	ldr	w0, [x29,#28]
     300:	97ffffe5 	bl	294 <ta_header_get_session>
     304:	f90017a0 	str	x0, [x29,#40]
/home/rex/devel/optee/optee_os/lib/libutee/arch/arm/user_ta_entry.c:99
     308:	f94017a0 	ldr	x0, [x29,#40]
     30c:	f100001f 	cmp	x0, #0x0
     310:	54000060 	b.eq	31c <ta_header_add_session+0x2c>
/home/rex/devel/optee/optee_os/lib/libutee/arch/arm/user_ta_entry.c:100
     314:	52800000 	mov	w0, #0x0                   	// #0
     318:	14000049 	b	43c <ta_header_add_session+0x14c>
/home/rex/devel/optee/optee_os/lib/libutee/arch/arm/user_ta_entry.c:102
     31c:	900000e0 	adrp	x0, 1c000 <buf.3608+0x2b8>
     320:	91353000 	add	x0, x0, #0xd4c
     324:	b9400000 	ldr	w0, [x0]
     328:	11000401 	add	w1, w0, #0x1
     32c:	900000e0 	adrp	x0, 1c000 <buf.3608+0x2b8>
     330:	91353000 	add	x0, x0, #0xd4c
     334:	b9000001 	str	w1, [x0]
/home/rex/devel/optee/optee_os/lib/libutee/arch/arm/user_ta_entry.c:104
     338:	900000e0 	adrp	x0, 1c000 <buf.3608+0x2b8>
     33c:	91353000 	add	x0, x0, #0xd4c
     340:	b9400000 	ldr	w0, [x0]
     344:	7100041f 	cmp	w0, #0x1
     348:	540003a1 	b.ne	3bc <ta_header_add_session+0xcc>
/home/rex/devel/optee/optee_os/lib/libutee/arch/arm/user_ta_entry.c:107
     34c:	900000e0 	adrp	x0, 1c000 <buf.3608+0x2b8>
     350:	91354000 	add	x0, x0, #0xd50
     354:	39400000 	ldrb	w0, [x0]
     358:	52000000 	eor	w0, w0, #0x1
     35c:	12001c00 	and	w0, w0, #0xff
     360:	7100001f 	cmp	w0, #0x0
     364:	540001e0 	b.eq	3a0 <ta_header_add_session+0xb0>
/home/rex/devel/optee/optee_os/lib/libutee/arch/arm/user_ta_entry.c:108
     368:	97ffffac 	bl	218 <tahead_get_trace_level>
     36c:	94001e75 	bl	7d40 <trace_set_level>
/home/rex/devel/optee/optee_os/lib/libutee/arch/arm/user_ta_entry.c:109
     370:	97ffffac 	bl	220 <__utee_gprof_init>
/home/rex/devel/optee/optee_os/lib/libutee/arch/arm/user_ta_entry.c:110
     374:	90000080 	adrp	x0, 10000 <PRIME_TABLE+0x408>
     378:	f9461800 	ldr	x0, [x0,#3120]
     37c:	f9400001 	ldr	x1, [x0]
     380:	90000080 	adrp	x0, 10000 <PRIME_TABLE+0x408>
     384:	f9462c00 	ldr	x0, [x0,#3160]
     388:	940012c5 	bl	4e9c <malloc_add_pool>
/home/rex/devel/optee/optee_os/lib/libutee/arch/arm/user_ta_entry.c:111
     38c:	940001f7 	bl	b68 <_TEE_MathAPI_Init>
/home/rex/devel/optee/optee_os/lib/libutee/arch/arm/user_ta_entry.c:112
     390:	900000e0 	adrp	x0, 1c000 <buf.3608+0x2b8>
     394:	91354000 	add	x0, x0, #0xd50
     398:	52800021 	mov	w1, #0x1                   	// #1
     39c:	39000001 	strb	w1, [x0]
/home/rex/devel/optee/optee_os/lib/libutee/arch/arm/user_ta_entry.c:115
     3a0:	97ffff20 	bl	20 <TA_CreateEntryPoint>
     3a4:	b90027a0 	str	w0, [x29,#36]
/home/rex/devel/optee/optee_os/lib/libutee/arch/arm/user_ta_entry.c:116
     3a8:	b94027a0 	ldr	w0, [x29,#36]
     3ac:	7100001f 	cmp	w0, #0x0
     3b0:	54000060 	b.eq	3bc <ta_header_add_session+0xcc>
/home/rex/devel/optee/optee_os/lib/libutee/arch/arm/user_ta_entry.c:117
     3b4:	b94027a0 	ldr	w0, [x29,#36]
     3b8:	14000021 	b	43c <ta_header_add_session+0x14c>
/home/rex/devel/optee/optee_os/lib/libutee/arch/arm/user_ta_entry.c:120
     3bc:	52b00001 	mov	w1, #0x80000000            	// #-2147483648
     3c0:	52800400 	mov	w0, #0x20                  	// #32
     3c4:	940007b6 	bl	229c <TEE_Malloc>
     3c8:	f90017a0 	str	x0, [x29,#40]
/home/rex/devel/optee/optee_os/lib/libutee/arch/arm/user_ta_entry.c:122
     3cc:	f94017a0 	ldr	x0, [x29,#40]
     3d0:	f100001f 	cmp	x0, #0x0
     3d4:	54000061 	b.ne	3e0 <ta_header_add_session+0xf0>
/home/rex/devel/optee/optee_os/lib/libutee/arch/arm/user_ta_entry.c:123
     3d8:	129ffe60 	mov	w0, #0xffff000c            	// #-65524
     3dc:	14000018 	b	43c <ta_header_add_session+0x14c>
/home/rex/devel/optee/optee_os/lib/libutee/arch/arm/user_ta_entry.c:124
     3e0:	f94017a0 	ldr	x0, [x29,#40]
     3e4:	b9401fa1 	ldr	w1, [x29,#28]
     3e8:	b9000001 	str	w1, [x0]
/home/rex/devel/optee/optee_os/lib/libutee/arch/arm/user_ta_entry.c:125
     3ec:	f94017a0 	ldr	x0, [x29,#40]
     3f0:	f900041f 	str	xzr, [x0,#8]
/home/rex/devel/optee/optee_os/lib/libutee/arch/arm/user_ta_entry.c:126
     3f4:	f94017a0 	ldr	x0, [x29,#40]
     3f8:	f900081f 	str	xzr, [x0,#16]
     3fc:	d0000080 	adrp	x0, 12000 <ta_props>
     400:	91038000 	add	x0, x0, #0xe0
     404:	f9400401 	ldr	x1, [x0,#8]
     408:	f94017a0 	ldr	x0, [x29,#40]
     40c:	f9000c01 	str	x1, [x0,#24]
     410:	d0000080 	adrp	x0, 12000 <ta_props>
     414:	91038000 	add	x0, x0, #0xe0
     418:	f9400400 	ldr	x0, [x0,#8]
     41c:	f94017a1 	ldr	x1, [x29,#40]
     420:	f9000001 	str	x1, [x0]
     424:	f94017a0 	ldr	x0, [x29,#40]
     428:	91004001 	add	x1, x0, #0x10
     42c:	d0000080 	adrp	x0, 12000 <ta_props>
     430:	91038000 	add	x0, x0, #0xe0
     434:	f9000401 	str	x1, [x0,#8]
/home/rex/devel/optee/optee_os/lib/libutee/arch/arm/user_ta_entry.c:128
     438:	52800000 	mov	w0, #0x0                   	// #0
/home/rex/devel/optee/optee_os/lib/libutee/arch/arm/user_ta_entry.c:129
     43c:	a8c37bfd 	ldp	x29, x30, [sp],#48
     440:	d65f03c0 	ret

0000000000000444 <ta_header_remove_session>:
ta_header_remove_session():
/home/rex/devel/optee/optee_os/lib/libutee/arch/arm/user_ta_entry.c:132
     444:	a9bd7bfd 	stp	x29, x30, [sp,#-48]!
     448:	910003fd 	mov	x29, sp
     44c:	b9001fa0 	str	w0, [x29,#28]
/home/rex/devel/optee/optee_os/lib/libutee/arch/arm/user_ta_entry.c:135
     450:	d0000080 	adrp	x0, 12000 <ta_props>
     454:	91038000 	add	x0, x0, #0xe0
     458:	f9400000 	ldr	x0, [x0]
     45c:	f90017a0 	str	x0, [x29,#40]
     460:	1400002e 	b	518 <ta_header_remove_session+0xd4>
/home/rex/devel/optee/optee_os/lib/libutee/arch/arm/user_ta_entry.c:136
     464:	f94017a0 	ldr	x0, [x29,#40]
     468:	b9400001 	ldr	w1, [x0]
     46c:	b9401fa0 	ldr	w0, [x29,#28]
     470:	6b00003f 	cmp	w1, w0
     474:	540004c1 	b.ne	50c <ta_header_remove_session+0xc8>
/home/rex/devel/optee/optee_os/lib/libutee/arch/arm/user_ta_entry.c:137
     478:	f94017a0 	ldr	x0, [x29,#40]
     47c:	f9400800 	ldr	x0, [x0,#16]
     480:	f100001f 	cmp	x0, #0x0
     484:	540000e0 	b.eq	4a0 <ta_header_remove_session+0x5c>
/home/rex/devel/optee/optee_os/lib/libutee/arch/arm/user_ta_entry.c:137 (discriminator 1)
     488:	f94017a0 	ldr	x0, [x29,#40]
     48c:	f9400800 	ldr	x0, [x0,#16]
     490:	f94017a1 	ldr	x1, [x29,#40]
     494:	f9400c21 	ldr	x1, [x1,#24]
     498:	f9000c01 	str	x1, [x0,#24]
     49c:	14000006 	b	4b4 <ta_header_remove_session+0x70>
/home/rex/devel/optee/optee_os/lib/libutee/arch/arm/user_ta_entry.c:137 (discriminator 2)
     4a0:	f94017a0 	ldr	x0, [x29,#40]
     4a4:	f9400c01 	ldr	x1, [x0,#24]
     4a8:	d0000080 	adrp	x0, 12000 <ta_props>
     4ac:	91038000 	add	x0, x0, #0xe0
     4b0:	f9000401 	str	x1, [x0,#8]
/home/rex/devel/optee/optee_os/lib/libutee/arch/arm/user_ta_entry.c:137 (discriminator 4)
     4b4:	f94017a0 	ldr	x0, [x29,#40]
     4b8:	f9400c00 	ldr	x0, [x0,#24]
     4bc:	f94017a1 	ldr	x1, [x29,#40]
     4c0:	f9400821 	ldr	x1, [x1,#16]
     4c4:	f9000001 	str	x1, [x0]
/home/rex/devel/optee/optee_os/lib/libutee/arch/arm/user_ta_entry.c:138 (discriminator 4)
     4c8:	f94017a0 	ldr	x0, [x29,#40]
     4cc:	94000787 	bl	22e8 <TEE_Free>
/home/rex/devel/optee/optee_os/lib/libutee/arch/arm/user_ta_entry.c:140 (discriminator 4)
     4d0:	900000e0 	adrp	x0, 1c000 <buf.3608+0x2b8>
     4d4:	91353000 	add	x0, x0, #0xd4c
     4d8:	b9400000 	ldr	w0, [x0]
     4dc:	51000401 	sub	w1, w0, #0x1
     4e0:	900000e0 	adrp	x0, 1c000 <buf.3608+0x2b8>
     4e4:	91353000 	add	x0, x0, #0xd4c
     4e8:	b9000001 	str	w1, [x0]
/home/rex/devel/optee/optee_os/lib/libutee/arch/arm/user_ta_entry.c:141 (discriminator 4)
     4ec:	900000e0 	adrp	x0, 1c000 <buf.3608+0x2b8>
     4f0:	91353000 	add	x0, x0, #0xd4c
     4f4:	b9400000 	ldr	w0, [x0]
     4f8:	7100001f 	cmp	w0, #0x0
     4fc:	54000161 	b.ne	528 <ta_header_remove_session+0xe4>
/home/rex/devel/optee/optee_os/lib/libutee/arch/arm/user_ta_entry.c:142
     500:	97ffff4a 	bl	228 <__utee_gprof_fini>
/home/rex/devel/optee/optee_os/lib/libutee/arch/arm/user_ta_entry.c:143
     504:	97fffed5 	bl	58 <TA_DestroyEntryPoint>
/home/rex/devel/optee/optee_os/lib/libutee/arch/arm/user_ta_entry.c:146
     508:	14000008 	b	528 <ta_header_remove_session+0xe4>
/home/rex/devel/optee/optee_os/lib/libutee/arch/arm/user_ta_entry.c:135 (discriminator 2)
     50c:	f94017a0 	ldr	x0, [x29,#40]
     510:	f9400800 	ldr	x0, [x0,#16]
     514:	f90017a0 	str	x0, [x29,#40]
/home/rex/devel/optee/optee_os/lib/libutee/arch/arm/user_ta_entry.c:135 (discriminator 1)
     518:	f94017a0 	ldr	x0, [x29,#40]
     51c:	f100001f 	cmp	x0, #0x0
     520:	54fffa21 	b.ne	464 <ta_header_remove_session+0x20>
     524:	14000002 	b	52c <ta_header_remove_session+0xe8>
/home/rex/devel/optee/optee_os/lib/libutee/arch/arm/user_ta_entry.c:146
     528:	d503201f 	nop
/home/rex/devel/optee/optee_os/lib/libutee/arch/arm/user_ta_entry.c:149
     52c:	a8c37bfd 	ldp	x29, x30, [sp],#48
     530:	d65f03c0 	ret

0000000000000534 <entry_open_session>:
entry_open_session():
/home/rex/devel/optee/optee_os/lib/libutee/arch/arm/user_ta_entry.c:153
     534:	a9b87bfd 	stp	x29, x30, [sp,#-128]!
     538:	910003fd 	mov	x29, sp
     53c:	f9000fa0 	str	x0, [x29,#24]
     540:	f9000ba1 	str	x1, [x29,#16]
/home/rex/devel/optee/optee_os/lib/libutee/arch/arm/user_ta_entry.c:159
     544:	f9400fa0 	ldr	x0, [x29,#24]
     548:	97ffff6a 	bl	2f0 <ta_header_add_session>
     54c:	b9007fa0 	str	w0, [x29,#124]
/home/rex/devel/optee/optee_os/lib/libutee/arch/arm/user_ta_entry.c:160
     550:	b9407fa0 	ldr	w0, [x29,#124]
     554:	7100001f 	cmp	w0, #0x0
     558:	54000060 	b.eq	564 <entry_open_session+0x30>
/home/rex/devel/optee/optee_os/lib/libutee/arch/arm/user_ta_entry.c:161
     55c:	b9407fa0 	ldr	w0, [x29,#124]
     560:	14000025 	b	5f4 <entry_open_session+0xc0>
/home/rex/devel/optee/optee_os/lib/libutee/arch/arm/user_ta_entry.c:163
     564:	f9400fa0 	ldr	x0, [x29,#24]
     568:	97ffff4b 	bl	294 <ta_header_get_session>
     56c:	f9003ba0 	str	x0, [x29,#112]
/home/rex/devel/optee/optee_os/lib/libutee/arch/arm/user_ta_entry.c:164
     570:	f9403ba0 	ldr	x0, [x29,#112]
     574:	f100001f 	cmp	x0, #0x0
     578:	54000061 	b.ne	584 <entry_open_session+0x50>
/home/rex/devel/optee/optee_os/lib/libutee/arch/arm/user_ta_entry.c:165
     57c:	129fff00 	mov	w0, #0xffff0007            	// #-65529
     580:	1400001d 	b	5f4 <entry_open_session+0xc0>
/home/rex/devel/optee/optee_os/lib/libutee/arch/arm/user_ta_entry.c:167
     584:	9101b3a1 	add	x1, x29, #0x6c
     588:	9100a3a0 	add	x0, x29, #0x28
     58c:	f9400ba2 	ldr	x2, [x29,#16]
     590:	94000546 	bl	1aa8 <__utee_to_param>
/home/rex/devel/optee/optee_os/lib/libutee/arch/arm/user_ta_entry.c:168
     594:	b9406fa0 	ldr	w0, [x29,#108]
     598:	9100a3a1 	add	x1, x29, #0x28
     59c:	97ffff25 	bl	230 <ta_header_save_params>
/home/rex/devel/optee/optee_os/lib/libutee/arch/arm/user_ta_entry.c:170
     5a0:	b9406fa3 	ldr	w3, [x29,#108]
     5a4:	f9403ba0 	ldr	x0, [x29,#112]
     5a8:	91002001 	add	x1, x0, #0x8
     5ac:	9100a3a0 	add	x0, x29, #0x28
     5b0:	aa0103e2 	mov	x2, x1
     5b4:	aa0003e1 	mov	x1, x0
     5b8:	2a0303e0 	mov	w0, w3
     5bc:	97fffeb5 	bl	90 <TA_OpenSessionEntryPoint>
     5c0:	b9007fa0 	str	w0, [x29,#124]
/home/rex/devel/optee/optee_os/lib/libutee/arch/arm/user_ta_entry.c:173
     5c4:	b9406fa0 	ldr	w0, [x29,#108]
     5c8:	9100a3a1 	add	x1, x29, #0x28
     5cc:	aa0103e2 	mov	x2, x1
     5d0:	2a0003e1 	mov	w1, w0
     5d4:	f9400ba0 	ldr	x0, [x29,#16]
     5d8:	940004d3 	bl	1924 <__utee_from_param>
/home/rex/devel/optee/optee_os/lib/libutee/arch/arm/user_ta_entry.c:175
     5dc:	b9407fa0 	ldr	w0, [x29,#124]
     5e0:	7100001f 	cmp	w0, #0x0
     5e4:	54000060 	b.eq	5f0 <entry_open_session+0xbc>
/home/rex/devel/optee/optee_os/lib/libutee/arch/arm/user_ta_entry.c:176
     5e8:	f9400fa0 	ldr	x0, [x29,#24]
     5ec:	97ffff96 	bl	444 <ta_header_remove_session>
/home/rex/devel/optee/optee_os/lib/libutee/arch/arm/user_ta_entry.c:177
     5f0:	b9407fa0 	ldr	w0, [x29,#124]
/home/rex/devel/optee/optee_os/lib/libutee/arch/arm/user_ta_entry.c:178 (discriminator 1)
     5f4:	a8c87bfd 	ldp	x29, x30, [sp],#128
     5f8:	d65f03c0 	ret

00000000000005fc <entry_close_session>:
entry_close_session():
/home/rex/devel/optee/optee_os/lib/libutee/arch/arm/user_ta_entry.c:181
     5fc:	a9bd7bfd 	stp	x29, x30, [sp,#-48]!
     600:	910003fd 	mov	x29, sp
     604:	f9000fa0 	str	x0, [x29,#24]
/home/rex/devel/optee/optee_os/lib/libutee/arch/arm/user_ta_entry.c:182
     608:	f9400fa0 	ldr	x0, [x29,#24]
     60c:	97ffff22 	bl	294 <ta_header_get_session>
     610:	f90017a0 	str	x0, [x29,#40]
/home/rex/devel/optee/optee_os/lib/libutee/arch/arm/user_ta_entry.c:184
     614:	f94017a0 	ldr	x0, [x29,#40]
     618:	f100001f 	cmp	x0, #0x0
     61c:	54000061 	b.ne	628 <entry_close_session+0x2c>
/home/rex/devel/optee/optee_os/lib/libutee/arch/arm/user_ta_entry.c:185
     620:	129fff00 	mov	w0, #0xffff0007            	// #-65529
     624:	14000007 	b	640 <entry_close_session+0x44>
/home/rex/devel/optee/optee_os/lib/libutee/arch/arm/user_ta_entry.c:187
     628:	f94017a0 	ldr	x0, [x29,#40]
     62c:	f9400400 	ldr	x0, [x0,#8]
     630:	97fffea6 	bl	c8 <TA_CloseSessionEntryPoint>
/home/rex/devel/optee/optee_os/lib/libutee/arch/arm/user_ta_entry.c:189
     634:	f9400fa0 	ldr	x0, [x29,#24]
     638:	97ffff83 	bl	444 <ta_header_remove_session>
/home/rex/devel/optee/optee_os/lib/libutee/arch/arm/user_ta_entry.c:190
     63c:	52800000 	mov	w0, #0x0                   	// #0
/home/rex/devel/optee/optee_os/lib/libutee/arch/arm/user_ta_entry.c:191
     640:	a8c37bfd 	ldp	x29, x30, [sp],#48
     644:	d65f03c0 	ret

0000000000000648 <entry_invoke_command>:
entry_invoke_command():
/home/rex/devel/optee/optee_os/lib/libutee/arch/arm/user_ta_entry.c:195
     648:	a9b87bfd 	stp	x29, x30, [sp,#-128]!
     64c:	910003fd 	mov	x29, sp
     650:	f90017a0 	str	x0, [x29,#40]
     654:	f90013a1 	str	x1, [x29,#32]
     658:	f9000fa2 	str	x2, [x29,#24]
/home/rex/devel/optee/optee_os/lib/libutee/arch/arm/user_ta_entry.c:199
     65c:	f94017a0 	ldr	x0, [x29,#40]
     660:	97ffff0d 	bl	294 <ta_header_get_session>
     664:	f9003fa0 	str	x0, [x29,#120]
/home/rex/devel/optee/optee_os/lib/libutee/arch/arm/user_ta_entry.c:201
     668:	f9403fa0 	ldr	x0, [x29,#120]
     66c:	f100001f 	cmp	x0, #0x0
     670:	54000061 	b.ne	67c <entry_invoke_command+0x34>
/home/rex/devel/optee/optee_os/lib/libutee/arch/arm/user_ta_entry.c:202
     674:	129fff00 	mov	w0, #0xffff0007            	// #-65529
     678:	1400001a 	b	6e0 <entry_invoke_command+0x98>
/home/rex/devel/optee/optee_os/lib/libutee/arch/arm/user_ta_entry.c:204
     67c:	9101c3a1 	add	x1, x29, #0x70
     680:	9100c3a0 	add	x0, x29, #0x30
     684:	f94013a2 	ldr	x2, [x29,#32]
     688:	94000508 	bl	1aa8 <__utee_to_param>
/home/rex/devel/optee/optee_os/lib/libutee/arch/arm/user_ta_entry.c:205
     68c:	b94073a0 	ldr	w0, [x29,#112]
     690:	9100c3a1 	add	x1, x29, #0x30
     694:	97fffee7 	bl	230 <ta_header_save_params>
/home/rex/devel/optee/optee_os/lib/libutee/arch/arm/user_ta_entry.c:207
     698:	f9403fa0 	ldr	x0, [x29,#120]
     69c:	f9400400 	ldr	x0, [x0,#8]
     6a0:	f9400fa1 	ldr	x1, [x29,#24]
     6a4:	2a0103e4 	mov	w4, w1
     6a8:	b94073a1 	ldr	w1, [x29,#112]
     6ac:	9100c3a2 	add	x2, x29, #0x30
     6b0:	aa0203e3 	mov	x3, x2
     6b4:	2a0103e2 	mov	w2, w1
     6b8:	2a0403e1 	mov	w1, w4
     6bc:	97fffec7 	bl	1d8 <TA_InvokeCommandEntryPoint>
     6c0:	b90077a0 	str	w0, [x29,#116]
/home/rex/devel/optee/optee_os/lib/libutee/arch/arm/user_ta_entry.c:210
     6c4:	b94073a0 	ldr	w0, [x29,#112]
     6c8:	9100c3a1 	add	x1, x29, #0x30
     6cc:	aa0103e2 	mov	x2, x1
     6d0:	2a0003e1 	mov	w1, w0
     6d4:	f94013a0 	ldr	x0, [x29,#32]
     6d8:	94000493 	bl	1924 <__utee_from_param>
/home/rex/devel/optee/optee_os/lib/libutee/arch/arm/user_ta_entry.c:211
     6dc:	b94077a0 	ldr	w0, [x29,#116]
/home/rex/devel/optee/optee_os/lib/libutee/arch/arm/user_ta_entry.c:212 (discriminator 1)
     6e0:	a8c87bfd 	ldp	x29, x30, [sp],#128
     6e4:	d65f03c0 	ret

00000000000006e8 <__utee_entry>:
__utee_entry():
/home/rex/devel/optee/optee_os/lib/libutee/arch/arm/user_ta_entry.c:216
     6e8:	a9bc7bfd 	stp	x29, x30, [sp,#-64]!
     6ec:	910003fd 	mov	x29, sp
     6f0:	f90017a0 	str	x0, [x29,#40]
     6f4:	f90013a1 	str	x1, [x29,#32]
     6f8:	f9000fa2 	str	x2, [x29,#24]
     6fc:	f9000ba3 	str	x3, [x29,#16]
/home/rex/devel/optee/optee_os/lib/libutee/arch/arm/user_ta_entry.c:227
     700:	f94017a0 	ldr	x0, [x29,#40]
     704:	f100041f 	cmp	x0, #0x1
     708:	54000160 	b.eq	734 <__utee_entry+0x4c>
     70c:	f100041f 	cmp	x0, #0x1
     710:	54000083 	b.cc	720 <__utee_entry+0x38>
     714:	f100081f 	cmp	x0, #0x2
     718:	54000160 	b.eq	744 <__utee_entry+0x5c>
     71c:	14000010 	b	75c <__utee_entry+0x74>
/home/rex/devel/optee/optee_os/lib/libutee/arch/arm/user_ta_entry.c:229
     720:	f9400fa1 	ldr	x1, [x29,#24]
     724:	f94013a0 	ldr	x0, [x29,#32]
     728:	97ffff83 	bl	534 <entry_open_session>
     72c:	b9003fa0 	str	w0, [x29,#60]
/home/rex/devel/optee/optee_os/lib/libutee/arch/arm/user_ta_entry.c:231
     730:	940000f4 	bl	b00 <utee_boot>
/home/rex/devel/optee/optee_os/lib/libutee/arch/arm/user_ta_entry.c:234
     734:	f94013a0 	ldr	x0, [x29,#32]
     738:	97ffffb1 	bl	5fc <entry_close_session>
     73c:	b9003fa0 	str	w0, [x29,#60]
/home/rex/devel/optee/optee_os/lib/libutee/arch/arm/user_ta_entry.c:235
     740:	14000016 	b	798 <__utee_entry+0xb0>
/home/rex/devel/optee/optee_os/lib/libutee/arch/arm/user_ta_entry.c:237
     744:	f9400ba2 	ldr	x2, [x29,#16]
     748:	f9400fa1 	ldr	x1, [x29,#24]
     74c:	f94013a0 	ldr	x0, [x29,#32]
     750:	97ffffbe 	bl	648 <entry_invoke_command>
     754:	b9003fa0 	str	w0, [x29,#60]
/home/rex/devel/optee/optee_os/lib/libutee/arch/arm/user_ta_entry.c:238
     758:	14000010 	b	798 <__utee_entry+0xb0>
/home/rex/devel/optee/optee_os/lib/libutee/arch/arm/user_ta_entry.c:240
     75c:	12800000 	mov	w0, #0xffffffff            	// #-1
     760:	b9003fa0 	str	w0, [x29,#60]
/home/rex/devel/optee/optee_os/lib/libutee/arch/arm/user_ta_entry.c:241
     764:	f0000060 	adrp	x0, f000 <__compound_literal.5+0xdc>
     768:	91010001 	add	x1, x0, #0x40
     76c:	f0000060 	adrp	x0, f000 <__compound_literal.5+0xdc>
     770:	91014000 	add	x0, x0, #0x50
     774:	52800005 	mov	w5, #0x0                   	// #0
     778:	aa0103e4 	mov	x4, x1
     77c:	52800023 	mov	w3, #0x1                   	// #1
     780:	52800022 	mov	w2, #0x1                   	// #1
     784:	52801e21 	mov	w1, #0xf1                  	// #241
     788:	94001da3 	bl	7e14 <trace_printf>
     78c:	52800000 	mov	w0, #0x0                   	// #0
     790:	940006fc 	bl	2380 <__TEE_Panic>
/home/rex/devel/optee/optee_os/lib/libutee/arch/arm/user_ta_entry.c:242
     794:	d503201f 	nop
/home/rex/devel/optee/optee_os/lib/libutee/arch/arm/user_ta_entry.c:244
     798:	d2800001 	mov	x1, #0x0                   	// #0
     79c:	52800000 	mov	w0, #0x0                   	// #0
     7a0:	97fffea4 	bl	230 <ta_header_save_params>
/home/rex/devel/optee/optee_os/lib/libutee/arch/arm/user_ta_entry.c:245
     7a4:	b9403fa0 	ldr	w0, [x29,#60]
     7a8:	94000001 	bl	7ac <utee_return>

00000000000007ac <utee_return>:
utee_return():
/home/rex/devel/optee/optee_os/lib/libutee/arch/arm/utee_syscalls_asm.S:30
     7ac:	d2800008 	mov	x8, #0x0                   	// #0
     7b0:	d4000001 	svc	#0x0
     7b4:	d65f03c0 	ret

00000000000007b8 <utee_log>:
utee_log():
/home/rex/devel/optee/optee_os/lib/libutee/arch/arm/utee_syscalls_asm.S:32
     7b8:	d2800028 	mov	x8, #0x1                   	// #1
     7bc:	d4000001 	svc	#0x0
     7c0:	d65f03c0 	ret

00000000000007c4 <utee_panic>:
utee_panic():
/home/rex/devel/optee/optee_os/lib/libutee/arch/arm/utee_syscalls_asm.S:34
     7c4:	d2800048 	mov	x8, #0x2                   	// #2
     7c8:	d4000001 	svc	#0x0
     7cc:	d65f03c0 	ret

00000000000007d0 <utee_get_property>:
utee_get_property():
/home/rex/devel/optee/optee_os/lib/libutee/arch/arm/utee_syscalls_asm.S:36
     7d0:	d2800068 	mov	x8, #0x3                   	// #3
     7d4:	d4000001 	svc	#0x0
     7d8:	d65f03c0 	ret

00000000000007dc <utee_get_property_name_to_index>:
utee_get_property_name_to_index():
/home/rex/devel/optee/optee_os/lib/libutee/arch/arm/utee_syscalls_asm.S:38
     7dc:	d2800088 	mov	x8, #0x4                   	// #4
     7e0:	d4000001 	svc	#0x0
     7e4:	d65f03c0 	ret

00000000000007e8 <utee_open_ta_session>:
utee_open_ta_session():
/home/rex/devel/optee/optee_os/lib/libutee/arch/arm/utee_syscalls_asm.S:41
     7e8:	d28000a8 	mov	x8, #0x5                   	// #5
     7ec:	d4000001 	svc	#0x0
     7f0:	d65f03c0 	ret

00000000000007f4 <utee_close_ta_session>:
utee_close_ta_session():
/home/rex/devel/optee/optee_os/lib/libutee/arch/arm/utee_syscalls_asm.S:43
     7f4:	d28000c8 	mov	x8, #0x6                   	// #6
     7f8:	d4000001 	svc	#0x0
     7fc:	d65f03c0 	ret

0000000000000800 <utee_invoke_ta_command>:
utee_invoke_ta_command():
/home/rex/devel/optee/optee_os/lib/libutee/arch/arm/utee_syscalls_asm.S:45
     800:	d28000e8 	mov	x8, #0x7                   	// #7
     804:	d4000001 	svc	#0x0
     808:	d65f03c0 	ret

000000000000080c <utee_get_cancellation_flag>:
utee_get_cancellation_flag():
/home/rex/devel/optee/optee_os/lib/libutee/arch/arm/utee_syscalls_asm.S:47
     80c:	d2800128 	mov	x8, #0x9                   	// #9
     810:	d4000001 	svc	#0x0
     814:	d65f03c0 	ret

0000000000000818 <utee_check_access_rights>:
utee_check_access_rights():
/home/rex/devel/optee/optee_os/lib/libutee/arch/arm/utee_syscalls_asm.S:50
     818:	d2800108 	mov	x8, #0x8                   	// #8
     81c:	d4000001 	svc	#0x0
     820:	d65f03c0 	ret

0000000000000824 <utee_unmask_cancellation>:
utee_unmask_cancellation():
/home/rex/devel/optee/optee_os/lib/libutee/arch/arm/utee_syscalls_asm.S:52
     824:	d2800148 	mov	x8, #0xa                   	// #10
     828:	d4000001 	svc	#0x0
     82c:	d65f03c0 	ret

0000000000000830 <utee_mask_cancellation>:
utee_mask_cancellation():
/home/rex/devel/optee/optee_os/lib/libutee/arch/arm/utee_syscalls_asm.S:54
     830:	d2800168 	mov	x8, #0xb                   	// #11
     834:	d4000001 	svc	#0x0
     838:	d65f03c0 	ret

000000000000083c <utee_wait>:
utee_wait():
/home/rex/devel/optee/optee_os/lib/libutee/arch/arm/utee_syscalls_asm.S:56
     83c:	d2800188 	mov	x8, #0xc                   	// #12
     840:	d4000001 	svc	#0x0
     844:	d65f03c0 	ret

0000000000000848 <utee_get_time>:
utee_get_time():
/home/rex/devel/optee/optee_os/lib/libutee/arch/arm/utee_syscalls_asm.S:58
     848:	d28001a8 	mov	x8, #0xd                   	// #13
     84c:	d4000001 	svc	#0x0
     850:	d65f03c0 	ret

0000000000000854 <utee_set_ta_time>:
utee_set_ta_time():
/home/rex/devel/optee/optee_os/lib/libutee/arch/arm/utee_syscalls_asm.S:60
     854:	d28001c8 	mov	x8, #0xe                   	// #14
     858:	d4000001 	svc	#0x0
     85c:	d65f03c0 	ret

0000000000000860 <utee_cryp_state_alloc>:
utee_cryp_state_alloc():
/home/rex/devel/optee/optee_os/lib/libutee/arch/arm/utee_syscalls_asm.S:62
     860:	d28001e8 	mov	x8, #0xf                   	// #15
     864:	d4000001 	svc	#0x0
     868:	d65f03c0 	ret

000000000000086c <utee_cryp_state_copy>:
utee_cryp_state_copy():
/home/rex/devel/optee/optee_os/lib/libutee/arch/arm/utee_syscalls_asm.S:64
     86c:	d2800208 	mov	x8, #0x10                  	// #16
     870:	d4000001 	svc	#0x0
     874:	d65f03c0 	ret

0000000000000878 <utee_cryp_state_free>:
utee_cryp_state_free():
/home/rex/devel/optee/optee_os/lib/libutee/arch/arm/utee_syscalls_asm.S:66
     878:	d2800228 	mov	x8, #0x11                  	// #17
     87c:	d4000001 	svc	#0x0
     880:	d65f03c0 	ret

0000000000000884 <utee_hash_init>:
utee_hash_init():
/home/rex/devel/optee/optee_os/lib/libutee/arch/arm/utee_syscalls_asm.S:68
     884:	d2800248 	mov	x8, #0x12                  	// #18
     888:	d4000001 	svc	#0x0
     88c:	d65f03c0 	ret

0000000000000890 <utee_hash_update>:
utee_hash_update():
/home/rex/devel/optee/optee_os/lib/libutee/arch/arm/utee_syscalls_asm.S:70
     890:	d2800268 	mov	x8, #0x13                  	// #19
     894:	d4000001 	svc	#0x0
     898:	d65f03c0 	ret

000000000000089c <utee_hash_final>:
utee_hash_final():
/home/rex/devel/optee/optee_os/lib/libutee/arch/arm/utee_syscalls_asm.S:72
     89c:	d2800288 	mov	x8, #0x14                  	// #20
     8a0:	d4000001 	svc	#0x0
     8a4:	d65f03c0 	ret

00000000000008a8 <utee_cipher_init>:
utee_cipher_init():
/home/rex/devel/optee/optee_os/lib/libutee/arch/arm/utee_syscalls_asm.S:74
     8a8:	d28002a8 	mov	x8, #0x15                  	// #21
     8ac:	d4000001 	svc	#0x0
     8b0:	d65f03c0 	ret

00000000000008b4 <utee_cipher_update>:
utee_cipher_update():
/home/rex/devel/optee/optee_os/lib/libutee/arch/arm/utee_syscalls_asm.S:76
     8b4:	d28002c8 	mov	x8, #0x16                  	// #22
     8b8:	d4000001 	svc	#0x0
     8bc:	d65f03c0 	ret

00000000000008c0 <utee_cipher_final>:
utee_cipher_final():
/home/rex/devel/optee/optee_os/lib/libutee/arch/arm/utee_syscalls_asm.S:78
     8c0:	d28002e8 	mov	x8, #0x17                  	// #23
     8c4:	d4000001 	svc	#0x0
     8c8:	d65f03c0 	ret

00000000000008cc <utee_cryp_obj_get_info>:
utee_cryp_obj_get_info():
/home/rex/devel/optee/optee_os/lib/libutee/arch/arm/utee_syscalls_asm.S:80
     8cc:	d2800308 	mov	x8, #0x18                  	// #24
     8d0:	d4000001 	svc	#0x0
     8d4:	d65f03c0 	ret

00000000000008d8 <utee_cryp_obj_restrict_usage>:
utee_cryp_obj_restrict_usage():
/home/rex/devel/optee/optee_os/lib/libutee/arch/arm/utee_syscalls_asm.S:82
     8d8:	d2800328 	mov	x8, #0x19                  	// #25
     8dc:	d4000001 	svc	#0x0
     8e0:	d65f03c0 	ret

00000000000008e4 <utee_cryp_obj_get_attr>:
utee_cryp_obj_get_attr():
/home/rex/devel/optee/optee_os/lib/libutee/arch/arm/utee_syscalls_asm.S:85
     8e4:	d2800348 	mov	x8, #0x1a                  	// #26
     8e8:	d4000001 	svc	#0x0
     8ec:	d65f03c0 	ret

00000000000008f0 <utee_cryp_obj_alloc>:
utee_cryp_obj_alloc():
/home/rex/devel/optee/optee_os/lib/libutee/arch/arm/utee_syscalls_asm.S:87
     8f0:	d2800368 	mov	x8, #0x1b                  	// #27
     8f4:	d4000001 	svc	#0x0
     8f8:	d65f03c0 	ret

00000000000008fc <utee_cryp_obj_close>:
utee_cryp_obj_close():
/home/rex/devel/optee/optee_os/lib/libutee/arch/arm/utee_syscalls_asm.S:89
     8fc:	d2800388 	mov	x8, #0x1c                  	// #28
     900:	d4000001 	svc	#0x0
     904:	d65f03c0 	ret

0000000000000908 <utee_cryp_obj_reset>:
utee_cryp_obj_reset():
/home/rex/devel/optee/optee_os/lib/libutee/arch/arm/utee_syscalls_asm.S:91
     908:	d28003a8 	mov	x8, #0x1d                  	// #29
     90c:	d4000001 	svc	#0x0
     910:	d65f03c0 	ret

0000000000000914 <utee_cryp_obj_populate>:
utee_cryp_obj_populate():
/home/rex/devel/optee/optee_os/lib/libutee/arch/arm/utee_syscalls_asm.S:93
     914:	d28003c8 	mov	x8, #0x1e                  	// #30
     918:	d4000001 	svc	#0x0
     91c:	d65f03c0 	ret

0000000000000920 <utee_cryp_obj_copy>:
utee_cryp_obj_copy():
/home/rex/devel/optee/optee_os/lib/libutee/arch/arm/utee_syscalls_asm.S:95
     920:	d28003e8 	mov	x8, #0x1f                  	// #31
     924:	d4000001 	svc	#0x0
     928:	d65f03c0 	ret

000000000000092c <utee_cryp_derive_key>:
utee_cryp_derive_key():
/home/rex/devel/optee/optee_os/lib/libutee/arch/arm/utee_syscalls_asm.S:97
     92c:	d2800408 	mov	x8, #0x20                  	// #32
     930:	d4000001 	svc	#0x0
     934:	d65f03c0 	ret

0000000000000938 <utee_cryp_random_number_generate>:
utee_cryp_random_number_generate():
/home/rex/devel/optee/optee_os/lib/libutee/arch/arm/utee_syscalls_asm.S:99
     938:	d2800428 	mov	x8, #0x21                  	// #33
     93c:	d4000001 	svc	#0x0
     940:	d65f03c0 	ret

0000000000000944 <utee_authenc_init>:
utee_authenc_init():
/home/rex/devel/optee/optee_os/lib/libutee/arch/arm/utee_syscalls_asm.S:102
     944:	d2800448 	mov	x8, #0x22                  	// #34
     948:	d4000001 	svc	#0x0
     94c:	d65f03c0 	ret

0000000000000950 <utee_authenc_update_aad>:
utee_authenc_update_aad():
/home/rex/devel/optee/optee_os/lib/libutee/arch/arm/utee_syscalls_asm.S:104
     950:	d2800468 	mov	x8, #0x23                  	// #35
     954:	d4000001 	svc	#0x0
     958:	d65f03c0 	ret

000000000000095c <utee_authenc_update_payload>:
utee_authenc_update_payload():
/home/rex/devel/optee/optee_os/lib/libutee/arch/arm/utee_syscalls_asm.S:106
     95c:	d2800488 	mov	x8, #0x24                  	// #36
     960:	d4000001 	svc	#0x0
     964:	d65f03c0 	ret

0000000000000968 <utee_authenc_enc_final>:
utee_authenc_enc_final():
/home/rex/devel/optee/optee_os/lib/libutee/arch/arm/utee_syscalls_asm.S:109
     968:	d28004a8 	mov	x8, #0x25                  	// #37
     96c:	d4000001 	svc	#0x0
     970:	d65f03c0 	ret

0000000000000974 <utee_authenc_dec_final>:
utee_authenc_dec_final():
/home/rex/devel/optee/optee_os/lib/libutee/arch/arm/utee_syscalls_asm.S:111
     974:	d28004c8 	mov	x8, #0x26                  	// #38
     978:	d4000001 	svc	#0x0
     97c:	d65f03c0 	ret

0000000000000980 <utee_asymm_operate>:
utee_asymm_operate():
/home/rex/devel/optee/optee_os/lib/libutee/arch/arm/utee_syscalls_asm.S:113
     980:	d28004e8 	mov	x8, #0x27                  	// #39
     984:	d4000001 	svc	#0x0
     988:	d65f03c0 	ret

000000000000098c <utee_asymm_verify>:
utee_asymm_verify():
/home/rex/devel/optee/optee_os/lib/libutee/arch/arm/utee_syscalls_asm.S:115
     98c:	d2800508 	mov	x8, #0x28                  	// #40
     990:	d4000001 	svc	#0x0
     994:	d65f03c0 	ret

0000000000000998 <utee_storage_obj_open>:
utee_storage_obj_open():
/home/rex/devel/optee/optee_os/lib/libutee/arch/arm/utee_syscalls_asm.S:117
     998:	d2800528 	mov	x8, #0x29                  	// #41
     99c:	d4000001 	svc	#0x0
     9a0:	d65f03c0 	ret

00000000000009a4 <utee_storage_obj_create>:
utee_storage_obj_create():
/home/rex/devel/optee/optee_os/lib/libutee/arch/arm/utee_syscalls_asm.S:119
     9a4:	d2800548 	mov	x8, #0x2a                  	// #42
     9a8:	d4000001 	svc	#0x0
     9ac:	d65f03c0 	ret

00000000000009b0 <utee_storage_obj_del>:
utee_storage_obj_del():
/home/rex/devel/optee/optee_os/lib/libutee/arch/arm/utee_syscalls_asm.S:121
     9b0:	d2800568 	mov	x8, #0x2b                  	// #43
     9b4:	d4000001 	svc	#0x0
     9b8:	d65f03c0 	ret

00000000000009bc <utee_storage_obj_rename>:
utee_storage_obj_rename():
/home/rex/devel/optee/optee_os/lib/libutee/arch/arm/utee_syscalls_asm.S:123
     9bc:	d2800588 	mov	x8, #0x2c                  	// #44
     9c0:	d4000001 	svc	#0x0
     9c4:	d65f03c0 	ret

00000000000009c8 <utee_storage_alloc_enum>:
utee_storage_alloc_enum():
/home/rex/devel/optee/optee_os/lib/libutee/arch/arm/utee_syscalls_asm.S:125
     9c8:	d28005a8 	mov	x8, #0x2d                  	// #45
     9cc:	d4000001 	svc	#0x0
     9d0:	d65f03c0 	ret

00000000000009d4 <utee_storage_free_enum>:
utee_storage_free_enum():
/home/rex/devel/optee/optee_os/lib/libutee/arch/arm/utee_syscalls_asm.S:127
     9d4:	d28005c8 	mov	x8, #0x2e                  	// #46
     9d8:	d4000001 	svc	#0x0
     9dc:	d65f03c0 	ret

00000000000009e0 <utee_storage_reset_enum>:
utee_storage_reset_enum():
/home/rex/devel/optee/optee_os/lib/libutee/arch/arm/utee_syscalls_asm.S:129
     9e0:	d28005e8 	mov	x8, #0x2f                  	// #47
     9e4:	d4000001 	svc	#0x0
     9e8:	d65f03c0 	ret

00000000000009ec <utee_storage_start_enum>:
utee_storage_start_enum():
/home/rex/devel/optee/optee_os/lib/libutee/arch/arm/utee_syscalls_asm.S:131
     9ec:	d2800608 	mov	x8, #0x30                  	// #48
     9f0:	d4000001 	svc	#0x0
     9f4:	d65f03c0 	ret

00000000000009f8 <utee_storage_next_enum>:
utee_storage_next_enum():
/home/rex/devel/optee/optee_os/lib/libutee/arch/arm/utee_syscalls_asm.S:133
     9f8:	d2800628 	mov	x8, #0x31                  	// #49
     9fc:	d4000001 	svc	#0x0
     a00:	d65f03c0 	ret

0000000000000a04 <utee_storage_obj_read>:
utee_storage_obj_read():
/home/rex/devel/optee/optee_os/lib/libutee/arch/arm/utee_syscalls_asm.S:135
     a04:	d2800648 	mov	x8, #0x32                  	// #50
     a08:	d4000001 	svc	#0x0
     a0c:	d65f03c0 	ret

0000000000000a10 <utee_storage_obj_write>:
utee_storage_obj_write():
/home/rex/devel/optee/optee_os/lib/libutee/arch/arm/utee_syscalls_asm.S:137
     a10:	d2800668 	mov	x8, #0x33                  	// #51
     a14:	d4000001 	svc	#0x0
     a18:	d65f03c0 	ret

0000000000000a1c <utee_storage_obj_trunc>:
utee_storage_obj_trunc():
/home/rex/devel/optee/optee_os/lib/libutee/arch/arm/utee_syscalls_asm.S:139
     a1c:	d2800688 	mov	x8, #0x34                  	// #52
     a20:	d4000001 	svc	#0x0
     a24:	d65f03c0 	ret

0000000000000a28 <utee_storage_obj_seek>:
utee_storage_obj_seek():
/home/rex/devel/optee/optee_os/lib/libutee/arch/arm/utee_syscalls_asm.S:141
     a28:	d28006a8 	mov	x8, #0x35                  	// #53
     a2c:	d4000001 	svc	#0x0
     a30:	d65f03c0 	ret

0000000000000a34 <utee_cryp_obj_generate_key>:
utee_cryp_obj_generate_key():
/home/rex/devel/optee/optee_os/lib/libutee/arch/arm/utee_syscalls_asm.S:143
     a34:	d28006c8 	mov	x8, #0x36                  	// #54
     a38:	d4000001 	svc	#0x0
     a3c:	d65f03c0 	ret

0000000000000a40 <utee_se_service_open>:
utee_se_service_open():
/home/rex/devel/optee/optee_os/lib/libutee/arch/arm/utee_syscalls_asm.S:146
     a40:	d28006e8 	mov	x8, #0x37                  	// #55
     a44:	d4000001 	svc	#0x0
     a48:	d65f03c0 	ret

0000000000000a4c <utee_se_service_close>:
utee_se_service_close():
/home/rex/devel/optee/optee_os/lib/libutee/arch/arm/utee_syscalls_asm.S:148
     a4c:	d2800708 	mov	x8, #0x38                  	// #56
     a50:	d4000001 	svc	#0x0
     a54:	d65f03c0 	ret

0000000000000a58 <utee_se_service_get_readers>:
utee_se_service_get_readers():
/home/rex/devel/optee/optee_os/lib/libutee/arch/arm/utee_syscalls_asm.S:150
     a58:	d2800728 	mov	x8, #0x39                  	// #57
     a5c:	d4000001 	svc	#0x0
     a60:	d65f03c0 	ret

0000000000000a64 <utee_se_reader_get_prop>:
utee_se_reader_get_prop():
/home/rex/devel/optee/optee_os/lib/libutee/arch/arm/utee_syscalls_asm.S:153
     a64:	d2800748 	mov	x8, #0x3a                  	// #58
     a68:	d4000001 	svc	#0x0
     a6c:	d65f03c0 	ret

0000000000000a70 <utee_se_reader_get_name>:
utee_se_reader_get_name():
/home/rex/devel/optee/optee_os/lib/libutee/arch/arm/utee_syscalls_asm.S:156
     a70:	d2800768 	mov	x8, #0x3b                  	// #59
     a74:	d4000001 	svc	#0x0
     a78:	d65f03c0 	ret

0000000000000a7c <utee_se_reader_open_session>:
utee_se_reader_open_session():
/home/rex/devel/optee/optee_os/lib/libutee/arch/arm/utee_syscalls_asm.S:159
     a7c:	d2800788 	mov	x8, #0x3c                  	// #60
     a80:	d4000001 	svc	#0x0
     a84:	d65f03c0 	ret

0000000000000a88 <utee_se_reader_close_sessions>:
utee_se_reader_close_sessions():
/home/rex/devel/optee/optee_os/lib/libutee/arch/arm/utee_syscalls_asm.S:162
     a88:	d28007a8 	mov	x8, #0x3d                  	// #61
     a8c:	d4000001 	svc	#0x0
     a90:	d65f03c0 	ret

0000000000000a94 <utee_se_session_is_closed>:
utee_se_session_is_closed():
/home/rex/devel/optee/optee_os/lib/libutee/arch/arm/utee_syscalls_asm.S:165
     a94:	d28007c8 	mov	x8, #0x3e                  	// #62
     a98:	d4000001 	svc	#0x0
     a9c:	d65f03c0 	ret

0000000000000aa0 <utee_se_session_get_atr>:
utee_se_session_get_atr():
/home/rex/devel/optee/optee_os/lib/libutee/arch/arm/utee_syscalls_asm.S:168
     aa0:	d28007e8 	mov	x8, #0x3f                  	// #63
     aa4:	d4000001 	svc	#0x0
     aa8:	d65f03c0 	ret

0000000000000aac <utee_se_session_open_channel>:
utee_se_session_open_channel():
/home/rex/devel/optee/optee_os/lib/libutee/arch/arm/utee_syscalls_asm.S:171
     aac:	d2800808 	mov	x8, #0x40                  	// #64
     ab0:	d4000001 	svc	#0x0
     ab4:	d65f03c0 	ret

0000000000000ab8 <utee_se_session_close>:
utee_se_session_close():
/home/rex/devel/optee/optee_os/lib/libutee/arch/arm/utee_syscalls_asm.S:174
     ab8:	d2800828 	mov	x8, #0x41                  	// #65
     abc:	d4000001 	svc	#0x0
     ac0:	d65f03c0 	ret

0000000000000ac4 <utee_se_channel_select_next>:
utee_se_channel_select_next():
/home/rex/devel/optee/optee_os/lib/libutee/arch/arm/utee_syscalls_asm.S:177
     ac4:	d2800848 	mov	x8, #0x42                  	// #66
     ac8:	d4000001 	svc	#0x0
     acc:	d65f03c0 	ret

0000000000000ad0 <utee_se_channel_get_select_resp>:
utee_se_channel_get_select_resp():
/home/rex/devel/optee/optee_os/lib/libutee/arch/arm/utee_syscalls_asm.S:180
     ad0:	d2800868 	mov	x8, #0x43                  	// #67
     ad4:	d4000001 	svc	#0x0
     ad8:	d65f03c0 	ret

0000000000000adc <utee_se_channel_transmit>:
utee_se_channel_transmit():
/home/rex/devel/optee/optee_os/lib/libutee/arch/arm/utee_syscalls_asm.S:183
     adc:	d2800888 	mov	x8, #0x44                  	// #68
     ae0:	d4000001 	svc	#0x0
     ae4:	d65f03c0 	ret

0000000000000ae8 <utee_se_channel_close>:
utee_se_channel_close():
/home/rex/devel/optee/optee_os/lib/libutee/arch/arm/utee_syscalls_asm.S:186
     ae8:	d28008a8 	mov	x8, #0x45                  	// #69
     aec:	d4000001 	svc	#0x0
     af0:	d65f03c0 	ret

0000000000000af4 <utee_cache_operation>:
utee_cache_operation():
/home/rex/devel/optee/optee_os/lib/libutee/arch/arm/utee_syscalls_asm.S:189
     af4:	d28008c8 	mov	x8, #0x46                  	// #70
     af8:	d4000001 	svc	#0x0
     afc:	d65f03c0 	ret

0000000000000b00 <utee_boot>:
utee_boot():
/home/rex/devel/optee/optee_os/lib/libutee/arch/arm/utee_syscalls_asm.S:192
     b00:	d28008e8 	mov	x8, #0x47                  	// #71
     b04:	d4000001 	svc	#0x0
     b08:	d65f03c0 	ret

0000000000000b0c <__utee_mcount>:
__utee_mcount():
/home/rex/devel/optee/optee_os/lib/libutee/arch/arm/gprof/gprof_a64.S:74
     b0c:	d65f03c0 	ret

0000000000000b10 <TEE_BigInt_Panic>:
TEE_BigInt_Panic():
/home/rex/devel/optee/optee_os/lib/libutee/tee_api_arith.c:63
     b10:	a9be7bfd 	stp	x29, x30, [sp,#-32]!
     b14:	910003fd 	mov	x29, sp
     b18:	f9000fa0 	str	x0, [x29,#24]
/home/rex/devel/optee/optee_os/lib/libutee/tee_api_arith.c:64
     b1c:	f0000060 	adrp	x0, f000 <__compound_literal.5+0xdc>
     b20:	91018000 	add	x0, x0, #0x60
     b24:	f9400fa1 	ldr	x1, [x29,#24]
     b28:	940008f3 	bl	2ef4 <printf>
/home/rex/devel/optee/optee_os/lib/libutee/tee_api_arith.c:65
     b2c:	f0000060 	adrp	x0, f000 <__compound_literal.5+0xdc>
     b30:	9101c001 	add	x1, x0, #0x70
     b34:	f0000060 	adrp	x0, f000 <__compound_literal.5+0xdc>
     b38:	91036000 	add	x0, x0, #0xd8
     b3c:	528c24e5 	mov	w5, #0x6127                	// #24871
     b40:	72a01625 	movk	w5, #0xb1, lsl #16
     b44:	aa0103e4 	mov	x4, x1
     b48:	52800023 	mov	w3, #0x1                   	// #1
     b4c:	52800022 	mov	w2, #0x1                   	// #1
     b50:	52800821 	mov	w1, #0x41                  	// #65
     b54:	94001cb0 	bl	7e14 <trace_printf>
     b58:	528c24e0 	mov	w0, #0x6127                	// #24871
     b5c:	72a01620 	movk	w0, #0xb1, lsl #16
     b60:	94000608 	bl	2380 <__TEE_Panic>
/home/rex/devel/optee/optee_os/lib/libutee/tee_api_arith.c:66 (discriminator 1)
     b64:	14000000 	b	b64 <TEE_BigInt_Panic+0x54>

0000000000000b68 <_TEE_MathAPI_Init>:
_TEE_MathAPI_Init():
/home/rex/devel/optee/optee_os/lib/libutee/tee_api_arith.c:78
     b68:	a9bf7bfd 	stp	x29, x30, [sp,#-16]!
     b6c:	910003fd 	mov	x29, sp
/home/rex/devel/optee/optee_os/lib/libutee/tee_api_arith.c:79
     b70:	d0000080 	adrp	x0, 12000 <ta_props>
     b74:	9103c000 	add	x0, x0, #0xf0
     b78:	f9400000 	ldr	x0, [x0]
     b7c:	52810002 	mov	w2, #0x800                 	// #2048
     b80:	d2836801 	mov	x1, #0x1b40                	// #6976
     b84:	94002941 	bl	b088 <mpa_init_scratch_mem>
/home/rex/devel/optee/optee_os/lib/libutee/tee_api_arith.c:81
     b88:	90000080 	adrp	x0, 10000 <PRIME_TABLE+0x408>
     b8c:	f9462000 	ldr	x0, [x0,#3136]
     b90:	94002b87 	bl	b9ac <mpa_set_random_generator>
/home/rex/devel/optee/optee_os/lib/libutee/tee_api_arith.c:82
     b94:	d503201f 	nop
     b98:	a8c17bfd 	ldp	x29, x30, [sp],#16
     b9c:	d65f03c0 	ret

0000000000000ba0 <TEE_BigIntInit>:
TEE_BigIntInit():
/home/rex/devel/optee/optee_os/lib/libutee/tee_api_arith.c:88
     ba0:	a9be7bfd 	stp	x29, x30, [sp,#-32]!
     ba4:	910003fd 	mov	x29, sp
     ba8:	f9000fa0 	str	x0, [x29,#24]
     bac:	b90017a1 	str	w1, [x29,#20]
/home/rex/devel/optee/optee_os/lib/libutee/tee_api_arith.c:89
     bb0:	b94017a1 	ldr	w1, [x29,#20]
     bb4:	f9400fa0 	ldr	x0, [x29,#24]
     bb8:	940033f0 	bl	db78 <mpa_init_static>
/home/rex/devel/optee/optee_os/lib/libutee/tee_api_arith.c:90
     bbc:	d503201f 	nop
     bc0:	a8c27bfd 	ldp	x29, x30, [sp],#32
     bc4:	d65f03c0 	ret

0000000000000bc8 <TEE_BigIntInitFMM>:
TEE_BigIntInitFMM():
/home/rex/devel/optee/optee_os/lib/libutee/tee_api_arith.c:96
     bc8:	d10083ff 	sub	sp, sp, #0x20
     bcc:	f90007e0 	str	x0, [sp,#8]
     bd0:	b90007e1 	str	w1, [sp,#4]
/home/rex/devel/optee/optee_os/lib/libutee/tee_api_arith.c:97
     bd4:	f94007e0 	ldr	x0, [sp,#8]
     bd8:	f9000fe0 	str	x0, [sp,#24]
/home/rex/devel/optee/optee_os/lib/libutee/tee_api_arith.c:99
     bdc:	b94007e1 	ldr	w1, [sp,#4]
     be0:	321f73e0 	mov	w0, #0x3ffffffe            	// #1073741822
     be4:	0b000020 	add	w0, w1, w0
     be8:	531e7400 	lsl	w0, w0, #2
     bec:	2a0003e0 	mov	w0, w0
     bf0:	91000c00 	add	x0, x0, #0x3
     bf4:	d342fc00 	lsr	x0, x0, #2
     bf8:	2a0003e1 	mov	w1, w0
     bfc:	f9400fe0 	ldr	x0, [sp,#24]
     c00:	b9000001 	str	w1, [x0]
/home/rex/devel/optee/optee_os/lib/libutee/tee_api_arith.c:100
     c04:	f9400fe0 	ldr	x0, [sp,#24]
     c08:	b900041f 	str	wzr, [x0,#4]
/home/rex/devel/optee/optee_os/lib/libutee/tee_api_arith.c:101
     c0c:	d503201f 	nop
     c10:	910083ff 	add	sp, sp, #0x20
     c14:	d65f03c0 	ret

0000000000000c18 <TEE_BigIntInitFMMContext>:
TEE_BigIntInitFMMContext():
/home/rex/devel/optee/optee_os/lib/libutee/tee_api_arith.c:108
     c18:	a9bc7bfd 	stp	x29, x30, [sp,#-64]!
     c1c:	910003fd 	mov	x29, sp
     c20:	f90017a0 	str	x0, [x29,#40]
     c24:	b90027a1 	str	w1, [x29,#36]
     c28:	f9000fa2 	str	x2, [x29,#24]
/home/rex/devel/optee/optee_os/lib/libutee/tee_api_arith.c:109
     c2c:	f94017a0 	ldr	x0, [x29,#40]
     c30:	f9001fa0 	str	x0, [x29,#56]
/home/rex/devel/optee/optee_os/lib/libutee/tee_api_arith.c:110
     c34:	f9400fa0 	ldr	x0, [x29,#24]
     c38:	f9001ba0 	str	x0, [x29,#48]
/home/rex/devel/optee/optee_os/lib/libutee/tee_api_arith.c:112
     c3c:	b94027a1 	ldr	w1, [x29,#36]
     c40:	f9401fa0 	ldr	x0, [x29,#56]
     c44:	940033e5 	bl	dbd8 <mpa_init_static_fmm_context>
/home/rex/devel/optee/optee_os/lib/libutee/tee_api_arith.c:113
     c48:	f9401fa0 	ldr	x0, [x29,#56]
     c4c:	f9400001 	ldr	x1, [x0]
     c50:	f9401fa0 	ldr	x0, [x29,#56]
     c54:	f9400402 	ldr	x2, [x0,#8]
     c58:	f9401fa0 	ldr	x0, [x29,#56]
     c5c:	91004003 	add	x3, x0, #0x10
     c60:	d0000080 	adrp	x0, 12000 <ta_props>
     c64:	9103c000 	add	x0, x0, #0xf0
     c68:	f9400000 	ldr	x0, [x0]
     c6c:	aa0003e4 	mov	x4, x0
     c70:	f9401ba0 	ldr	x0, [x29,#48]
     c74:	94001fc4 	bl	8b84 <mpa_compute_fmm_context>
/home/rex/devel/optee/optee_os/lib/libutee/tee_api_arith.c:116
     c78:	d503201f 	nop
     c7c:	a8c47bfd 	ldp	x29, x30, [sp],#64
     c80:	d65f03c0 	ret

0000000000000c84 <TEE_BigIntFMMSizeInU32>:
TEE_BigIntFMMSizeInU32():
/home/rex/devel/optee/optee_os/lib/libutee/tee_api_arith.c:126
     c84:	d10043ff 	sub	sp, sp, #0x10
     c88:	b9000fe0 	str	w0, [sp,#12]
/home/rex/devel/optee/optee_os/lib/libutee/tee_api_arith.c:127
     c8c:	b9400fe0 	ldr	w0, [sp,#12]
     c90:	11007c00 	add	w0, w0, #0x1f
     c94:	53057c00 	lsr	w0, w0, #5
     c98:	11000c00 	add	w0, w0, #0x3
/home/rex/devel/optee/optee_os/lib/libutee/tee_api_arith.c:128
     c9c:	910043ff 	add	sp, sp, #0x10
     ca0:	d65f03c0 	ret

0000000000000ca4 <TEE_BigIntFMMContextSizeInU32>:
TEE_BigIntFMMContextSizeInU32():
/home/rex/devel/optee/optee_os/lib/libutee/tee_api_arith.c:134
     ca4:	d10043ff 	sub	sp, sp, #0x10
     ca8:	b9000fe0 	str	w0, [sp,#12]
/home/rex/devel/optee/optee_os/lib/libutee/tee_api_arith.c:135
     cac:	b9400fe0 	ldr	w0, [sp,#12]
     cb0:	11007c00 	add	w0, w0, #0x1f
     cb4:	53057c00 	lsr	w0, w0, #5
     cb8:	11001c00 	add	w0, w0, #0x7
     cbc:	531f7800 	lsl	w0, w0, #1
/home/rex/devel/optee/optee_os/lib/libutee/tee_api_arith.c:136
     cc0:	910043ff 	add	sp, sp, #0x10
     cc4:	d65f03c0 	ret

0000000000000cc8 <TEE_BigIntConvertFromOctetString>:
TEE_BigIntConvertFromOctetString():
/home/rex/devel/optee/optee_os/lib/libutee/tee_api_arith.c:149
     cc8:	a9bb7bfd 	stp	x29, x30, [sp,#-80]!
     ccc:	910003fd 	mov	x29, sp
     cd0:	f90017a0 	str	x0, [x29,#40]
     cd4:	f90013a1 	str	x1, [x29,#32]
     cd8:	b9001fa2 	str	w2, [x29,#28]
     cdc:	b9001ba3 	str	w3, [x29,#24]
/home/rex/devel/optee/optee_os/lib/libutee/tee_api_arith.c:151
     ce0:	f94017a0 	ldr	x0, [x29,#40]
     ce4:	f90023a0 	str	x0, [x29,#64]
/home/rex/devel/optee/optee_os/lib/libutee/tee_api_arith.c:152
     ce8:	b9401ba0 	ldr	w0, [x29,#24]
     cec:	531f7c00 	lsr	w0, w0, #31
     cf0:	3900ffa0 	strb	w0, [x29,#63]
/home/rex/devel/optee/optee_os/lib/libutee/tee_api_arith.c:154
     cf4:	b9401fa0 	ldr	w0, [x29,#28]
     cf8:	3940ffa3 	ldrb	w3, [x29,#63]
     cfc:	aa0003e2 	mov	x2, x0
     d00:	f94013a1 	ldr	x1, [x29,#32]
     d04:	f94023a0 	ldr	x0, [x29,#64]
     d08:	940036bf 	bl	e804 <mpa_set_oct_str>
     d0c:	7100001f 	cmp	w0, #0x0
     d10:	54000080 	b.eq	d20 <TEE_BigIntConvertFromOctetString+0x58>
/home/rex/devel/optee/optee_os/lib/libutee/tee_api_arith.c:155
     d14:	1299fe00 	mov	w0, #0xffff300f            	// #-53233
     d18:	b9004fa0 	str	w0, [x29,#76]
     d1c:	14000002 	b	d24 <TEE_BigIntConvertFromOctetString+0x5c>
/home/rex/devel/optee/optee_os/lib/libutee/tee_api_arith.c:157
     d20:	b9004fbf 	str	wzr, [x29,#76]
/home/rex/devel/optee/optee_os/lib/libutee/tee_api_arith.c:159
     d24:	b9404fa0 	ldr	w0, [x29,#76]
     d28:	7100001f 	cmp	w0, #0x0
     d2c:	54000220 	b.eq	d70 <TEE_BigIntConvertFromOctetString+0xa8>
/home/rex/devel/optee/optee_os/lib/libutee/tee_api_arith.c:159 (discriminator 1)
     d30:	b9404fa1 	ldr	w1, [x29,#76]
     d34:	1299fe00 	mov	w0, #0xffff300f            	// #-53233
     d38:	6b00003f 	cmp	w1, w0
     d3c:	540001a0 	b.eq	d70 <TEE_BigIntConvertFromOctetString+0xa8>
/home/rex/devel/optee/optee_os/lib/libutee/tee_api_arith.c:161
     d40:	f0000060 	adrp	x0, f000 <__compound_literal.5+0xdc>
     d44:	9101c001 	add	x1, x0, #0x70
     d48:	f0000060 	adrp	x0, f000 <__compound_literal.5+0xdc>
     d4c:	9103c000 	add	x0, x0, #0xf0
     d50:	b9404fa5 	ldr	w5, [x29,#76]
     d54:	aa0103e4 	mov	x4, x1
     d58:	52800023 	mov	w3, #0x1                   	// #1
     d5c:	52800022 	mov	w2, #0x1                   	// #1
     d60:	52801421 	mov	w1, #0xa1                  	// #161
     d64:	94001c2c 	bl	7e14 <trace_printf>
     d68:	b9404fa0 	ldr	w0, [x29,#76]
     d6c:	94000585 	bl	2380 <__TEE_Panic>
/home/rex/devel/optee/optee_os/lib/libutee/tee_api_arith.c:163
     d70:	b9404fa0 	ldr	w0, [x29,#76]
/home/rex/devel/optee/optee_os/lib/libutee/tee_api_arith.c:164
     d74:	a8c57bfd 	ldp	x29, x30, [sp],#80
     d78:	d65f03c0 	ret

0000000000000d7c <TEE_BigIntConvertToOctetString>:
TEE_BigIntConvertToOctetString():
/home/rex/devel/optee/optee_os/lib/libutee/tee_api_arith.c:172
     d7c:	a9bb7bfd 	stp	x29, x30, [sp,#-80]!
     d80:	910003fd 	mov	x29, sp
     d84:	f90017a0 	str	x0, [x29,#40]
     d88:	f90013a1 	str	x1, [x29,#32]
     d8c:	f9000fa2 	str	x2, [x29,#24]
/home/rex/devel/optee/optee_os/lib/libutee/tee_api_arith.c:173
     d90:	f9400fa0 	ldr	x0, [x29,#24]
     d94:	f90023a0 	str	x0, [x29,#64]
/home/rex/devel/optee/optee_os/lib/libutee/tee_api_arith.c:174
     d98:	f94013a0 	ldr	x0, [x29,#32]
     d9c:	b9400000 	ldr	w0, [x0]
     da0:	2a0003e0 	mov	w0, w0
     da4:	f9001fa0 	str	x0, [x29,#56]
/home/rex/devel/optee/optee_os/lib/libutee/tee_api_arith.c:177
     da8:	9100e3a0 	add	x0, x29, #0x38
     dac:	f94023a2 	ldr	x2, [x29,#64]
     db0:	aa0003e1 	mov	x1, x0
     db4:	f94017a0 	ldr	x0, [x29,#40]
     db8:	94003709 	bl	e9dc <mpa_get_oct_str>
     dbc:	7100001f 	cmp	w0, #0x0
     dc0:	54000080 	b.eq	dd0 <TEE_BigIntConvertToOctetString+0x54>
/home/rex/devel/optee/optee_os/lib/libutee/tee_api_arith.c:178
     dc4:	129ffde0 	mov	w0, #0xffff0010            	// #-65520
     dc8:	b9004fa0 	str	w0, [x29,#76]
     dcc:	14000002 	b	dd4 <TEE_BigIntConvertToOctetString+0x58>
/home/rex/devel/optee/optee_os/lib/libutee/tee_api_arith.c:180
     dd0:	b9004fbf 	str	wzr, [x29,#76]
/home/rex/devel/optee/optee_os/lib/libutee/tee_api_arith.c:182
     dd4:	f9401fa0 	ldr	x0, [x29,#56]
     dd8:	2a0003e1 	mov	w1, w0
     ddc:	f94013a0 	ldr	x0, [x29,#32]
     de0:	b9000001 	str	w1, [x0]
/home/rex/devel/optee/optee_os/lib/libutee/tee_api_arith.c:184
     de4:	b9404fa0 	ldr	w0, [x29,#76]
     de8:	7100001f 	cmp	w0, #0x0
     dec:	54000220 	b.eq	e30 <TEE_BigIntConvertToOctetString+0xb4>
/home/rex/devel/optee/optee_os/lib/libutee/tee_api_arith.c:184 (discriminator 1)
     df0:	b9404fa1 	ldr	w1, [x29,#76]
     df4:	129ffde0 	mov	w0, #0xffff0010            	// #-65520
     df8:	6b00003f 	cmp	w1, w0
     dfc:	540001a0 	b.eq	e30 <TEE_BigIntConvertToOctetString+0xb4>
/home/rex/devel/optee/optee_os/lib/libutee/tee_api_arith.c:186
     e00:	f0000060 	adrp	x0, f000 <__compound_literal.5+0xdc>
     e04:	9101c001 	add	x1, x0, #0x70
     e08:	f0000060 	adrp	x0, f000 <__compound_literal.5+0xdc>
     e0c:	91046000 	add	x0, x0, #0x118
     e10:	b9404fa5 	ldr	w5, [x29,#76]
     e14:	aa0103e4 	mov	x4, x1
     e18:	52800023 	mov	w3, #0x1                   	// #1
     e1c:	52800022 	mov	w2, #0x1                   	// #1
     e20:	52801741 	mov	w1, #0xba                  	// #186
     e24:	94001bfc 	bl	7e14 <trace_printf>
     e28:	b9404fa0 	ldr	w0, [x29,#76]
     e2c:	94000555 	bl	2380 <__TEE_Panic>
/home/rex/devel/optee/optee_os/lib/libutee/tee_api_arith.c:188
     e30:	b9404fa0 	ldr	w0, [x29,#76]
/home/rex/devel/optee/optee_os/lib/libutee/tee_api_arith.c:189
     e34:	a8c57bfd 	ldp	x29, x30, [sp],#80
     e38:	d65f03c0 	ret

0000000000000e3c <TEE_BigIntConvertFromS32>:
TEE_BigIntConvertFromS32():
/home/rex/devel/optee/optee_os/lib/libutee/tee_api_arith.c:195
     e3c:	a9bd7bfd 	stp	x29, x30, [sp,#-48]!
     e40:	910003fd 	mov	x29, sp
     e44:	f9000fa0 	str	x0, [x29,#24]
     e48:	b90017a1 	str	w1, [x29,#20]
/home/rex/devel/optee/optee_os/lib/libutee/tee_api_arith.c:196
     e4c:	f9400fa0 	ldr	x0, [x29,#24]
     e50:	f90017a0 	str	x0, [x29,#40]
/home/rex/devel/optee/optee_os/lib/libutee/tee_api_arith.c:199
     e54:	b94017a1 	ldr	w1, [x29,#20]
     e58:	f94017a0 	ldr	x0, [x29,#40]
     e5c:	94002120 	bl	92dc <mpa_set_S32>
/home/rex/devel/optee/optee_os/lib/libutee/tee_api_arith.c:203
     e60:	d503201f 	nop
     e64:	a8c37bfd 	ldp	x29, x30, [sp],#48
     e68:	d65f03c0 	ret

0000000000000e6c <TEE_BigIntConvertToS32>:
TEE_BigIntConvertToS32():
/home/rex/devel/optee/optee_os/lib/libutee/tee_api_arith.c:209
     e6c:	a9bd7bfd 	stp	x29, x30, [sp,#-48]!
     e70:	910003fd 	mov	x29, sp
     e74:	f9000fa0 	str	x0, [x29,#24]
     e78:	f9000ba1 	str	x1, [x29,#16]
/home/rex/devel/optee/optee_os/lib/libutee/tee_api_arith.c:211
     e7c:	f9400ba0 	ldr	x0, [x29,#16]
     e80:	f90013a0 	str	x0, [x29,#32]
/home/rex/devel/optee/optee_os/lib/libutee/tee_api_arith.c:213
     e84:	f94013a1 	ldr	x1, [x29,#32]
     e88:	f9400fa0 	ldr	x0, [x29,#24]
     e8c:	9400212e 	bl	9344 <mpa_get_S32>
     e90:	7100001f 	cmp	w0, #0x0
     e94:	54000061 	b.ne	ea0 <TEE_BigIntConvertToS32+0x34>
/home/rex/devel/optee/optee_os/lib/libutee/tee_api_arith.c:214
     e98:	b9002fbf 	str	wzr, [x29,#44]
     e9c:	14000003 	b	ea8 <TEE_BigIntConvertToS32+0x3c>
/home/rex/devel/optee/optee_os/lib/libutee/tee_api_arith.c:216
     ea0:	1299fe00 	mov	w0, #0xffff300f            	// #-53233
     ea4:	b9002fa0 	str	w0, [x29,#44]
/home/rex/devel/optee/optee_os/lib/libutee/tee_api_arith.c:218
     ea8:	b9402fa0 	ldr	w0, [x29,#44]
     eac:	7100001f 	cmp	w0, #0x0
     eb0:	54000220 	b.eq	ef4 <TEE_BigIntConvertToS32+0x88>
/home/rex/devel/optee/optee_os/lib/libutee/tee_api_arith.c:218 (discriminator 1)
     eb4:	b9402fa1 	ldr	w1, [x29,#44]
     eb8:	1299fe00 	mov	w0, #0xffff300f            	// #-53233
     ebc:	6b00003f 	cmp	w1, w0
     ec0:	540001a0 	b.eq	ef4 <TEE_BigIntConvertToS32+0x88>
/home/rex/devel/optee/optee_os/lib/libutee/tee_api_arith.c:220
     ec4:	f0000060 	adrp	x0, f000 <__compound_literal.5+0xdc>
     ec8:	9101c001 	add	x1, x0, #0x70
     ecc:	f0000060 	adrp	x0, f000 <__compound_literal.5+0xdc>
     ed0:	9104e000 	add	x0, x0, #0x138
     ed4:	b9402fa5 	ldr	w5, [x29,#44]
     ed8:	aa0103e4 	mov	x4, x1
     edc:	52800023 	mov	w3, #0x1                   	// #1
     ee0:	52800022 	mov	w2, #0x1                   	// #1
     ee4:	52801b81 	mov	w1, #0xdc                  	// #220
     ee8:	94001bcb 	bl	7e14 <trace_printf>
     eec:	b9402fa0 	ldr	w0, [x29,#44]
     ef0:	94000524 	bl	2380 <__TEE_Panic>
/home/rex/devel/optee/optee_os/lib/libutee/tee_api_arith.c:222
     ef4:	b9402fa0 	ldr	w0, [x29,#44]
/home/rex/devel/optee/optee_os/lib/libutee/tee_api_arith.c:223
     ef8:	a8c37bfd 	ldp	x29, x30, [sp],#48
     efc:	d65f03c0 	ret

0000000000000f00 <TEE_BigIntCmp>:
TEE_BigIntCmp():
/home/rex/devel/optee/optee_os/lib/libutee/tee_api_arith.c:233
     f00:	a9bd7bfd 	stp	x29, x30, [sp,#-48]!
     f04:	910003fd 	mov	x29, sp
     f08:	f9000fa0 	str	x0, [x29,#24]
     f0c:	f9000ba1 	str	x1, [x29,#16]
/home/rex/devel/optee/optee_os/lib/libutee/tee_api_arith.c:234
     f10:	f9400fa0 	ldr	x0, [x29,#24]
     f14:	f90017a0 	str	x0, [x29,#40]
/home/rex/devel/optee/optee_os/lib/libutee/tee_api_arith.c:235
     f18:	f9400ba0 	ldr	x0, [x29,#16]
     f1c:	f90013a0 	str	x0, [x29,#32]
/home/rex/devel/optee/optee_os/lib/libutee/tee_api_arith.c:237
     f20:	f94013a1 	ldr	x1, [x29,#32]
     f24:	f94017a0 	ldr	x0, [x29,#40]
     f28:	94003207 	bl	d744 <mpa_cmp>
/home/rex/devel/optee/optee_os/lib/libutee/tee_api_arith.c:238
     f2c:	a8c37bfd 	ldp	x29, x30, [sp],#48
     f30:	d65f03c0 	ret

0000000000000f34 <TEE_BigIntCmpS32>:
TEE_BigIntCmpS32():
/home/rex/devel/optee/optee_os/lib/libutee/tee_api_arith.c:244
     f34:	a9bd7bfd 	stp	x29, x30, [sp,#-48]!
     f38:	910003fd 	mov	x29, sp
     f3c:	f9000fa0 	str	x0, [x29,#24]
     f40:	b90017a1 	str	w1, [x29,#20]
/home/rex/devel/optee/optee_os/lib/libutee/tee_api_arith.c:245
     f44:	f9400fa0 	ldr	x0, [x29,#24]
     f48:	f90017a0 	str	x0, [x29,#40]
/home/rex/devel/optee/optee_os/lib/libutee/tee_api_arith.c:247
     f4c:	b94017a1 	ldr	w1, [x29,#20]
     f50:	f94017a0 	ldr	x0, [x29,#40]
     f54:	94003233 	bl	d820 <mpa_cmp_short>
/home/rex/devel/optee/optee_os/lib/libutee/tee_api_arith.c:248
     f58:	a8c37bfd 	ldp	x29, x30, [sp],#48
     f5c:	d65f03c0 	ret

0000000000000f60 <TEE_BigIntShiftRight>:
TEE_BigIntShiftRight():
/home/rex/devel/optee/optee_os/lib/libutee/tee_api_arith.c:255
     f60:	a9bc7bfd 	stp	x29, x30, [sp,#-64]!
     f64:	910003fd 	mov	x29, sp
     f68:	f90017a0 	str	x0, [x29,#40]
     f6c:	f90013a1 	str	x1, [x29,#32]
     f70:	f9000fa2 	str	x2, [x29,#24]
/home/rex/devel/optee/optee_os/lib/libutee/tee_api_arith.c:256
     f74:	f94017a0 	ldr	x0, [x29,#40]
     f78:	f9001fa0 	str	x0, [x29,#56]
/home/rex/devel/optee/optee_os/lib/libutee/tee_api_arith.c:257
     f7c:	f94013a0 	ldr	x0, [x29,#32]
     f80:	f9001ba0 	str	x0, [x29,#48]
/home/rex/devel/optee/optee_os/lib/libutee/tee_api_arith.c:259
     f84:	f9400fa0 	ldr	x0, [x29,#24]
     f88:	2a0003e2 	mov	w2, w0
     f8c:	f9401ba1 	ldr	x1, [x29,#48]
     f90:	f9401fa0 	ldr	x0, [x29,#56]
     f94:	94002cb4 	bl	c264 <mpa_shift_right>
/home/rex/devel/optee/optee_os/lib/libutee/tee_api_arith.c:260
     f98:	d503201f 	nop
     f9c:	a8c47bfd 	ldp	x29, x30, [sp],#64
     fa0:	d65f03c0 	ret

0000000000000fa4 <TEE_BigIntGetBit>:
TEE_BigIntGetBit():
/home/rex/devel/optee/optee_os/lib/libutee/tee_api_arith.c:266
     fa4:	a9bd7bfd 	stp	x29, x30, [sp,#-48]!
     fa8:	910003fd 	mov	x29, sp
     fac:	f9000fa0 	str	x0, [x29,#24]
     fb0:	b90017a1 	str	w1, [x29,#20]
/home/rex/devel/optee/optee_os/lib/libutee/tee_api_arith.c:267
     fb4:	f9400fa0 	ldr	x0, [x29,#24]
     fb8:	f90017a0 	str	x0, [x29,#40]
/home/rex/devel/optee/optee_os/lib/libutee/tee_api_arith.c:269
     fbc:	b94017a1 	ldr	w1, [x29,#20]
     fc0:	f94017a0 	ldr	x0, [x29,#40]
     fc4:	94001d90 	bl	8604 <mpa_get_bit>
     fc8:	7100001f 	cmp	w0, #0x0
     fcc:	1a9f07e0 	cset	w0, ne
     fd0:	12001c00 	and	w0, w0, #0xff
/home/rex/devel/optee/optee_os/lib/libutee/tee_api_arith.c:270
     fd4:	a8c37bfd 	ldp	x29, x30, [sp],#48
     fd8:	d65f03c0 	ret

0000000000000fdc <TEE_BigIntGetBitCount>:
TEE_BigIntGetBitCount():
/home/rex/devel/optee/optee_os/lib/libutee/tee_api_arith.c:276
     fdc:	a9bd7bfd 	stp	x29, x30, [sp,#-48]!
     fe0:	910003fd 	mov	x29, sp
     fe4:	f9000fa0 	str	x0, [x29,#24]
/home/rex/devel/optee/optee_os/lib/libutee/tee_api_arith.c:277
     fe8:	f9400fa0 	ldr	x0, [x29,#24]
     fec:	f90017a0 	str	x0, [x29,#40]
/home/rex/devel/optee/optee_os/lib/libutee/tee_api_arith.c:279
     ff0:	f94017a0 	ldr	x0, [x29,#40]
     ff4:	94001d56 	bl	854c <mpa_highest_bit_index>
     ff8:	11000400 	add	w0, w0, #0x1
/home/rex/devel/optee/optee_os/lib/libutee/tee_api_arith.c:280
     ffc:	a8c37bfd 	ldp	x29, x30, [sp],#48
    1000:	d65f03c0 	ret

0000000000001004 <TEE_BigIntAdd>:
TEE_BigIntAdd():
/home/rex/devel/optee/optee_os/lib/libutee/tee_api_arith.c:291
    1004:	a9bb7bfd 	stp	x29, x30, [sp,#-80]!
    1008:	910003fd 	mov	x29, sp
    100c:	f90017a0 	str	x0, [x29,#40]
    1010:	f90013a1 	str	x1, [x29,#32]
    1014:	f9000fa2 	str	x2, [x29,#24]
/home/rex/devel/optee/optee_os/lib/libutee/tee_api_arith.c:292
    1018:	f94017a0 	ldr	x0, [x29,#40]
    101c:	f90027a0 	str	x0, [x29,#72]
/home/rex/devel/optee/optee_os/lib/libutee/tee_api_arith.c:293
    1020:	f94013a0 	ldr	x0, [x29,#32]
    1024:	f90023a0 	str	x0, [x29,#64]
/home/rex/devel/optee/optee_os/lib/libutee/tee_api_arith.c:294
    1028:	f9400fa0 	ldr	x0, [x29,#24]
    102c:	f9001fa0 	str	x0, [x29,#56]
/home/rex/devel/optee/optee_os/lib/libutee/tee_api_arith.c:296
    1030:	b0000080 	adrp	x0, 12000 <ta_props>
    1034:	9103c000 	add	x0, x0, #0xf0
    1038:	f9400000 	ldr	x0, [x0]
    103c:	aa0003e3 	mov	x3, x0
    1040:	f9401fa2 	ldr	x2, [x29,#56]
    1044:	f94023a1 	ldr	x1, [x29,#64]
    1048:	f94027a0 	ldr	x0, [x29,#72]
    104c:	94002ecd 	bl	cb80 <mpa_add>
/home/rex/devel/optee/optee_os/lib/libutee/tee_api_arith.c:297
    1050:	d503201f 	nop
    1054:	a8c57bfd 	ldp	x29, x30, [sp],#80
    1058:	d65f03c0 	ret

000000000000105c <TEE_BigIntSub>:
TEE_BigIntSub():
/home/rex/devel/optee/optee_os/lib/libutee/tee_api_arith.c:304
    105c:	a9bb7bfd 	stp	x29, x30, [sp,#-80]!
    1060:	910003fd 	mov	x29, sp
    1064:	f90017a0 	str	x0, [x29,#40]
    1068:	f90013a1 	str	x1, [x29,#32]
    106c:	f9000fa2 	str	x2, [x29,#24]
/home/rex/devel/optee/optee_os/lib/libutee/tee_api_arith.c:305
    1070:	f94017a0 	ldr	x0, [x29,#40]
    1074:	f90027a0 	str	x0, [x29,#72]
/home/rex/devel/optee/optee_os/lib/libutee/tee_api_arith.c:306
    1078:	f94013a0 	ldr	x0, [x29,#32]
    107c:	f90023a0 	str	x0, [x29,#64]
/home/rex/devel/optee/optee_os/lib/libutee/tee_api_arith.c:307
    1080:	f9400fa0 	ldr	x0, [x29,#24]
    1084:	f9001fa0 	str	x0, [x29,#56]
/home/rex/devel/optee/optee_os/lib/libutee/tee_api_arith.c:309
    1088:	b0000080 	adrp	x0, 12000 <ta_props>
    108c:	9103c000 	add	x0, x0, #0xf0
    1090:	f9400000 	ldr	x0, [x0]
    1094:	aa0003e3 	mov	x3, x0
    1098:	f9401fa2 	ldr	x2, [x29,#56]
    109c:	f94023a1 	ldr	x1, [x29,#64]
    10a0:	f94027a0 	ldr	x0, [x29,#72]
    10a4:	94002f66 	bl	ce3c <mpa_sub>
/home/rex/devel/optee/optee_os/lib/libutee/tee_api_arith.c:310
    10a8:	d503201f 	nop
    10ac:	a8c57bfd 	ldp	x29, x30, [sp],#80
    10b0:	d65f03c0 	ret

00000000000010b4 <TEE_BigIntNeg>:
TEE_BigIntNeg():
/home/rex/devel/optee/optee_os/lib/libutee/tee_api_arith.c:316
    10b4:	a9bd7bfd 	stp	x29, x30, [sp,#-48]!
    10b8:	910003fd 	mov	x29, sp
    10bc:	f9000fa0 	str	x0, [x29,#24]
    10c0:	f9000ba1 	str	x1, [x29,#16]
/home/rex/devel/optee/optee_os/lib/libutee/tee_api_arith.c:317
    10c4:	f9400fa0 	ldr	x0, [x29,#24]
    10c8:	f90017a0 	str	x0, [x29,#40]
/home/rex/devel/optee/optee_os/lib/libutee/tee_api_arith.c:318
    10cc:	f9400ba0 	ldr	x0, [x29,#16]
    10d0:	f90013a0 	str	x0, [x29,#32]
/home/rex/devel/optee/optee_os/lib/libutee/tee_api_arith.c:320
    10d4:	f94013a1 	ldr	x1, [x29,#32]
    10d8:	f94017a0 	ldr	x0, [x29,#40]
    10dc:	94003016 	bl	d134 <mpa_neg>
/home/rex/devel/optee/optee_os/lib/libutee/tee_api_arith.c:321
    10e0:	d503201f 	nop
    10e4:	a8c37bfd 	ldp	x29, x30, [sp],#48
    10e8:	d65f03c0 	ret

00000000000010ec <TEE_BigIntMul>:
TEE_BigIntMul():
/home/rex/devel/optee/optee_os/lib/libutee/tee_api_arith.c:328
    10ec:	a9bb7bfd 	stp	x29, x30, [sp,#-80]!
    10f0:	910003fd 	mov	x29, sp
    10f4:	f90017a0 	str	x0, [x29,#40]
    10f8:	f90013a1 	str	x1, [x29,#32]
    10fc:	f9000fa2 	str	x2, [x29,#24]
/home/rex/devel/optee/optee_os/lib/libutee/tee_api_arith.c:329
    1100:	f94017a0 	ldr	x0, [x29,#40]
    1104:	f90027a0 	str	x0, [x29,#72]
/home/rex/devel/optee/optee_os/lib/libutee/tee_api_arith.c:330
    1108:	f94013a0 	ldr	x0, [x29,#32]
    110c:	f90023a0 	str	x0, [x29,#64]
/home/rex/devel/optee/optee_os/lib/libutee/tee_api_arith.c:331
    1110:	f9400fa0 	ldr	x0, [x29,#24]
    1114:	f9001fa0 	str	x0, [x29,#56]
/home/rex/devel/optee/optee_os/lib/libutee/tee_api_arith.c:333
    1118:	b0000080 	adrp	x0, 12000 <ta_props>
    111c:	9103c000 	add	x0, x0, #0xf0
    1120:	f9400000 	ldr	x0, [x0]
    1124:	aa0003e3 	mov	x3, x0
    1128:	f9401fa2 	ldr	x2, [x29,#56]
    112c:	f94023a1 	ldr	x1, [x29,#64]
    1130:	f94027a0 	ldr	x0, [x29,#72]
    1134:	94002992 	bl	b77c <mpa_mul>
/home/rex/devel/optee/optee_os/lib/libutee/tee_api_arith.c:334
    1138:	d503201f 	nop
    113c:	a8c57bfd 	ldp	x29, x30, [sp],#80
    1140:	d65f03c0 	ret

0000000000001144 <TEE_BigIntSquare>:
TEE_BigIntSquare():
/home/rex/devel/optee/optee_os/lib/libutee/tee_api_arith.c:340
    1144:	a9bd7bfd 	stp	x29, x30, [sp,#-48]!
    1148:	910003fd 	mov	x29, sp
    114c:	f9000fa0 	str	x0, [x29,#24]
    1150:	f9000ba1 	str	x1, [x29,#16]
/home/rex/devel/optee/optee_os/lib/libutee/tee_api_arith.c:341
    1154:	f9400fa0 	ldr	x0, [x29,#24]
    1158:	f90017a0 	str	x0, [x29,#40]
/home/rex/devel/optee/optee_os/lib/libutee/tee_api_arith.c:342
    115c:	f9400ba0 	ldr	x0, [x29,#16]
    1160:	f90013a0 	str	x0, [x29,#32]
/home/rex/devel/optee/optee_os/lib/libutee/tee_api_arith.c:344
    1164:	b0000080 	adrp	x0, 12000 <ta_props>
    1168:	9103c000 	add	x0, x0, #0xf0
    116c:	f9400000 	ldr	x0, [x0]
    1170:	aa0003e3 	mov	x3, x0
    1174:	f94013a2 	ldr	x2, [x29,#32]
    1178:	f94013a1 	ldr	x1, [x29,#32]
    117c:	f94017a0 	ldr	x0, [x29,#40]
    1180:	9400297f 	bl	b77c <mpa_mul>
/home/rex/devel/optee/optee_os/lib/libutee/tee_api_arith.c:345
    1184:	d503201f 	nop
    1188:	a8c37bfd 	ldp	x29, x30, [sp],#48
    118c:	d65f03c0 	ret

0000000000001190 <TEE_BigIntDiv>:
TEE_BigIntDiv():
/home/rex/devel/optee/optee_os/lib/libutee/tee_api_arith.c:352
    1190:	a9bb7bfd 	stp	x29, x30, [sp,#-80]!
    1194:	910003fd 	mov	x29, sp
    1198:	f90017a0 	str	x0, [x29,#40]
    119c:	f90013a1 	str	x1, [x29,#32]
    11a0:	f9000fa2 	str	x2, [x29,#24]
    11a4:	f9000ba3 	str	x3, [x29,#16]
/home/rex/devel/optee/optee_os/lib/libutee/tee_api_arith.c:353
    11a8:	f94017a0 	ldr	x0, [x29,#40]
    11ac:	f90027a0 	str	x0, [x29,#72]
/home/rex/devel/optee/optee_os/lib/libutee/tee_api_arith.c:354
    11b0:	f94013a0 	ldr	x0, [x29,#32]
    11b4:	f90023a0 	str	x0, [x29,#64]
/home/rex/devel/optee/optee_os/lib/libutee/tee_api_arith.c:355
    11b8:	f9400fa0 	ldr	x0, [x29,#24]
    11bc:	f9001fa0 	str	x0, [x29,#56]
/home/rex/devel/optee/optee_os/lib/libutee/tee_api_arith.c:356
    11c0:	f9400ba0 	ldr	x0, [x29,#16]
    11c4:	f9001ba0 	str	x0, [x29,#48]
/home/rex/devel/optee/optee_os/lib/libutee/tee_api_arith.c:358
    11c8:	52800001 	mov	w1, #0x0                   	// #0
    11cc:	f9400ba0 	ldr	x0, [x29,#16]
    11d0:	97ffff59 	bl	f34 <TEE_BigIntCmpS32>
    11d4:	7100001f 	cmp	w0, #0x0
    11d8:	54000081 	b.ne	11e8 <TEE_BigIntDiv+0x58>
/home/rex/devel/optee/optee_os/lib/libutee/tee_api_arith.c:359
    11dc:	d0000060 	adrp	x0, f000 <__compound_literal.5+0xdc>
    11e0:	91020000 	add	x0, x0, #0x80
    11e4:	97fffe4b 	bl	b10 <TEE_BigInt_Panic>
/home/rex/devel/optee/optee_os/lib/libutee/tee_api_arith.c:361
    11e8:	b0000080 	adrp	x0, 12000 <ta_props>
    11ec:	9103c000 	add	x0, x0, #0xf0
    11f0:	f9400000 	ldr	x0, [x0]
    11f4:	aa0003e4 	mov	x4, x0
    11f8:	f9401ba3 	ldr	x3, [x29,#48]
    11fc:	f9401fa2 	ldr	x2, [x29,#56]
    1200:	f94023a1 	ldr	x1, [x29,#64]
    1204:	f94027a0 	ldr	x0, [x29,#72]
    1208:	94002458 	bl	a368 <mpa_div>
/home/rex/devel/optee/optee_os/lib/libutee/tee_api_arith.c:362
    120c:	d503201f 	nop
    1210:	a8c57bfd 	ldp	x29, x30, [sp],#80
    1214:	d65f03c0 	ret

0000000000001218 <TEE_BigIntMod>:
TEE_BigIntMod():
/home/rex/devel/optee/optee_os/lib/libutee/tee_api_arith.c:373
    1218:	a9bb7bfd 	stp	x29, x30, [sp,#-80]!
    121c:	910003fd 	mov	x29, sp
    1220:	f90017a0 	str	x0, [x29,#40]
    1224:	f90013a1 	str	x1, [x29,#32]
    1228:	f9000fa2 	str	x2, [x29,#24]
/home/rex/devel/optee/optee_os/lib/libutee/tee_api_arith.c:374
    122c:	f94017a0 	ldr	x0, [x29,#40]
    1230:	f90027a0 	str	x0, [x29,#72]
/home/rex/devel/optee/optee_os/lib/libutee/tee_api_arith.c:375
    1234:	f94013a0 	ldr	x0, [x29,#32]
    1238:	f90023a0 	str	x0, [x29,#64]
/home/rex/devel/optee/optee_os/lib/libutee/tee_api_arith.c:376
    123c:	f9400fa0 	ldr	x0, [x29,#24]
    1240:	f9001fa0 	str	x0, [x29,#56]
/home/rex/devel/optee/optee_os/lib/libutee/tee_api_arith.c:378
    1244:	52800041 	mov	w1, #0x2                   	// #2
    1248:	f9400fa0 	ldr	x0, [x29,#24]
    124c:	97ffff3a 	bl	f34 <TEE_BigIntCmpS32>
    1250:	7100001f 	cmp	w0, #0x0
    1254:	5400008a 	b.ge	1264 <TEE_BigIntMod+0x4c>
/home/rex/devel/optee/optee_os/lib/libutee/tee_api_arith.c:379
    1258:	d0000060 	adrp	x0, f000 <__compound_literal.5+0xdc>
    125c:	91024000 	add	x0, x0, #0x90
    1260:	97fffe2c 	bl	b10 <TEE_BigInt_Panic>
/home/rex/devel/optee/optee_os/lib/libutee/tee_api_arith.c:381
    1264:	b0000080 	adrp	x0, 12000 <ta_props>
    1268:	9103c000 	add	x0, x0, #0xf0
    126c:	f9400000 	ldr	x0, [x0]
    1270:	aa0003e3 	mov	x3, x0
    1274:	f9401fa2 	ldr	x2, [x29,#56]
    1278:	f94023a1 	ldr	x1, [x29,#64]
    127c:	f94027a0 	ldr	x0, [x29,#72]
    1280:	94003646 	bl	eb98 <mpa_mod>
/home/rex/devel/optee/optee_os/lib/libutee/tee_api_arith.c:383
    1284:	52800001 	mov	w1, #0x0                   	// #0
    1288:	f94027a0 	ldr	x0, [x29,#72]
    128c:	94003165 	bl	d820 <mpa_cmp_short>
    1290:	7100001f 	cmp	w0, #0x0
    1294:	5400012a 	b.ge	12b8 <TEE_BigIntMod+0xa0>
/home/rex/devel/optee/optee_os/lib/libutee/tee_api_arith.c:384
    1298:	b0000080 	adrp	x0, 12000 <ta_props>
    129c:	9103c000 	add	x0, x0, #0xf0
    12a0:	f9400000 	ldr	x0, [x0]
    12a4:	aa0003e3 	mov	x3, x0
    12a8:	f9401fa2 	ldr	x2, [x29,#56]
    12ac:	f94027a1 	ldr	x1, [x29,#72]
    12b0:	f94027a0 	ldr	x0, [x29,#72]
    12b4:	94002e33 	bl	cb80 <mpa_add>
/home/rex/devel/optee/optee_os/lib/libutee/tee_api_arith.c:385
    12b8:	d503201f 	nop
    12bc:	a8c57bfd 	ldp	x29, x30, [sp],#80
    12c0:	d65f03c0 	ret

00000000000012c4 <TEE_BigIntAddMod>:
TEE_BigIntAddMod():
/home/rex/devel/optee/optee_os/lib/libutee/tee_api_arith.c:392
    12c4:	a9bb7bfd 	stp	x29, x30, [sp,#-80]!
    12c8:	910003fd 	mov	x29, sp
    12cc:	f90017a0 	str	x0, [x29,#40]
    12d0:	f90013a1 	str	x1, [x29,#32]
    12d4:	f9000fa2 	str	x2, [x29,#24]
    12d8:	f9000ba3 	str	x3, [x29,#16]
/home/rex/devel/optee/optee_os/lib/libutee/tee_api_arith.c:393
    12dc:	f94017a0 	ldr	x0, [x29,#40]
    12e0:	f90027a0 	str	x0, [x29,#72]
/home/rex/devel/optee/optee_os/lib/libutee/tee_api_arith.c:394
    12e4:	f94013a0 	ldr	x0, [x29,#32]
    12e8:	f90023a0 	str	x0, [x29,#64]
/home/rex/devel/optee/optee_os/lib/libutee/tee_api_arith.c:395
    12ec:	f9400fa0 	ldr	x0, [x29,#24]
    12f0:	f9001fa0 	str	x0, [x29,#56]
/home/rex/devel/optee/optee_os/lib/libutee/tee_api_arith.c:396
    12f4:	f9400ba0 	ldr	x0, [x29,#16]
    12f8:	f9001ba0 	str	x0, [x29,#48]
/home/rex/devel/optee/optee_os/lib/libutee/tee_api_arith.c:398
    12fc:	52800041 	mov	w1, #0x2                   	// #2
    1300:	f9400ba0 	ldr	x0, [x29,#16]
    1304:	97ffff0c 	bl	f34 <TEE_BigIntCmpS32>
    1308:	7100001f 	cmp	w0, #0x0
    130c:	5400008a 	b.ge	131c <TEE_BigIntAddMod+0x58>
/home/rex/devel/optee/optee_os/lib/libutee/tee_api_arith.c:399
    1310:	d0000060 	adrp	x0, f000 <__compound_literal.5+0xdc>
    1314:	91024000 	add	x0, x0, #0x90
    1318:	97fffdfe 	bl	b10 <TEE_BigInt_Panic>
/home/rex/devel/optee/optee_os/lib/libutee/tee_api_arith.c:401
    131c:	b0000080 	adrp	x0, 12000 <ta_props>
    1320:	9103c000 	add	x0, x0, #0xf0
    1324:	f9400000 	ldr	x0, [x0]
    1328:	aa0003e4 	mov	x4, x0
    132c:	f9401ba3 	ldr	x3, [x29,#48]
    1330:	f9401fa2 	ldr	x2, [x29,#56]
    1334:	f94023a1 	ldr	x1, [x29,#64]
    1338:	f94027a0 	ldr	x0, [x29,#72]
    133c:	94003626 	bl	ebd4 <mpa_add_mod>
/home/rex/devel/optee/optee_os/lib/libutee/tee_api_arith.c:402
    1340:	52800001 	mov	w1, #0x0                   	// #0
    1344:	f94027a0 	ldr	x0, [x29,#72]
    1348:	94003136 	bl	d820 <mpa_cmp_short>
    134c:	7100001f 	cmp	w0, #0x0
    1350:	5400012a 	b.ge	1374 <TEE_BigIntAddMod+0xb0>
/home/rex/devel/optee/optee_os/lib/libutee/tee_api_arith.c:403
    1354:	b0000080 	adrp	x0, 12000 <ta_props>
    1358:	9103c000 	add	x0, x0, #0xf0
    135c:	f9400000 	ldr	x0, [x0]
    1360:	aa0003e3 	mov	x3, x0
    1364:	f9401ba2 	ldr	x2, [x29,#48]
    1368:	f94027a1 	ldr	x1, [x29,#72]
    136c:	f94027a0 	ldr	x0, [x29,#72]
    1370:	94002e04 	bl	cb80 <mpa_add>
/home/rex/devel/optee/optee_os/lib/libutee/tee_api_arith.c:404
    1374:	d503201f 	nop
    1378:	a8c57bfd 	ldp	x29, x30, [sp],#80
    137c:	d65f03c0 	ret

0000000000001380 <TEE_BigIntSubMod>:
TEE_BigIntSubMod():
/home/rex/devel/optee/optee_os/lib/libutee/tee_api_arith.c:411
    1380:	a9bb7bfd 	stp	x29, x30, [sp,#-80]!
    1384:	910003fd 	mov	x29, sp
    1388:	f90017a0 	str	x0, [x29,#40]
    138c:	f90013a1 	str	x1, [x29,#32]
    1390:	f9000fa2 	str	x2, [x29,#24]
    1394:	f9000ba3 	str	x3, [x29,#16]
/home/rex/devel/optee/optee_os/lib/libutee/tee_api_arith.c:412
    1398:	f94017a0 	ldr	x0, [x29,#40]
    139c:	f90027a0 	str	x0, [x29,#72]
/home/rex/devel/optee/optee_os/lib/libutee/tee_api_arith.c:413
    13a0:	f94013a0 	ldr	x0, [x29,#32]
    13a4:	f90023a0 	str	x0, [x29,#64]
/home/rex/devel/optee/optee_os/lib/libutee/tee_api_arith.c:414
    13a8:	f9400fa0 	ldr	x0, [x29,#24]
    13ac:	f9001fa0 	str	x0, [x29,#56]
/home/rex/devel/optee/optee_os/lib/libutee/tee_api_arith.c:415
    13b0:	f9400ba0 	ldr	x0, [x29,#16]
    13b4:	f9001ba0 	str	x0, [x29,#48]
/home/rex/devel/optee/optee_os/lib/libutee/tee_api_arith.c:417
    13b8:	52800041 	mov	w1, #0x2                   	// #2
    13bc:	f9400ba0 	ldr	x0, [x29,#16]
    13c0:	97fffedd 	bl	f34 <TEE_BigIntCmpS32>
    13c4:	7100001f 	cmp	w0, #0x0
    13c8:	5400008a 	b.ge	13d8 <TEE_BigIntSubMod+0x58>
/home/rex/devel/optee/optee_os/lib/libutee/tee_api_arith.c:418
    13cc:	d0000060 	adrp	x0, f000 <__compound_literal.5+0xdc>
    13d0:	91024000 	add	x0, x0, #0x90
    13d4:	97fffdcf 	bl	b10 <TEE_BigInt_Panic>
/home/rex/devel/optee/optee_os/lib/libutee/tee_api_arith.c:420
    13d8:	b0000080 	adrp	x0, 12000 <ta_props>
    13dc:	9103c000 	add	x0, x0, #0xf0
    13e0:	f9400000 	ldr	x0, [x0]
    13e4:	aa0003e4 	mov	x4, x0
    13e8:	f9401ba3 	ldr	x3, [x29,#48]
    13ec:	f9401fa2 	ldr	x2, [x29,#56]
    13f0:	f94023a1 	ldr	x1, [x29,#64]
    13f4:	f94027a0 	ldr	x0, [x29,#72]
    13f8:	94003613 	bl	ec44 <mpa_sub_mod>
/home/rex/devel/optee/optee_os/lib/libutee/tee_api_arith.c:421
    13fc:	52800001 	mov	w1, #0x0                   	// #0
    1400:	f94027a0 	ldr	x0, [x29,#72]
    1404:	94003107 	bl	d820 <mpa_cmp_short>
    1408:	7100001f 	cmp	w0, #0x0
    140c:	5400012a 	b.ge	1430 <TEE_BigIntSubMod+0xb0>
/home/rex/devel/optee/optee_os/lib/libutee/tee_api_arith.c:422
    1410:	b0000080 	adrp	x0, 12000 <ta_props>
    1414:	9103c000 	add	x0, x0, #0xf0
    1418:	f9400000 	ldr	x0, [x0]
    141c:	aa0003e3 	mov	x3, x0
    1420:	f9401ba2 	ldr	x2, [x29,#48]
    1424:	f94027a1 	ldr	x1, [x29,#72]
    1428:	f94027a0 	ldr	x0, [x29,#72]
    142c:	94002dd5 	bl	cb80 <mpa_add>
/home/rex/devel/optee/optee_os/lib/libutee/tee_api_arith.c:423
    1430:	d503201f 	nop
    1434:	a8c57bfd 	ldp	x29, x30, [sp],#80
    1438:	d65f03c0 	ret

000000000000143c <TEE_BigIntMulMod>:
TEE_BigIntMulMod():
/home/rex/devel/optee/optee_os/lib/libutee/tee_api_arith.c:430
    143c:	a9ba7bfd 	stp	x29, x30, [sp,#-96]!
    1440:	910003fd 	mov	x29, sp
    1444:	f90017a0 	str	x0, [x29,#40]
    1448:	f90013a1 	str	x1, [x29,#32]
    144c:	f9000fa2 	str	x2, [x29,#24]
    1450:	f9000ba3 	str	x3, [x29,#16]
/home/rex/devel/optee/optee_os/lib/libutee/tee_api_arith.c:431
    1454:	f94017a0 	ldr	x0, [x29,#40]
    1458:	f9002fa0 	str	x0, [x29,#88]
/home/rex/devel/optee/optee_os/lib/libutee/tee_api_arith.c:432
    145c:	f94013a0 	ldr	x0, [x29,#32]
    1460:	f9002ba0 	str	x0, [x29,#80]
/home/rex/devel/optee/optee_os/lib/libutee/tee_api_arith.c:433
    1464:	f9400fa0 	ldr	x0, [x29,#24]
    1468:	f90027a0 	str	x0, [x29,#72]
/home/rex/devel/optee/optee_os/lib/libutee/tee_api_arith.c:434
    146c:	f9400ba0 	ldr	x0, [x29,#16]
    1470:	f90023a0 	str	x0, [x29,#64]
/home/rex/devel/optee/optee_os/lib/libutee/tee_api_arith.c:437
    1474:	52800041 	mov	w1, #0x2                   	// #2
    1478:	f9400ba0 	ldr	x0, [x29,#16]
    147c:	97fffeae 	bl	f34 <TEE_BigIntCmpS32>
    1480:	7100001f 	cmp	w0, #0x0
    1484:	5400008a 	b.ge	1494 <TEE_BigIntMulMod+0x58>
/home/rex/devel/optee/optee_os/lib/libutee/tee_api_arith.c:438
    1488:	d0000060 	adrp	x0, f000 <__compound_literal.5+0xdc>
    148c:	91024000 	add	x0, x0, #0x90
    1490:	97fffda0 	bl	b10 <TEE_BigInt_Panic>
/home/rex/devel/optee/optee_os/lib/libutee/tee_api_arith.c:448
    1494:	b0000080 	adrp	x0, 12000 <ta_props>
    1498:	9103c000 	add	x0, x0, #0xf0
    149c:	f9400001 	ldr	x1, [x0]
    14a0:	9100e3a0 	add	x0, x29, #0x38
    14a4:	94002785 	bl	b2b8 <mpa_alloc_static_temp_var>
/home/rex/devel/optee/optee_os/lib/libutee/tee_api_arith.c:449
    14a8:	f9401fa5 	ldr	x5, [x29,#56]
    14ac:	b0000080 	adrp	x0, 12000 <ta_props>
    14b0:	9103c000 	add	x0, x0, #0xf0
    14b4:	f9400000 	ldr	x0, [x0]
    14b8:	aa0003e4 	mov	x4, x0
    14bc:	f94023a3 	ldr	x3, [x29,#64]
    14c0:	f94027a2 	ldr	x2, [x29,#72]
    14c4:	f9402ba1 	ldr	x1, [x29,#80]
    14c8:	aa0503e0 	mov	x0, x5
    14cc:	940035fa 	bl	ecb4 <mpa_mul_mod>
/home/rex/devel/optee/optee_os/lib/libutee/tee_api_arith.c:450
    14d0:	f9401fa0 	ldr	x0, [x29,#56]
    14d4:	52800001 	mov	w1, #0x0                   	// #0
    14d8:	940030d2 	bl	d820 <mpa_cmp_short>
    14dc:	7100001f 	cmp	w0, #0x0
    14e0:	5400014a 	b.ge	1508 <TEE_BigIntMulMod+0xcc>
/home/rex/devel/optee/optee_os/lib/libutee/tee_api_arith.c:451
    14e4:	f9401fa4 	ldr	x4, [x29,#56]
    14e8:	f9401fa1 	ldr	x1, [x29,#56]
    14ec:	b0000080 	adrp	x0, 12000 <ta_props>
    14f0:	9103c000 	add	x0, x0, #0xf0
    14f4:	f9400000 	ldr	x0, [x0]
    14f8:	aa0003e3 	mov	x3, x0
    14fc:	f94023a2 	ldr	x2, [x29,#64]
    1500:	aa0403e0 	mov	x0, x4
    1504:	94002d9f 	bl	cb80 <mpa_add>
/home/rex/devel/optee/optee_os/lib/libutee/tee_api_arith.c:452
    1508:	f9401fa0 	ldr	x0, [x29,#56]
    150c:	aa0003e1 	mov	x1, x0
    1510:	f9402fa0 	ldr	x0, [x29,#88]
    1514:	94001bde 	bl	848c <mpa_copy>
/home/rex/devel/optee/optee_os/lib/libutee/tee_api_arith.c:453
    1518:	b0000080 	adrp	x0, 12000 <ta_props>
    151c:	9103c000 	add	x0, x0, #0xf0
    1520:	f9400001 	ldr	x1, [x0]
    1524:	9100e3a0 	add	x0, x29, #0x38
    1528:	9400276f 	bl	b2e4 <mpa_free_static_temp_var>
/home/rex/devel/optee/optee_os/lib/libutee/tee_api_arith.c:454
    152c:	d503201f 	nop
    1530:	a8c67bfd 	ldp	x29, x30, [sp],#96
    1534:	d65f03c0 	ret

0000000000001538 <TEE_BigIntSquareMod>:
TEE_BigIntSquareMod():
/home/rex/devel/optee/optee_os/lib/libutee/tee_api_arith.c:461
    1538:	a9bd7bfd 	stp	x29, x30, [sp,#-48]!
    153c:	910003fd 	mov	x29, sp
    1540:	f90017a0 	str	x0, [x29,#40]
    1544:	f90013a1 	str	x1, [x29,#32]
    1548:	f9000fa2 	str	x2, [x29,#24]
/home/rex/devel/optee/optee_os/lib/libutee/tee_api_arith.c:462
    154c:	f9400fa3 	ldr	x3, [x29,#24]
    1550:	f94013a2 	ldr	x2, [x29,#32]
    1554:	f94013a1 	ldr	x1, [x29,#32]
    1558:	f94017a0 	ldr	x0, [x29,#40]
    155c:	97ffffb8 	bl	143c <TEE_BigIntMulMod>
/home/rex/devel/optee/optee_os/lib/libutee/tee_api_arith.c:463
    1560:	d503201f 	nop
    1564:	a8c37bfd 	ldp	x29, x30, [sp],#48
    1568:	d65f03c0 	ret

000000000000156c <TEE_BigIntInvMod>:
TEE_BigIntInvMod():
/home/rex/devel/optee/optee_os/lib/libutee/tee_api_arith.c:470
    156c:	a9bb7bfd 	stp	x29, x30, [sp,#-80]!
    1570:	910003fd 	mov	x29, sp
    1574:	f90017a0 	str	x0, [x29,#40]
    1578:	f90013a1 	str	x1, [x29,#32]
    157c:	f9000fa2 	str	x2, [x29,#24]
/home/rex/devel/optee/optee_os/lib/libutee/tee_api_arith.c:471
    1580:	f94017a0 	ldr	x0, [x29,#40]
    1584:	f90027a0 	str	x0, [x29,#72]
/home/rex/devel/optee/optee_os/lib/libutee/tee_api_arith.c:472
    1588:	f94013a0 	ldr	x0, [x29,#32]
    158c:	f90023a0 	str	x0, [x29,#64]
/home/rex/devel/optee/optee_os/lib/libutee/tee_api_arith.c:473
    1590:	f9400fa0 	ldr	x0, [x29,#24]
    1594:	f9001fa0 	str	x0, [x29,#56]
/home/rex/devel/optee/optee_os/lib/libutee/tee_api_arith.c:475
    1598:	52800041 	mov	w1, #0x2                   	// #2
    159c:	f9400fa0 	ldr	x0, [x29,#24]
    15a0:	97fffe65 	bl	f34 <TEE_BigIntCmpS32>
    15a4:	7100001f 	cmp	w0, #0x0
    15a8:	540000cb 	b.lt	15c0 <TEE_BigIntInvMod+0x54>
/home/rex/devel/optee/optee_os/lib/libutee/tee_api_arith.c:475 (discriminator 1)
    15ac:	52800001 	mov	w1, #0x0                   	// #0
    15b0:	f94013a0 	ldr	x0, [x29,#32]
    15b4:	97fffe60 	bl	f34 <TEE_BigIntCmpS32>
    15b8:	7100001f 	cmp	w0, #0x0
    15bc:	54000081 	b.ne	15cc <TEE_BigIntInvMod+0x60>
/home/rex/devel/optee/optee_os/lib/libutee/tee_api_arith.c:476
    15c0:	d0000060 	adrp	x0, f000 <__compound_literal.5+0xdc>
    15c4:	9102a000 	add	x0, x0, #0xa8
    15c8:	97fffd52 	bl	b10 <TEE_BigInt_Panic>
/home/rex/devel/optee/optee_os/lib/libutee/tee_api_arith.c:478
    15cc:	b0000080 	adrp	x0, 12000 <ta_props>
    15d0:	9103c000 	add	x0, x0, #0xf0
    15d4:	f9400000 	ldr	x0, [x0]
    15d8:	aa0003e3 	mov	x3, x0
    15dc:	f9401fa2 	ldr	x2, [x29,#56]
    15e0:	f94023a1 	ldr	x1, [x29,#64]
    15e4:	f94027a0 	ldr	x0, [x29,#72]
    15e8:	940035cf 	bl	ed24 <mpa_inv_mod>
/home/rex/devel/optee/optee_os/lib/libutee/tee_api_arith.c:479
    15ec:	d503201f 	nop
    15f0:	a8c57bfd 	ldp	x29, x30, [sp],#80
    15f4:	d65f03c0 	ret

00000000000015f8 <TEE_BigIntRelativePrime>:
TEE_BigIntRelativePrime():
/home/rex/devel/optee/optee_os/lib/libutee/tee_api_arith.c:489
    15f8:	a9bc7bfd 	stp	x29, x30, [sp,#-64]!
    15fc:	910003fd 	mov	x29, sp
    1600:	f9000fa0 	str	x0, [x29,#24]
    1604:	f9000ba1 	str	x1, [x29,#16]
/home/rex/devel/optee/optee_os/lib/libutee/tee_api_arith.c:490
    1608:	f9400fa0 	ldr	x0, [x29,#24]
    160c:	f9001fa0 	str	x0, [x29,#56]
/home/rex/devel/optee/optee_os/lib/libutee/tee_api_arith.c:491
    1610:	f9400ba0 	ldr	x0, [x29,#16]
    1614:	f9001ba0 	str	x0, [x29,#48]
/home/rex/devel/optee/optee_os/lib/libutee/tee_api_arith.c:495
    1618:	b0000080 	adrp	x0, 12000 <ta_props>
    161c:	9103c000 	add	x0, x0, #0xf0
    1620:	f9400001 	ldr	x1, [x0]
    1624:	910083a0 	add	x0, x29, #0x20
    1628:	94002724 	bl	b2b8 <mpa_alloc_static_temp_var>
/home/rex/devel/optee/optee_os/lib/libutee/tee_api_arith.c:497
    162c:	f94013a4 	ldr	x4, [x29,#32]
    1630:	b0000080 	adrp	x0, 12000 <ta_props>
    1634:	9103c000 	add	x0, x0, #0xf0
    1638:	f9400000 	ldr	x0, [x0]
    163c:	aa0003e3 	mov	x3, x0
    1640:	f9401ba2 	ldr	x2, [x29,#48]
    1644:	f9401fa1 	ldr	x1, [x29,#56]
    1648:	aa0403e0 	mov	x0, x4
    164c:	9400254c 	bl	ab7c <mpa_gcd>
/home/rex/devel/optee/optee_os/lib/libutee/tee_api_arith.c:498
    1650:	f94013a0 	ldr	x0, [x29,#32]
    1654:	52800021 	mov	w1, #0x1                   	// #1
    1658:	94003072 	bl	d820 <mpa_cmp_short>
    165c:	b9002fa0 	str	w0, [x29,#44]
/home/rex/devel/optee/optee_os/lib/libutee/tee_api_arith.c:500
    1660:	b0000080 	adrp	x0, 12000 <ta_props>
    1664:	9103c000 	add	x0, x0, #0xf0
    1668:	f9400001 	ldr	x1, [x0]
    166c:	910083a0 	add	x0, x29, #0x20
    1670:	9400271d 	bl	b2e4 <mpa_free_static_temp_var>
/home/rex/devel/optee/optee_os/lib/libutee/tee_api_arith.c:502
    1674:	b9402fa0 	ldr	w0, [x29,#44]
    1678:	7100001f 	cmp	w0, #0x0
    167c:	1a9f17e0 	cset	w0, eq
    1680:	12001c00 	and	w0, w0, #0xff
/home/rex/devel/optee/optee_os/lib/libutee/tee_api_arith.c:503
    1684:	a8c47bfd 	ldp	x29, x30, [sp],#64
    1688:	d65f03c0 	ret

000000000000168c <TEE_BigIntComputeExtendedGcd>:
TEE_BigIntComputeExtendedGcd():
/home/rex/devel/optee/optee_os/lib/libutee/tee_api_arith.c:511
    168c:	a9b97bfd 	stp	x29, x30, [sp,#-112]!
    1690:	910003fd 	mov	x29, sp
    1694:	f9001fa0 	str	x0, [x29,#56]
    1698:	f9001ba1 	str	x1, [x29,#48]
    169c:	f90017a2 	str	x2, [x29,#40]
    16a0:	f90013a3 	str	x3, [x29,#32]
    16a4:	f9000fa4 	str	x4, [x29,#24]
/home/rex/devel/optee/optee_os/lib/libutee/tee_api_arith.c:512
    16a8:	f9401fa0 	ldr	x0, [x29,#56]
    16ac:	f90037a0 	str	x0, [x29,#104]
/home/rex/devel/optee/optee_os/lib/libutee/tee_api_arith.c:513
    16b0:	f9401ba0 	ldr	x0, [x29,#48]
    16b4:	f90033a0 	str	x0, [x29,#96]
/home/rex/devel/optee/optee_os/lib/libutee/tee_api_arith.c:514
    16b8:	f94017a0 	ldr	x0, [x29,#40]
    16bc:	f9002fa0 	str	x0, [x29,#88]
/home/rex/devel/optee/optee_os/lib/libutee/tee_api_arith.c:515
    16c0:	f94013a0 	ldr	x0, [x29,#32]
    16c4:	f9002ba0 	str	x0, [x29,#80]
/home/rex/devel/optee/optee_os/lib/libutee/tee_api_arith.c:516
    16c8:	f9400fa0 	ldr	x0, [x29,#24]
    16cc:	f90027a0 	str	x0, [x29,#72]
/home/rex/devel/optee/optee_os/lib/libutee/tee_api_arith.c:518
    16d0:	b0000080 	adrp	x0, 12000 <ta_props>
    16d4:	9103c000 	add	x0, x0, #0xf0
    16d8:	f9400000 	ldr	x0, [x0]
    16dc:	aa0003e5 	mov	x5, x0
    16e0:	f94027a4 	ldr	x4, [x29,#72]
    16e4:	f9402ba3 	ldr	x3, [x29,#80]
    16e8:	f9402fa2 	ldr	x2, [x29,#88]
    16ec:	f94033a1 	ldr	x1, [x29,#96]
    16f0:	f94037a0 	ldr	x0, [x29,#104]
    16f4:	94002584 	bl	ad04 <mpa_extended_gcd>
/home/rex/devel/optee/optee_os/lib/libutee/tee_api_arith.c:519
    16f8:	d503201f 	nop
    16fc:	a8c77bfd 	ldp	x29, x30, [sp],#112
    1700:	d65f03c0 	ret

0000000000001704 <TEE_BigIntIsProbablePrime>:
TEE_BigIntIsProbablePrime():
/home/rex/devel/optee/optee_os/lib/libutee/tee_api_arith.c:526
    1704:	a9bd7bfd 	stp	x29, x30, [sp,#-48]!
    1708:	910003fd 	mov	x29, sp
    170c:	f9000fa0 	str	x0, [x29,#24]
    1710:	b90017a1 	str	w1, [x29,#20]
/home/rex/devel/optee/optee_os/lib/libutee/tee_api_arith.c:527
    1714:	f9400fa0 	ldr	x0, [x29,#24]
    1718:	f90017a0 	str	x0, [x29,#40]
/home/rex/devel/optee/optee_os/lib/libutee/tee_api_arith.c:529
    171c:	b94017a0 	ldr	w0, [x29,#20]
    1720:	71013c1f 	cmp	w0, #0x4f
    1724:	54000068 	b.hi	1730 <TEE_BigIntIsProbablePrime+0x2c>
/home/rex/devel/optee/optee_os/lib/libutee/tee_api_arith.c:530
    1728:	52800a00 	mov	w0, #0x50                  	// #80
    172c:	b90017a0 	str	w0, [x29,#20]
/home/rex/devel/optee/optee_os/lib/libutee/tee_api_arith.c:532
    1730:	b94017a0 	ldr	w0, [x29,#20]
    1734:	7104001f 	cmp	w0, #0x100
    1738:	54000069 	b.ls	1744 <TEE_BigIntIsProbablePrime+0x40>
/home/rex/devel/optee/optee_os/lib/libutee/tee_api_arith.c:533
    173c:	52802000 	mov	w0, #0x100                 	// #256
    1740:	b90017a0 	str	w0, [x29,#20]
/home/rex/devel/optee/optee_os/lib/libutee/tee_api_arith.c:535
    1744:	b94017a1 	ldr	w1, [x29,#20]
    1748:	b0000080 	adrp	x0, 12000 <ta_props>
    174c:	9103c000 	add	x0, x0, #0xf0
    1750:	f9400000 	ldr	x0, [x0]
    1754:	aa0003e2 	mov	x2, x0
    1758:	f94017a0 	ldr	x0, [x29,#40]
    175c:	94001d88 	bl	8d7c <mpa_is_prob_prime>
/home/rex/devel/optee/optee_os/lib/libutee/tee_api_arith.c:536
    1760:	a8c37bfd 	ldp	x29, x30, [sp],#48
    1764:	d65f03c0 	ret

0000000000001768 <TEE_BigIntConvertToFMM>:
TEE_BigIntConvertToFMM():
/home/rex/devel/optee/optee_os/lib/libutee/tee_api_arith.c:549
    1768:	a9bb7bfd 	stp	x29, x30, [sp,#-80]!
    176c:	910003fd 	mov	x29, sp
    1770:	f90017a0 	str	x0, [x29,#40]
    1774:	f90013a1 	str	x1, [x29,#32]
    1778:	f9000fa2 	str	x2, [x29,#24]
    177c:	f9000ba3 	str	x3, [x29,#16]
/home/rex/devel/optee/optee_os/lib/libutee/tee_api_arith.c:550
    1780:	f94017a0 	ldr	x0, [x29,#40]
    1784:	f90027a0 	str	x0, [x29,#72]
/home/rex/devel/optee/optee_os/lib/libutee/tee_api_arith.c:551
    1788:	f94013a0 	ldr	x0, [x29,#32]
    178c:	f90023a0 	str	x0, [x29,#64]
/home/rex/devel/optee/optee_os/lib/libutee/tee_api_arith.c:552
    1790:	f9400fa0 	ldr	x0, [x29,#24]
    1794:	f9001fa0 	str	x0, [x29,#56]
/home/rex/devel/optee/optee_os/lib/libutee/tee_api_arith.c:553
    1798:	f9400ba0 	ldr	x0, [x29,#16]
    179c:	f9001ba0 	str	x0, [x29,#48]
/home/rex/devel/optee/optee_os/lib/libutee/tee_api_arith.c:556
    17a0:	f9401ba0 	ldr	x0, [x29,#48]
    17a4:	f9400401 	ldr	x1, [x0,#8]
    17a8:	f9401ba0 	ldr	x0, [x29,#48]
    17ac:	b9401002 	ldr	w2, [x0,#16]
    17b0:	b0000080 	adrp	x0, 12000 <ta_props>
    17b4:	9103c000 	add	x0, x0, #0xf0
    17b8:	f9400000 	ldr	x0, [x0]
    17bc:	aa0003e5 	mov	x5, x0
    17c0:	2a0203e4 	mov	w4, w2
    17c4:	f9401fa3 	ldr	x3, [x29,#56]
    17c8:	aa0103e2 	mov	x2, x1
    17cc:	f94023a1 	ldr	x1, [x29,#64]
    17d0:	f94027a0 	ldr	x0, [x29,#72]
    17d4:	94001d4f 	bl	8d10 <mpa_montgomery_mul>
/home/rex/devel/optee/optee_os/lib/libutee/tee_api_arith.c:558
    17d8:	d503201f 	nop
    17dc:	a8c57bfd 	ldp	x29, x30, [sp],#80
    17e0:	d65f03c0 	ret

00000000000017e4 <TEE_BigIntConvertFromFMM>:
TEE_BigIntConvertFromFMM():
/home/rex/devel/optee/optee_os/lib/libutee/tee_api_arith.c:567
    17e4:	a9b97bfd 	stp	x29, x30, [sp,#-112]!
    17e8:	910003fd 	mov	x29, sp
    17ec:	f9000bf3 	str	x19, [sp,#16]
    17f0:	f9001fa0 	str	x0, [x29,#56]
    17f4:	f9001ba1 	str	x1, [x29,#48]
    17f8:	f90017a2 	str	x2, [x29,#40]
    17fc:	f90013a3 	str	x3, [x29,#32]
/home/rex/devel/optee/optee_os/lib/libutee/tee_api_arith.c:568
    1800:	f9401fa0 	ldr	x0, [x29,#56]
    1804:	f90037a0 	str	x0, [x29,#104]
/home/rex/devel/optee/optee_os/lib/libutee/tee_api_arith.c:569
    1808:	f9401ba0 	ldr	x0, [x29,#48]
    180c:	f90033a0 	str	x0, [x29,#96]
/home/rex/devel/optee/optee_os/lib/libutee/tee_api_arith.c:570
    1810:	f94017a0 	ldr	x0, [x29,#40]
    1814:	f9002fa0 	str	x0, [x29,#88]
/home/rex/devel/optee/optee_os/lib/libutee/tee_api_arith.c:571
    1818:	f94013a0 	ldr	x0, [x29,#32]
    181c:	f9002ba0 	str	x0, [x29,#80]
/home/rex/devel/optee/optee_os/lib/libutee/tee_api_arith.c:579
    1820:	b0000080 	adrp	x0, 12000 <ta_props>
    1824:	9103c000 	add	x0, x0, #0xf0
    1828:	f9400001 	ldr	x1, [x0]
    182c:	910123a0 	add	x0, x29, #0x48
    1830:	940026a2 	bl	b2b8 <mpa_alloc_static_temp_var>
/home/rex/devel/optee/optee_os/lib/libutee/tee_api_arith.c:582
    1834:	f94027b3 	ldr	x19, [x29,#72]
    1838:	94001bb0 	bl	86f8 <mpa_constant_one>
    183c:	aa0003e6 	mov	x6, x0
    1840:	f9402ba0 	ldr	x0, [x29,#80]
    1844:	b9401001 	ldr	w1, [x0,#16]
    1848:	b0000080 	adrp	x0, 12000 <ta_props>
    184c:	9103c000 	add	x0, x0, #0xf0
    1850:	f9400000 	ldr	x0, [x0]
    1854:	aa0003e5 	mov	x5, x0
    1858:	2a0103e4 	mov	w4, w1
    185c:	f9402fa3 	ldr	x3, [x29,#88]
    1860:	f94033a2 	ldr	x2, [x29,#96]
    1864:	aa0603e1 	mov	x1, x6
    1868:	aa1303e0 	mov	x0, x19
    186c:	94001d29 	bl	8d10 <mpa_montgomery_mul>
/home/rex/devel/optee/optee_os/lib/libutee/tee_api_arith.c:585
    1870:	f94027a0 	ldr	x0, [x29,#72]
    1874:	aa0003e1 	mov	x1, x0
    1878:	f94037a0 	ldr	x0, [x29,#104]
    187c:	94001b04 	bl	848c <mpa_copy>
/home/rex/devel/optee/optee_os/lib/libutee/tee_api_arith.c:586
    1880:	b0000080 	adrp	x0, 12000 <ta_props>
    1884:	9103c000 	add	x0, x0, #0xf0
    1888:	f9400001 	ldr	x1, [x0]
    188c:	910123a0 	add	x0, x29, #0x48
    1890:	94002695 	bl	b2e4 <mpa_free_static_temp_var>
/home/rex/devel/optee/optee_os/lib/libutee/tee_api_arith.c:587
    1894:	d503201f 	nop
    1898:	f9400bf3 	ldr	x19, [sp,#16]
    189c:	a8c77bfd 	ldp	x29, x30, [sp],#112
    18a0:	d65f03c0 	ret

00000000000018a4 <TEE_BigIntComputeFMM>:
TEE_BigIntComputeFMM():
/home/rex/devel/optee/optee_os/lib/libutee/tee_api_arith.c:597
    18a4:	a9b97bfd 	stp	x29, x30, [sp,#-112]!
    18a8:	910003fd 	mov	x29, sp
    18ac:	f9001fa0 	str	x0, [x29,#56]
    18b0:	f9001ba1 	str	x1, [x29,#48]
    18b4:	f90017a2 	str	x2, [x29,#40]
    18b8:	f90013a3 	str	x3, [x29,#32]
    18bc:	f9000fa4 	str	x4, [x29,#24]
/home/rex/devel/optee/optee_os/lib/libutee/tee_api_arith.c:598
    18c0:	f9401fa0 	ldr	x0, [x29,#56]
    18c4:	f90037a0 	str	x0, [x29,#104]
/home/rex/devel/optee/optee_os/lib/libutee/tee_api_arith.c:599
    18c8:	f9401ba0 	ldr	x0, [x29,#48]
    18cc:	f90033a0 	str	x0, [x29,#96]
/home/rex/devel/optee/optee_os/lib/libutee/tee_api_arith.c:600
    18d0:	f94017a0 	ldr	x0, [x29,#40]
    18d4:	f9002fa0 	str	x0, [x29,#88]
/home/rex/devel/optee/optee_os/lib/libutee/tee_api_arith.c:601
    18d8:	f94013a0 	ldr	x0, [x29,#32]
    18dc:	f9002ba0 	str	x0, [x29,#80]
/home/rex/devel/optee/optee_os/lib/libutee/tee_api_arith.c:602
    18e0:	f9400fa0 	ldr	x0, [x29,#24]
    18e4:	f90027a0 	str	x0, [x29,#72]
/home/rex/devel/optee/optee_os/lib/libutee/tee_api_arith.c:604
    18e8:	f94027a0 	ldr	x0, [x29,#72]
    18ec:	b9401001 	ldr	w1, [x0,#16]
    18f0:	b0000080 	adrp	x0, 12000 <ta_props>
    18f4:	9103c000 	add	x0, x0, #0xf0
    18f8:	f9400000 	ldr	x0, [x0]
    18fc:	aa0003e5 	mov	x5, x0
    1900:	2a0103e4 	mov	w4, w1
    1904:	f9402ba3 	ldr	x3, [x29,#80]
    1908:	f9402fa2 	ldr	x2, [x29,#88]
    190c:	f94033a1 	ldr	x1, [x29,#96]
    1910:	f94037a0 	ldr	x0, [x29,#104]
    1914:	94001cff 	bl	8d10 <mpa_montgomery_mul>
/home/rex/devel/optee/optee_os/lib/libutee/tee_api_arith.c:606
    1918:	d503201f 	nop
    191c:	a8c77bfd 	ldp	x29, x30, [sp],#112
    1920:	d65f03c0 	ret

0000000000001924 <__utee_from_param>:
__utee_from_param():
/home/rex/devel/optee/optee_os/lib/libutee/tee_api.c:42
    1924:	d100c3ff 	sub	sp, sp, #0x30
    1928:	f9000fe0 	str	x0, [sp,#24]
    192c:	b90017e1 	str	w1, [sp,#20]
    1930:	f90007e2 	str	x2, [sp,#8]
/home/rex/devel/optee/optee_os/lib/libutee/tee_api.c:45
    1934:	b94017e1 	ldr	w1, [sp,#20]
    1938:	f9400fe0 	ldr	x0, [sp,#24]
    193c:	f9000001 	str	x1, [x0]
/home/rex/devel/optee/optee_os/lib/libutee/tee_api.c:46
    1940:	f90017ff 	str	xzr, [sp,#40]
    1944:	14000053 	b	1a90 <__utee_from_param+0x16c>
/home/rex/devel/optee/optee_os/lib/libutee/tee_api.c:47
    1948:	f94017e0 	ldr	x0, [sp,#40]
    194c:	531e7400 	lsl	w0, w0, #2
    1950:	b94017e1 	ldr	w1, [sp,#20]
    1954:	1ac02420 	lsr	w0, w1, w0
    1958:	12000c00 	and	w0, w0, #0xf
    195c:	7100041f 	cmp	w0, #0x1
    1960:	54000763 	b.cc	1a4c <__utee_from_param+0x128>
    1964:	71000c1f 	cmp	w0, #0x3
    1968:	540000a9 	b.ls	197c <__utee_from_param+0x58>
    196c:	51001400 	sub	w0, w0, #0x5
    1970:	7100081f 	cmp	w0, #0x2
    1974:	540006c8 	b.hi	1a4c <__utee_from_param+0x128>
    1978:	1400001b 	b	19e4 <__utee_from_param+0xc0>
/home/rex/devel/optee/optee_os/lib/libutee/tee_api.c:51
    197c:	f94017e0 	ldr	x0, [sp,#40]
    1980:	d37ff800 	lsl	x0, x0, #1
    1984:	f94017e1 	ldr	x1, [sp,#40]
    1988:	d37cec21 	lsl	x1, x1, #4
    198c:	f94007e2 	ldr	x2, [sp,#8]
    1990:	8b010041 	add	x1, x2, x1
    1994:	b9400021 	ldr	w1, [x1]
    1998:	2a0103e1 	mov	w1, w1
    199c:	f9400fe2 	ldr	x2, [sp,#24]
    19a0:	d37df000 	lsl	x0, x0, #3
    19a4:	8b000040 	add	x0, x2, x0
    19a8:	f9000401 	str	x1, [x0,#8]
/home/rex/devel/optee/optee_os/lib/libutee/tee_api.c:52
    19ac:	f94017e0 	ldr	x0, [sp,#40]
    19b0:	d37ff800 	lsl	x0, x0, #1
    19b4:	91000400 	add	x0, x0, #0x1
    19b8:	f94017e1 	ldr	x1, [sp,#40]
    19bc:	d37cec21 	lsl	x1, x1, #4
    19c0:	f94007e2 	ldr	x2, [sp,#8]
    19c4:	8b010041 	add	x1, x2, x1
    19c8:	b9400421 	ldr	w1, [x1,#4]
    19cc:	2a0103e1 	mov	w1, w1
    19d0:	f9400fe2 	ldr	x2, [sp,#24]
    19d4:	d37df000 	lsl	x0, x0, #3
    19d8:	8b000040 	add	x0, x2, x0
    19dc:	f9000401 	str	x1, [x0,#8]
/home/rex/devel/optee/optee_os/lib/libutee/tee_api.c:53
    19e0:	14000029 	b	1a84 <__utee_from_param+0x160>
/home/rex/devel/optee/optee_os/lib/libutee/tee_api.c:57
    19e4:	f94017e0 	ldr	x0, [sp,#40]
    19e8:	d37ff800 	lsl	x0, x0, #1
    19ec:	f94017e1 	ldr	x1, [sp,#40]
    19f0:	d37cec21 	lsl	x1, x1, #4
    19f4:	f94007e2 	ldr	x2, [sp,#8]
    19f8:	8b010041 	add	x1, x2, x1
    19fc:	f9400021 	ldr	x1, [x1]
    1a00:	aa0103e2 	mov	x2, x1
    1a04:	f9400fe1 	ldr	x1, [sp,#24]
    1a08:	d37df000 	lsl	x0, x0, #3
    1a0c:	8b000020 	add	x0, x1, x0
    1a10:	f9000402 	str	x2, [x0,#8]
/home/rex/devel/optee/optee_os/lib/libutee/tee_api.c:58
    1a14:	f94017e0 	ldr	x0, [sp,#40]
    1a18:	d37ff800 	lsl	x0, x0, #1
    1a1c:	91000400 	add	x0, x0, #0x1
    1a20:	f94017e1 	ldr	x1, [sp,#40]
    1a24:	d37cec21 	lsl	x1, x1, #4
    1a28:	f94007e2 	ldr	x2, [sp,#8]
    1a2c:	8b010041 	add	x1, x2, x1
    1a30:	b9400821 	ldr	w1, [x1,#8]
    1a34:	2a0103e1 	mov	w1, w1
    1a38:	f9400fe2 	ldr	x2, [sp,#24]
    1a3c:	d37df000 	lsl	x0, x0, #3
    1a40:	8b000040 	add	x0, x2, x0
    1a44:	f9000401 	str	x1, [x0,#8]
/home/rex/devel/optee/optee_os/lib/libutee/tee_api.c:59
    1a48:	1400000f 	b	1a84 <__utee_from_param+0x160>
/home/rex/devel/optee/optee_os/lib/libutee/tee_api.c:61
    1a4c:	f94017e0 	ldr	x0, [sp,#40]
    1a50:	d37ff800 	lsl	x0, x0, #1
    1a54:	f9400fe1 	ldr	x1, [sp,#24]
    1a58:	d37df000 	lsl	x0, x0, #3
    1a5c:	8b000020 	add	x0, x1, x0
    1a60:	f900041f 	str	xzr, [x0,#8]
/home/rex/devel/optee/optee_os/lib/libutee/tee_api.c:62
    1a64:	f94017e0 	ldr	x0, [sp,#40]
    1a68:	d37ff800 	lsl	x0, x0, #1
    1a6c:	91000400 	add	x0, x0, #0x1
    1a70:	f9400fe1 	ldr	x1, [sp,#24]
    1a74:	d37df000 	lsl	x0, x0, #3
    1a78:	8b000020 	add	x0, x1, x0
    1a7c:	f900041f 	str	xzr, [x0,#8]
/home/rex/devel/optee/optee_os/lib/libutee/tee_api.c:63
    1a80:	d503201f 	nop
/home/rex/devel/optee/optee_os/lib/libutee/tee_api.c:46 (discriminator 2)
    1a84:	f94017e0 	ldr	x0, [sp,#40]
    1a88:	91000400 	add	x0, x0, #0x1
    1a8c:	f90017e0 	str	x0, [sp,#40]
/home/rex/devel/optee/optee_os/lib/libutee/tee_api.c:46 (discriminator 1)
    1a90:	f94017e0 	ldr	x0, [sp,#40]
    1a94:	f1000c1f 	cmp	x0, #0x3
    1a98:	54fff589 	b.ls	1948 <__utee_from_param+0x24>
/home/rex/devel/optee/optee_os/lib/libutee/tee_api.c:66
    1a9c:	d503201f 	nop
    1aa0:	9100c3ff 	add	sp, sp, #0x30
    1aa4:	d65f03c0 	ret

0000000000001aa8 <__utee_to_param>:
__utee_to_param():
/home/rex/devel/optee/optee_os/lib/libutee/tee_api.c:70
    1aa8:	d10103ff 	sub	sp, sp, #0x40
    1aac:	f9000fe0 	str	x0, [sp,#24]
    1ab0:	f9000be1 	str	x1, [sp,#16]
    1ab4:	f90007e2 	str	x2, [sp,#8]
/home/rex/devel/optee/optee_os/lib/libutee/tee_api.c:72
    1ab8:	f94007e0 	ldr	x0, [sp,#8]
    1abc:	f9400000 	ldr	x0, [x0]
    1ac0:	b90037e0 	str	w0, [sp,#52]
/home/rex/devel/optee/optee_os/lib/libutee/tee_api.c:74
    1ac4:	f9001fff 	str	xzr, [sp,#56]
    1ac8:	1400003b 	b	1bb4 <__utee_to_param+0x10c>
/home/rex/devel/optee/optee_os/lib/libutee/tee_api.c:75
    1acc:	f9401fe0 	ldr	x0, [sp,#56]
    1ad0:	d37ff800 	lsl	x0, x0, #1
    1ad4:	f94007e1 	ldr	x1, [sp,#8]
    1ad8:	d37df000 	lsl	x0, x0, #3
    1adc:	8b000020 	add	x0, x1, x0
    1ae0:	f9400400 	ldr	x0, [x0,#8]
    1ae4:	f90017e0 	str	x0, [sp,#40]
/home/rex/devel/optee/optee_os/lib/libutee/tee_api.c:76
    1ae8:	f9401fe0 	ldr	x0, [sp,#56]
    1aec:	d37ff800 	lsl	x0, x0, #1
    1af0:	91000400 	add	x0, x0, #0x1
    1af4:	f94007e1 	ldr	x1, [sp,#8]
    1af8:	d37df000 	lsl	x0, x0, #3
    1afc:	8b000020 	add	x0, x1, x0
    1b00:	f9400400 	ldr	x0, [x0,#8]
    1b04:	f90013e0 	str	x0, [sp,#32]
/home/rex/devel/optee/optee_os/lib/libutee/tee_api.c:78
    1b08:	f9401fe0 	ldr	x0, [sp,#56]
    1b0c:	531e7400 	lsl	w0, w0, #2
    1b10:	b94037e1 	ldr	w1, [sp,#52]
    1b14:	1ac02420 	lsr	w0, w1, w0
    1b18:	12000c00 	and	w0, w0, #0xf
    1b1c:	7100041f 	cmp	w0, #0x1
    1b20:	54000423 	b.cc	1ba4 <__utee_to_param+0xfc>
    1b24:	71000c1f 	cmp	w0, #0x3
    1b28:	540000a9 	b.ls	1b3c <__utee_to_param+0x94>
    1b2c:	51001400 	sub	w0, w0, #0x5
    1b30:	7100081f 	cmp	w0, #0x2
    1b34:	54000388 	b.hi	1ba4 <__utee_to_param+0xfc>
    1b38:	1400000e 	b	1b70 <__utee_to_param+0xc8>
/home/rex/devel/optee/optee_os/lib/libutee/tee_api.c:82
    1b3c:	f9401fe0 	ldr	x0, [sp,#56]
    1b40:	d37cec00 	lsl	x0, x0, #4
    1b44:	f9400fe1 	ldr	x1, [sp,#24]
    1b48:	8b000020 	add	x0, x1, x0
    1b4c:	f94017e1 	ldr	x1, [sp,#40]
    1b50:	b9000001 	str	w1, [x0]
/home/rex/devel/optee/optee_os/lib/libutee/tee_api.c:83
    1b54:	f9401fe0 	ldr	x0, [sp,#56]
    1b58:	d37cec00 	lsl	x0, x0, #4
    1b5c:	f9400fe1 	ldr	x1, [sp,#24]
    1b60:	8b000020 	add	x0, x1, x0
    1b64:	f94013e1 	ldr	x1, [sp,#32]
    1b68:	b9000401 	str	w1, [x0,#4]
/home/rex/devel/optee/optee_os/lib/libutee/tee_api.c:84
    1b6c:	1400000f 	b	1ba8 <__utee_to_param+0x100>
/home/rex/devel/optee/optee_os/lib/libutee/tee_api.c:88
    1b70:	f9401fe0 	ldr	x0, [sp,#56]
    1b74:	d37cec00 	lsl	x0, x0, #4
    1b78:	f9400fe1 	ldr	x1, [sp,#24]
    1b7c:	8b000020 	add	x0, x1, x0
    1b80:	f94017e1 	ldr	x1, [sp,#40]
    1b84:	f9000001 	str	x1, [x0]
/home/rex/devel/optee/optee_os/lib/libutee/tee_api.c:89
    1b88:	f9401fe0 	ldr	x0, [sp,#56]
    1b8c:	d37cec00 	lsl	x0, x0, #4
    1b90:	f9400fe1 	ldr	x1, [sp,#24]
    1b94:	8b000020 	add	x0, x1, x0
    1b98:	f94013e1 	ldr	x1, [sp,#32]
    1b9c:	b9000801 	str	w1, [x0,#8]
/home/rex/devel/optee/optee_os/lib/libutee/tee_api.c:90
    1ba0:	14000002 	b	1ba8 <__utee_to_param+0x100>
/home/rex/devel/optee/optee_os/lib/libutee/tee_api.c:92
    1ba4:	d503201f 	nop
/home/rex/devel/optee/optee_os/lib/libutee/tee_api.c:74 (discriminator 2)
    1ba8:	f9401fe0 	ldr	x0, [sp,#56]
    1bac:	91000400 	add	x0, x0, #0x1
    1bb0:	f9001fe0 	str	x0, [sp,#56]
/home/rex/devel/optee/optee_os/lib/libutee/tee_api.c:74 (discriminator 1)
    1bb4:	f9401fe0 	ldr	x0, [sp,#56]
    1bb8:	f1000c1f 	cmp	x0, #0x3
    1bbc:	54fff889 	b.ls	1acc <__utee_to_param+0x24>
/home/rex/devel/optee/optee_os/lib/libutee/tee_api.c:96
    1bc0:	f9400be0 	ldr	x0, [sp,#16]
    1bc4:	f100001f 	cmp	x0, #0x0
    1bc8:	54000080 	b.eq	1bd8 <__utee_to_param+0x130>
/home/rex/devel/optee/optee_os/lib/libutee/tee_api.c:97
    1bcc:	f9400be0 	ldr	x0, [sp,#16]
    1bd0:	b94037e1 	ldr	w1, [sp,#52]
    1bd4:	b9000001 	str	w1, [x0]
/home/rex/devel/optee/optee_os/lib/libutee/tee_api.c:98
    1bd8:	d503201f 	nop
    1bdc:	910103ff 	add	sp, sp, #0x40
    1be0:	d65f03c0 	ret

0000000000001be4 <TEE_OpenTASession>:
TEE_OpenTASession():
/home/rex/devel/optee/optee_os/lib/libutee/tee_api.c:106
    1be4:	a9b67bfd 	stp	x29, x30, [sp,#-160]!
    1be8:	910003fd 	mov	x29, sp
    1bec:	f9001fa0 	str	x0, [x29,#56]
    1bf0:	b90037a1 	str	w1, [x29,#52]
    1bf4:	b90033a2 	str	w2, [x29,#48]
    1bf8:	f90017a3 	str	x3, [x29,#40]
    1bfc:	f90013a4 	str	x4, [x29,#32]
    1c00:	f9000fa5 	str	x5, [x29,#24]
/home/rex/devel/optee/optee_os/lib/libutee/tee_api.c:111
    1c04:	910143a0 	add	x0, x29, #0x50
    1c08:	f94017a2 	ldr	x2, [x29,#40]
    1c0c:	b94033a1 	ldr	w1, [x29,#48]
    1c10:	97ffff45 	bl	1924 <__utee_from_param>
/home/rex/devel/optee/optee_os/lib/libutee/tee_api.c:112
    1c14:	b94037a0 	ldr	w0, [x29,#52]
    1c18:	910133a2 	add	x2, x29, #0x4c
    1c1c:	910143a1 	add	x1, x29, #0x50
    1c20:	f9400fa4 	ldr	x4, [x29,#24]
    1c24:	aa0203e3 	mov	x3, x2
    1c28:	aa0103e2 	mov	x2, x1
    1c2c:	aa0003e1 	mov	x1, x0
    1c30:	f9401fa0 	ldr	x0, [x29,#56]
    1c34:	97fffaed 	bl	7e8 <utee_open_ta_session>
    1c38:	b9009fa0 	str	w0, [x29,#156]
/home/rex/devel/optee/optee_os/lib/libutee/tee_api.c:114
    1c3c:	910143a0 	add	x0, x29, #0x50
    1c40:	aa0003e2 	mov	x2, x0
    1c44:	d2800001 	mov	x1, #0x0                   	// #0
    1c48:	f94017a0 	ldr	x0, [x29,#40]
    1c4c:	97ffff97 	bl	1aa8 <__utee_to_param>
/home/rex/devel/optee/optee_os/lib/libutee/tee_api.c:120
    1c50:	b9409fa0 	ldr	w0, [x29,#156]
    1c54:	7100001f 	cmp	w0, #0x0
    1c58:	54000040 	b.eq	1c60 <TEE_OpenTASession+0x7c>
/home/rex/devel/optee/optee_os/lib/libutee/tee_api.c:121
    1c5c:	b9004fbf 	str	wzr, [x29,#76]
/home/rex/devel/optee/optee_os/lib/libutee/tee_api.c:123
    1c60:	b9404fa0 	ldr	w0, [x29,#76]
    1c64:	2a0003e0 	mov	w0, w0
    1c68:	aa0003e1 	mov	x1, x0
    1c6c:	f94013a0 	ldr	x0, [x29,#32]
    1c70:	f9000001 	str	x1, [x0]
/home/rex/devel/optee/optee_os/lib/libutee/tee_api.c:124
    1c74:	b9409fa0 	ldr	w0, [x29,#156]
/home/rex/devel/optee/optee_os/lib/libutee/tee_api.c:125
    1c78:	a8ca7bfd 	ldp	x29, x30, [sp],#160
    1c7c:	d65f03c0 	ret

0000000000001c80 <TEE_CloseTASession>:
TEE_CloseTASession():
/home/rex/devel/optee/optee_os/lib/libutee/tee_api.c:128
    1c80:	a9bd7bfd 	stp	x29, x30, [sp,#-48]!
    1c84:	910003fd 	mov	x29, sp
    1c88:	f9000fa0 	str	x0, [x29,#24]
/home/rex/devel/optee/optee_os/lib/libutee/tee_api.c:129
    1c8c:	f9400fa0 	ldr	x0, [x29,#24]
    1c90:	f100001f 	cmp	x0, #0x0
    1c94:	54000260 	b.eq	1ce0 <TEE_CloseTASession+0x60>
/home/rex/devel/optee/optee_os/lib/libutee/tee_api.c:130
    1c98:	f9400fa0 	ldr	x0, [x29,#24]
    1c9c:	97fffad6 	bl	7f4 <utee_close_ta_session>
    1ca0:	b9002fa0 	str	w0, [x29,#44]
/home/rex/devel/optee/optee_os/lib/libutee/tee_api.c:132
    1ca4:	b9402fa0 	ldr	w0, [x29,#44]
    1ca8:	7100001f 	cmp	w0, #0x0
    1cac:	540001a0 	b.eq	1ce0 <TEE_CloseTASession+0x60>
/home/rex/devel/optee/optee_os/lib/libutee/tee_api.c:133
    1cb0:	d0000060 	adrp	x0, f000 <__compound_literal.5+0xdc>
    1cb4:	91056001 	add	x1, x0, #0x158
    1cb8:	d0000060 	adrp	x0, f000 <__compound_literal.5+0xdc>
    1cbc:	9105a000 	add	x0, x0, #0x168
    1cc0:	b9402fa5 	ldr	w5, [x29,#44]
    1cc4:	aa0103e4 	mov	x4, x1
    1cc8:	52800023 	mov	w3, #0x1                   	// #1
    1ccc:	52800022 	mov	w2, #0x1                   	// #1
    1cd0:	528010a1 	mov	w1, #0x85                  	// #133
    1cd4:	94001850 	bl	7e14 <trace_printf>
    1cd8:	b9402fa0 	ldr	w0, [x29,#44]
    1cdc:	940001a9 	bl	2380 <__TEE_Panic>
/home/rex/devel/optee/optee_os/lib/libutee/tee_api.c:135
    1ce0:	d503201f 	nop
    1ce4:	a8c37bfd 	ldp	x29, x30, [sp],#48
    1ce8:	d65f03c0 	ret

0000000000001cec <TEE_InvokeTACommand>:
TEE_InvokeTACommand():
/home/rex/devel/optee/optee_os/lib/libutee/tee_api.c:142
    1cec:	a9b77bfd 	stp	x29, x30, [sp,#-144]!
    1cf0:	910003fd 	mov	x29, sp
    1cf4:	f9001fa0 	str	x0, [x29,#56]
    1cf8:	b90037a1 	str	w1, [x29,#52]
    1cfc:	b90033a2 	str	w2, [x29,#48]
    1d00:	b9002fa3 	str	w3, [x29,#44]
    1d04:	f90013a4 	str	x4, [x29,#32]
    1d08:	f9000fa5 	str	x5, [x29,#24]
/home/rex/devel/optee/optee_os/lib/libutee/tee_api.c:147
    1d0c:	910103a0 	add	x0, x29, #0x40
    1d10:	f94013a2 	ldr	x2, [x29,#32]
    1d14:	b9402fa1 	ldr	w1, [x29,#44]
    1d18:	97ffff03 	bl	1924 <__utee_from_param>
/home/rex/devel/optee/optee_os/lib/libutee/tee_api.c:148
    1d1c:	f9401fa0 	ldr	x0, [x29,#56]
    1d20:	b94037a1 	ldr	w1, [x29,#52]
    1d24:	b94033a2 	ldr	w2, [x29,#48]
    1d28:	910223a4 	add	x4, x29, #0x88
    1d2c:	910103a3 	add	x3, x29, #0x40
    1d30:	97fffab4 	bl	800 <utee_invoke_ta_command>
    1d34:	b9008fa0 	str	w0, [x29,#140]
/home/rex/devel/optee/optee_os/lib/libutee/tee_api.c:151
    1d38:	910103a0 	add	x0, x29, #0x40
    1d3c:	aa0003e2 	mov	x2, x0
    1d40:	d2800001 	mov	x1, #0x0                   	// #0
    1d44:	f94013a0 	ldr	x0, [x29,#32]
    1d48:	97ffff58 	bl	1aa8 <__utee_to_param>
/home/rex/devel/optee/optee_os/lib/libutee/tee_api.c:153
    1d4c:	f9400fa0 	ldr	x0, [x29,#24]
    1d50:	f100001f 	cmp	x0, #0x0
    1d54:	54000080 	b.eq	1d64 <TEE_InvokeTACommand+0x78>
/home/rex/devel/optee/optee_os/lib/libutee/tee_api.c:154
    1d58:	b9408ba1 	ldr	w1, [x29,#136]
    1d5c:	f9400fa0 	ldr	x0, [x29,#24]
    1d60:	b9000001 	str	w1, [x0]
/home/rex/devel/optee/optee_os/lib/libutee/tee_api.c:156
    1d64:	b9408ba0 	ldr	w0, [x29,#136]
    1d68:	7100101f 	cmp	w0, #0x4
    1d6c:	54000061 	b.ne	1d78 <TEE_InvokeTACommand+0x8c>
/home/rex/devel/optee/optee_os/lib/libutee/tee_api.c:157
    1d70:	b9408fa0 	ldr	w0, [x29,#140]
    1d74:	14000019 	b	1dd8 <TEE_InvokeTACommand+0xec>
/home/rex/devel/optee/optee_os/lib/libutee/tee_api.c:159
    1d78:	b9408fa0 	ldr	w0, [x29,#140]
    1d7c:	7100001f 	cmp	w0, #0x0
    1d80:	540002a0 	b.eq	1dd4 <TEE_InvokeTACommand+0xe8>
/home/rex/devel/optee/optee_os/lib/libutee/tee_api.c:159 (discriminator 1)
    1d84:	b9408fa1 	ldr	w1, [x29,#140]
    1d88:	129ffe60 	mov	w0, #0xffff000c            	// #-65524
    1d8c:	6b00003f 	cmp	w1, w0
    1d90:	54000220 	b.eq	1dd4 <TEE_InvokeTACommand+0xe8>
/home/rex/devel/optee/optee_os/lib/libutee/tee_api.c:160
    1d94:	b9408fa1 	ldr	w1, [x29,#140]
    1d98:	1299fb60 	mov	w0, #0xffff3024            	// #-53212
    1d9c:	6b00003f 	cmp	w1, w0
    1da0:	540001a0 	b.eq	1dd4 <TEE_InvokeTACommand+0xe8>
/home/rex/devel/optee/optee_os/lib/libutee/tee_api.c:162
    1da4:	d0000060 	adrp	x0, f000 <__compound_literal.5+0xdc>
    1da8:	91056001 	add	x1, x0, #0x158
    1dac:	d0000060 	adrp	x0, f000 <__compound_literal.5+0xdc>
    1db0:	91060000 	add	x0, x0, #0x180
    1db4:	b9408fa5 	ldr	w5, [x29,#140]
    1db8:	aa0103e4 	mov	x4, x1
    1dbc:	52800023 	mov	w3, #0x1                   	// #1
    1dc0:	52800022 	mov	w2, #0x1                   	// #1
    1dc4:	52801441 	mov	w1, #0xa2                  	// #162
    1dc8:	94001813 	bl	7e14 <trace_printf>
    1dcc:	b9408fa0 	ldr	w0, [x29,#140]
    1dd0:	9400016c 	bl	2380 <__TEE_Panic>
/home/rex/devel/optee/optee_os/lib/libutee/tee_api.c:164
    1dd4:	b9408fa0 	ldr	w0, [x29,#140]
/home/rex/devel/optee/optee_os/lib/libutee/tee_api.c:165 (discriminator 1)
    1dd8:	a8c97bfd 	ldp	x29, x30, [sp],#144
    1ddc:	d65f03c0 	ret

0000000000001de0 <TEE_GetCancellationFlag>:
TEE_GetCancellationFlag():
/home/rex/devel/optee/optee_os/lib/libutee/tee_api.c:170
    1de0:	a9be7bfd 	stp	x29, x30, [sp,#-32]!
    1de4:	910003fd 	mov	x29, sp
/home/rex/devel/optee/optee_os/lib/libutee/tee_api.c:172
    1de8:	910063a0 	add	x0, x29, #0x18
    1dec:	97fffa88 	bl	80c <utee_get_cancellation_flag>
    1df0:	b9001fa0 	str	w0, [x29,#28]
/home/rex/devel/optee/optee_os/lib/libutee/tee_api.c:174
    1df4:	b9401fa0 	ldr	w0, [x29,#28]
    1df8:	7100001f 	cmp	w0, #0x0
    1dfc:	54000040 	b.eq	1e04 <TEE_GetCancellationFlag+0x24>
/home/rex/devel/optee/optee_os/lib/libutee/tee_api.c:175
    1e00:	b9001bbf 	str	wzr, [x29,#24]
/home/rex/devel/optee/optee_os/lib/libutee/tee_api.c:176
    1e04:	b9401ba0 	ldr	w0, [x29,#24]
    1e08:	7100001f 	cmp	w0, #0x0
    1e0c:	1a9f07e0 	cset	w0, ne
    1e10:	12001c00 	and	w0, w0, #0xff
/home/rex/devel/optee/optee_os/lib/libutee/tee_api.c:177
    1e14:	a8c27bfd 	ldp	x29, x30, [sp],#32
    1e18:	d65f03c0 	ret

0000000000001e1c <TEE_UnmaskCancellation>:
TEE_UnmaskCancellation():
/home/rex/devel/optee/optee_os/lib/libutee/tee_api.c:180
    1e1c:	a9be7bfd 	stp	x29, x30, [sp,#-32]!
    1e20:	910003fd 	mov	x29, sp
/home/rex/devel/optee/optee_os/lib/libutee/tee_api.c:182
    1e24:	910063a0 	add	x0, x29, #0x18
    1e28:	97fffa7f 	bl	824 <utee_unmask_cancellation>
    1e2c:	b9001fa0 	str	w0, [x29,#28]
/home/rex/devel/optee/optee_os/lib/libutee/tee_api.c:184
    1e30:	b9401fa0 	ldr	w0, [x29,#28]
    1e34:	7100001f 	cmp	w0, #0x0
    1e38:	540001a0 	b.eq	1e6c <TEE_UnmaskCancellation+0x50>
/home/rex/devel/optee/optee_os/lib/libutee/tee_api.c:185
    1e3c:	d0000060 	adrp	x0, f000 <__compound_literal.5+0xdc>
    1e40:	91056001 	add	x1, x0, #0x158
    1e44:	d0000060 	adrp	x0, f000 <__compound_literal.5+0xdc>
    1e48:	91066000 	add	x0, x0, #0x198
    1e4c:	b9401fa5 	ldr	w5, [x29,#28]
    1e50:	aa0103e4 	mov	x4, x1
    1e54:	52800023 	mov	w3, #0x1                   	// #1
    1e58:	52800022 	mov	w2, #0x1                   	// #1
    1e5c:	52801721 	mov	w1, #0xb9                  	// #185
    1e60:	940017ed 	bl	7e14 <trace_printf>
    1e64:	b9401fa0 	ldr	w0, [x29,#28]
    1e68:	94000146 	bl	2380 <__TEE_Panic>
/home/rex/devel/optee/optee_os/lib/libutee/tee_api.c:186
    1e6c:	b9401ba0 	ldr	w0, [x29,#24]
    1e70:	7100001f 	cmp	w0, #0x0
    1e74:	1a9f07e0 	cset	w0, ne
    1e78:	12001c00 	and	w0, w0, #0xff
/home/rex/devel/optee/optee_os/lib/libutee/tee_api.c:187
    1e7c:	a8c27bfd 	ldp	x29, x30, [sp],#32
    1e80:	d65f03c0 	ret

0000000000001e84 <TEE_MaskCancellation>:
TEE_MaskCancellation():
/home/rex/devel/optee/optee_os/lib/libutee/tee_api.c:190
    1e84:	a9be7bfd 	stp	x29, x30, [sp,#-32]!
    1e88:	910003fd 	mov	x29, sp
/home/rex/devel/optee/optee_os/lib/libutee/tee_api.c:192
    1e8c:	910063a0 	add	x0, x29, #0x18
    1e90:	97fffa68 	bl	830 <utee_mask_cancellation>
    1e94:	b9001fa0 	str	w0, [x29,#28]
/home/rex/devel/optee/optee_os/lib/libutee/tee_api.c:194
    1e98:	b9401fa0 	ldr	w0, [x29,#28]
    1e9c:	7100001f 	cmp	w0, #0x0
    1ea0:	540001a0 	b.eq	1ed4 <TEE_MaskCancellation+0x50>
/home/rex/devel/optee/optee_os/lib/libutee/tee_api.c:195
    1ea4:	d0000060 	adrp	x0, f000 <__compound_literal.5+0xdc>
    1ea8:	91056001 	add	x1, x0, #0x158
    1eac:	d0000060 	adrp	x0, f000 <__compound_literal.5+0xdc>
    1eb0:	9106c000 	add	x0, x0, #0x1b0
    1eb4:	b9401fa5 	ldr	w5, [x29,#28]
    1eb8:	aa0103e4 	mov	x4, x1
    1ebc:	52800023 	mov	w3, #0x1                   	// #1
    1ec0:	52800022 	mov	w2, #0x1                   	// #1
    1ec4:	52801861 	mov	w1, #0xc3                  	// #195
    1ec8:	940017d3 	bl	7e14 <trace_printf>
    1ecc:	b9401fa0 	ldr	w0, [x29,#28]
    1ed0:	9400012c 	bl	2380 <__TEE_Panic>
/home/rex/devel/optee/optee_os/lib/libutee/tee_api.c:196
    1ed4:	b9401ba0 	ldr	w0, [x29,#24]
    1ed8:	7100001f 	cmp	w0, #0x0
    1edc:	1a9f07e0 	cset	w0, ne
    1ee0:	12001c00 	and	w0, w0, #0xff
/home/rex/devel/optee/optee_os/lib/libutee/tee_api.c:197
    1ee4:	a8c27bfd 	ldp	x29, x30, [sp],#32
    1ee8:	d65f03c0 	ret

0000000000001eec <TEE_CheckMemoryAccessRights>:
TEE_CheckMemoryAccessRights():
/home/rex/devel/optee/optee_os/lib/libutee/tee_api.c:203
    1eec:	a9bd7bfd 	stp	x29, x30, [sp,#-48]!
    1ef0:	910003fd 	mov	x29, sp
    1ef4:	b9001fa0 	str	w0, [x29,#28]
    1ef8:	f9000ba1 	str	x1, [x29,#16]
    1efc:	b9001ba2 	str	w2, [x29,#24]
/home/rex/devel/optee/optee_os/lib/libutee/tee_api.c:206
    1f00:	b9401ba0 	ldr	w0, [x29,#24]
    1f04:	7100001f 	cmp	w0, #0x0
    1f08:	54000061 	b.ne	1f14 <TEE_CheckMemoryAccessRights+0x28>
/home/rex/devel/optee/optee_os/lib/libutee/tee_api.c:207
    1f0c:	52800000 	mov	w0, #0x0                   	// #0
    1f10:	1400000e 	b	1f48 <TEE_CheckMemoryAccessRights+0x5c>
/home/rex/devel/optee/optee_os/lib/libutee/tee_api.c:210
    1f14:	b9401ba0 	ldr	w0, [x29,#24]
    1f18:	aa0003e2 	mov	x2, x0
    1f1c:	f9400ba1 	ldr	x1, [x29,#16]
    1f20:	b9401fa0 	ldr	w0, [x29,#28]
    1f24:	97fffa3d 	bl	818 <utee_check_access_rights>
    1f28:	b9002fa0 	str	w0, [x29,#44]
/home/rex/devel/optee/optee_os/lib/libutee/tee_api.c:211
    1f2c:	b9402fa0 	ldr	w0, [x29,#44]
    1f30:	7100001f 	cmp	w0, #0x0
    1f34:	54000061 	b.ne	1f40 <TEE_CheckMemoryAccessRights+0x54>
/home/rex/devel/optee/optee_os/lib/libutee/tee_api.c:219
    1f38:	b9002fbf 	str	wzr, [x29,#44]
    1f3c:	14000002 	b	1f44 <TEE_CheckMemoryAccessRights+0x58>
/home/rex/devel/optee/optee_os/lib/libutee/tee_api.c:212
    1f40:	d503201f 	nop
/home/rex/devel/optee/optee_os/lib/libutee/tee_api.c:221
    1f44:	b9402fa0 	ldr	w0, [x29,#44]
/home/rex/devel/optee/optee_os/lib/libutee/tee_api.c:222
    1f48:	a8c37bfd 	ldp	x29, x30, [sp],#48
    1f4c:	d65f03c0 	ret

0000000000001f50 <TEE_SetInstanceData>:
TEE_SetInstanceData():
/home/rex/devel/optee/optee_os/lib/libutee/tee_api.c:225
    1f50:	d10043ff 	sub	sp, sp, #0x10
    1f54:	f90007e0 	str	x0, [sp,#8]
/home/rex/devel/optee/optee_os/lib/libutee/tee_api.c:226
    1f58:	d00000c0 	adrp	x0, 1b000 <mempool_u32+0xe80>
    1f5c:	91330000 	add	x0, x0, #0xcc0
    1f60:	f94007e1 	ldr	x1, [sp,#8]
    1f64:	f9000001 	str	x1, [x0]
/home/rex/devel/optee/optee_os/lib/libutee/tee_api.c:227
    1f68:	d503201f 	nop
    1f6c:	910043ff 	add	sp, sp, #0x10
    1f70:	d65f03c0 	ret

0000000000001f74 <TEE_GetInstanceData>:
TEE_GetInstanceData():
/home/rex/devel/optee/optee_os/lib/libutee/tee_api.c:231
    1f74:	d00000c0 	adrp	x0, 1b000 <mempool_u32+0xe80>
    1f78:	91330000 	add	x0, x0, #0xcc0
    1f7c:	f9400000 	ldr	x0, [x0]
/home/rex/devel/optee/optee_os/lib/libutee/tee_api.c:232
    1f80:	d65f03c0 	ret

0000000000001f84 <TEE_MemMove>:
TEE_MemMove():
/home/rex/devel/optee/optee_os/lib/libutee/tee_api.c:235
    1f84:	a9bd7bfd 	stp	x29, x30, [sp,#-48]!
    1f88:	910003fd 	mov	x29, sp
    1f8c:	f90017a0 	str	x0, [x29,#40]
    1f90:	f90013a1 	str	x1, [x29,#32]
    1f94:	b9001fa2 	str	w2, [x29,#28]
/home/rex/devel/optee/optee_os/lib/libutee/tee_api.c:236
    1f98:	b9401fa0 	ldr	w0, [x29,#28]
    1f9c:	aa0003e2 	mov	x2, x0
    1fa0:	f94013a1 	ldr	x1, [x29,#32]
    1fa4:	f94017a0 	ldr	x0, [x29,#40]
    1fa8:	94000db0 	bl	5668 <memmove>
/home/rex/devel/optee/optee_os/lib/libutee/tee_api.c:237
    1fac:	a8c37bfd 	ldp	x29, x30, [sp],#48
    1fb0:	d65f03c0 	ret

0000000000001fb4 <TEE_MemCompare>:
TEE_MemCompare():
/home/rex/devel/optee/optee_os/lib/libutee/tee_api.c:240
    1fb4:	a9bd7bfd 	stp	x29, x30, [sp,#-48]!
    1fb8:	910003fd 	mov	x29, sp
    1fbc:	f90017a0 	str	x0, [x29,#40]
    1fc0:	f90013a1 	str	x1, [x29,#32]
    1fc4:	b9001fa2 	str	w2, [x29,#28]
/home/rex/devel/optee/optee_os/lib/libutee/tee_api.c:241
    1fc8:	b9401fa0 	ldr	w0, [x29,#28]
    1fcc:	aa0003e2 	mov	x2, x0
    1fd0:	f94013a1 	ldr	x1, [x29,#32]
    1fd4:	f94017a0 	ldr	x0, [x29,#40]
    1fd8:	94000cfa 	bl	53c0 <memcmp>
/home/rex/devel/optee/optee_os/lib/libutee/tee_api.c:242
    1fdc:	a8c37bfd 	ldp	x29, x30, [sp],#48
    1fe0:	d65f03c0 	ret

0000000000001fe4 <TEE_MemFill>:
TEE_MemFill():
/home/rex/devel/optee/optee_os/lib/libutee/tee_api.c:245
    1fe4:	a9be7bfd 	stp	x29, x30, [sp,#-32]!
    1fe8:	910003fd 	mov	x29, sp
    1fec:	f9000fa0 	str	x0, [x29,#24]
    1ff0:	b90017a1 	str	w1, [x29,#20]
    1ff4:	b90013a2 	str	w2, [x29,#16]
/home/rex/devel/optee/optee_os/lib/libutee/tee_api.c:246
    1ff8:	b94017a0 	ldr	w0, [x29,#20]
    1ffc:	b94013a1 	ldr	w1, [x29,#16]
    2000:	aa0103e2 	mov	x2, x1
    2004:	2a0003e1 	mov	w1, w0
    2008:	f9400fa0 	ldr	x0, [x29,#24]
    200c:	94000e1a 	bl	5874 <memset>
/home/rex/devel/optee/optee_os/lib/libutee/tee_api.c:247
    2010:	a8c27bfd 	ldp	x29, x30, [sp],#32
    2014:	d65f03c0 	ret

0000000000002018 <TEE_GetSystemTime>:
TEE_GetSystemTime():
/home/rex/devel/optee/optee_os/lib/libutee/tee_api.c:252
    2018:	a9bd7bfd 	stp	x29, x30, [sp,#-48]!
    201c:	910003fd 	mov	x29, sp
    2020:	f9000fa0 	str	x0, [x29,#24]
/home/rex/devel/optee/optee_os/lib/libutee/tee_api.c:253
    2024:	f9400fa1 	ldr	x1, [x29,#24]
    2028:	d2800000 	mov	x0, #0x0                   	// #0
    202c:	97fffa07 	bl	848 <utee_get_time>
    2030:	b9002fa0 	str	w0, [x29,#44]
/home/rex/devel/optee/optee_os/lib/libutee/tee_api.c:255
    2034:	b9402fa0 	ldr	w0, [x29,#44]
    2038:	7100001f 	cmp	w0, #0x0
    203c:	540001a0 	b.eq	2070 <TEE_GetSystemTime+0x58>
/home/rex/devel/optee/optee_os/lib/libutee/tee_api.c:256
    2040:	b0000060 	adrp	x0, f000 <__compound_literal.5+0xdc>
    2044:	91056001 	add	x1, x0, #0x158
    2048:	b0000060 	adrp	x0, f000 <__compound_literal.5+0xdc>
    204c:	91072000 	add	x0, x0, #0x1c8
    2050:	b9402fa5 	ldr	w5, [x29,#44]
    2054:	aa0103e4 	mov	x4, x1
    2058:	52800023 	mov	w3, #0x1                   	// #1
    205c:	52800022 	mov	w2, #0x1                   	// #1
    2060:	52802001 	mov	w1, #0x100                 	// #256
    2064:	9400176c 	bl	7e14 <trace_printf>
    2068:	b9402fa0 	ldr	w0, [x29,#44]
    206c:	940000c5 	bl	2380 <__TEE_Panic>
/home/rex/devel/optee/optee_os/lib/libutee/tee_api.c:257
    2070:	d503201f 	nop
    2074:	a8c37bfd 	ldp	x29, x30, [sp],#48
    2078:	d65f03c0 	ret

000000000000207c <TEE_Wait>:
TEE_Wait():
/home/rex/devel/optee/optee_os/lib/libutee/tee_api.c:260
    207c:	a9bd7bfd 	stp	x29, x30, [sp,#-48]!
    2080:	910003fd 	mov	x29, sp
    2084:	b9001fa0 	str	w0, [x29,#28]
/home/rex/devel/optee/optee_os/lib/libutee/tee_api.c:261
    2088:	b9401fa0 	ldr	w0, [x29,#28]
    208c:	97fff9ec 	bl	83c <utee_wait>
    2090:	b9002fa0 	str	w0, [x29,#44]
/home/rex/devel/optee/optee_os/lib/libutee/tee_api.c:263
    2094:	b9402fa0 	ldr	w0, [x29,#44]
    2098:	7100001f 	cmp	w0, #0x0
    209c:	54000220 	b.eq	20e0 <TEE_Wait+0x64>
/home/rex/devel/optee/optee_os/lib/libutee/tee_api.c:263 (discriminator 1)
    20a0:	b9402fa1 	ldr	w1, [x29,#44]
    20a4:	129fffa0 	mov	w0, #0xffff0002            	// #-65534
    20a8:	6b00003f 	cmp	w1, w0
    20ac:	540001a0 	b.eq	20e0 <TEE_Wait+0x64>
/home/rex/devel/optee/optee_os/lib/libutee/tee_api.c:264
    20b0:	b0000060 	adrp	x0, f000 <__compound_literal.5+0xdc>
    20b4:	91056001 	add	x1, x0, #0x158
    20b8:	b0000060 	adrp	x0, f000 <__compound_literal.5+0xdc>
    20bc:	91078000 	add	x0, x0, #0x1e0
    20c0:	b9402fa5 	ldr	w5, [x29,#44]
    20c4:	aa0103e4 	mov	x4, x1
    20c8:	52800023 	mov	w3, #0x1                   	// #1
    20cc:	52800022 	mov	w2, #0x1                   	// #1
    20d0:	52802101 	mov	w1, #0x108                 	// #264
    20d4:	94001750 	bl	7e14 <trace_printf>
    20d8:	b9402fa0 	ldr	w0, [x29,#44]
    20dc:	940000a9 	bl	2380 <__TEE_Panic>
/home/rex/devel/optee/optee_os/lib/libutee/tee_api.c:266
    20e0:	b9402fa0 	ldr	w0, [x29,#44]
/home/rex/devel/optee/optee_os/lib/libutee/tee_api.c:267
    20e4:	a8c37bfd 	ldp	x29, x30, [sp],#48
    20e8:	d65f03c0 	ret

00000000000020ec <TEE_GetTAPersistentTime>:
TEE_GetTAPersistentTime():
/home/rex/devel/optee/optee_os/lib/libutee/tee_api.c:270
    20ec:	a9bd7bfd 	stp	x29, x30, [sp,#-48]!
    20f0:	910003fd 	mov	x29, sp
    20f4:	f9000fa0 	str	x0, [x29,#24]
/home/rex/devel/optee/optee_os/lib/libutee/tee_api.c:273
    20f8:	f9400fa1 	ldr	x1, [x29,#24]
    20fc:	d2800020 	mov	x0, #0x1                   	// #1
    2100:	97fff9d2 	bl	848 <utee_get_time>
    2104:	b9002fa0 	str	w0, [x29,#44]
/home/rex/devel/optee/optee_os/lib/libutee/tee_api.c:275
    2108:	b9402fa0 	ldr	w0, [x29,#44]
    210c:	7100001f 	cmp	w0, #0x0
    2110:	54000120 	b.eq	2134 <TEE_GetTAPersistentTime+0x48>
/home/rex/devel/optee/optee_os/lib/libutee/tee_api.c:275 (discriminator 1)
    2114:	b9402fa1 	ldr	w1, [x29,#44]
    2118:	1299fe00 	mov	w0, #0xffff300f            	// #-53233
    211c:	6b00003f 	cmp	w1, w0
    2120:	540000a0 	b.eq	2134 <TEE_GetTAPersistentTime+0x48>
/home/rex/devel/optee/optee_os/lib/libutee/tee_api.c:276
    2124:	f9400fa0 	ldr	x0, [x29,#24]
    2128:	b900001f 	str	wzr, [x0]
/home/rex/devel/optee/optee_os/lib/libutee/tee_api.c:277
    212c:	f9400fa0 	ldr	x0, [x29,#24]
    2130:	b900041f 	str	wzr, [x0,#4]
/home/rex/devel/optee/optee_os/lib/libutee/tee_api.c:280
    2134:	b9402fa0 	ldr	w0, [x29,#44]
    2138:	7100001f 	cmp	w0, #0x0
    213c:	54000380 	b.eq	21ac <TEE_GetTAPersistentTime+0xc0>
/home/rex/devel/optee/optee_os/lib/libutee/tee_api.c:280 (discriminator 1)
    2140:	b9402fa0 	ldr	w0, [x29,#44]
    2144:	31402c1f 	cmn	w0, #0xb, lsl #12
    2148:	54000320 	b.eq	21ac <TEE_GetTAPersistentTime+0xc0>
/home/rex/devel/optee/optee_os/lib/libutee/tee_api.c:281
    214c:	b9402fa1 	ldr	w1, [x29,#44]
    2150:	1295ffc0 	mov	w0, #0xffff5001            	// #-45055
    2154:	6b00003f 	cmp	w1, w0
    2158:	540002a0 	b.eq	21ac <TEE_GetTAPersistentTime+0xc0>
/home/rex/devel/optee/optee_os/lib/libutee/tee_api.c:282
    215c:	b9402fa1 	ldr	w1, [x29,#44]
    2160:	1299fe00 	mov	w0, #0xffff300f            	// #-53233
    2164:	6b00003f 	cmp	w1, w0
    2168:	54000220 	b.eq	21ac <TEE_GetTAPersistentTime+0xc0>
/home/rex/devel/optee/optee_os/lib/libutee/tee_api.c:283
    216c:	b9402fa1 	ldr	w1, [x29,#44]
    2170:	129ffe60 	mov	w0, #0xffff000c            	// #-65524
    2174:	6b00003f 	cmp	w1, w0
    2178:	540001a0 	b.eq	21ac <TEE_GetTAPersistentTime+0xc0>
/home/rex/devel/optee/optee_os/lib/libutee/tee_api.c:285
    217c:	b0000060 	adrp	x0, f000 <__compound_literal.5+0xdc>
    2180:	91056001 	add	x1, x0, #0x158
    2184:	b0000060 	adrp	x0, f000 <__compound_literal.5+0xdc>
    2188:	9107c000 	add	x0, x0, #0x1f0
    218c:	b9402fa5 	ldr	w5, [x29,#44]
    2190:	aa0103e4 	mov	x4, x1
    2194:	52800023 	mov	w3, #0x1                   	// #1
    2198:	52800022 	mov	w2, #0x1                   	// #1
    219c:	528023a1 	mov	w1, #0x11d                 	// #285
    21a0:	9400171d 	bl	7e14 <trace_printf>
    21a4:	b9402fa0 	ldr	w0, [x29,#44]
    21a8:	94000076 	bl	2380 <__TEE_Panic>
/home/rex/devel/optee/optee_os/lib/libutee/tee_api.c:287
    21ac:	b9402fa0 	ldr	w0, [x29,#44]
/home/rex/devel/optee/optee_os/lib/libutee/tee_api.c:288
    21b0:	a8c37bfd 	ldp	x29, x30, [sp],#48
    21b4:	d65f03c0 	ret

00000000000021b8 <TEE_SetTAPersistentTime>:
TEE_SetTAPersistentTime():
/home/rex/devel/optee/optee_os/lib/libutee/tee_api.c:291
    21b8:	a9bd7bfd 	stp	x29, x30, [sp,#-48]!
    21bc:	910003fd 	mov	x29, sp
    21c0:	f9000fa0 	str	x0, [x29,#24]
/home/rex/devel/optee/optee_os/lib/libutee/tee_api.c:294
    21c4:	f9400fa0 	ldr	x0, [x29,#24]
    21c8:	97fff9a3 	bl	854 <utee_set_ta_time>
    21cc:	b9002fa0 	str	w0, [x29,#44]
/home/rex/devel/optee/optee_os/lib/libutee/tee_api.c:296
    21d0:	b9402fa0 	ldr	w0, [x29,#44]
    21d4:	7100001f 	cmp	w0, #0x0
    21d8:	540002a0 	b.eq	222c <TEE_SetTAPersistentTime+0x74>
/home/rex/devel/optee/optee_os/lib/libutee/tee_api.c:296 (discriminator 1)
    21dc:	b9402fa1 	ldr	w1, [x29,#44]
    21e0:	129ffe60 	mov	w0, #0xffff000c            	// #-65524
    21e4:	6b00003f 	cmp	w1, w0
    21e8:	54000220 	b.eq	222c <TEE_SetTAPersistentTime+0x74>
/home/rex/devel/optee/optee_os/lib/libutee/tee_api.c:297
    21ec:	b9402fa1 	ldr	w1, [x29,#44]
    21f0:	1299f7c0 	mov	w0, #0xffff3041            	// #-53183
    21f4:	6b00003f 	cmp	w1, w0
    21f8:	540001a0 	b.eq	222c <TEE_SetTAPersistentTime+0x74>
/home/rex/devel/optee/optee_os/lib/libutee/tee_api.c:299
    21fc:	b0000060 	adrp	x0, f000 <__compound_literal.5+0xdc>
    2200:	91056001 	add	x1, x0, #0x158
    2204:	b0000060 	adrp	x0, f000 <__compound_literal.5+0xdc>
    2208:	91082000 	add	x0, x0, #0x208
    220c:	b9402fa5 	ldr	w5, [x29,#44]
    2210:	aa0103e4 	mov	x4, x1
    2214:	52800023 	mov	w3, #0x1                   	// #1
    2218:	52800022 	mov	w2, #0x1                   	// #1
    221c:	52802561 	mov	w1, #0x12b                 	// #299
    2220:	940016fd 	bl	7e14 <trace_printf>
    2224:	b9402fa0 	ldr	w0, [x29,#44]
    2228:	94000056 	bl	2380 <__TEE_Panic>
/home/rex/devel/optee/optee_os/lib/libutee/tee_api.c:301
    222c:	b9402fa0 	ldr	w0, [x29,#44]
/home/rex/devel/optee/optee_os/lib/libutee/tee_api.c:302
    2230:	a8c37bfd 	ldp	x29, x30, [sp],#48
    2234:	d65f03c0 	ret

0000000000002238 <TEE_GetREETime>:
TEE_GetREETime():
/home/rex/devel/optee/optee_os/lib/libutee/tee_api.c:305
    2238:	a9bd7bfd 	stp	x29, x30, [sp,#-48]!
    223c:	910003fd 	mov	x29, sp
    2240:	f9000fa0 	str	x0, [x29,#24]
/home/rex/devel/optee/optee_os/lib/libutee/tee_api.c:306
    2244:	f9400fa1 	ldr	x1, [x29,#24]
    2248:	d2800040 	mov	x0, #0x2                   	// #2
    224c:	97fff97f 	bl	848 <utee_get_time>
    2250:	b9002fa0 	str	w0, [x29,#44]
/home/rex/devel/optee/optee_os/lib/libutee/tee_api.c:308
    2254:	b9402fa0 	ldr	w0, [x29,#44]
    2258:	7100001f 	cmp	w0, #0x0
    225c:	540001a0 	b.eq	2290 <TEE_GetREETime+0x58>
/home/rex/devel/optee/optee_os/lib/libutee/tee_api.c:309
    2260:	b0000060 	adrp	x0, f000 <__compound_literal.5+0xdc>
    2264:	91056001 	add	x1, x0, #0x158
    2268:	b0000060 	adrp	x0, f000 <__compound_literal.5+0xdc>
    226c:	91088000 	add	x0, x0, #0x220
    2270:	b9402fa5 	ldr	w5, [x29,#44]
    2274:	aa0103e4 	mov	x4, x1
    2278:	52800023 	mov	w3, #0x1                   	// #1
    227c:	52800022 	mov	w2, #0x1                   	// #1
    2280:	528026a1 	mov	w1, #0x135                 	// #309
    2284:	940016e4 	bl	7e14 <trace_printf>
    2288:	b9402fa0 	ldr	w0, [x29,#44]
    228c:	9400003d 	bl	2380 <__TEE_Panic>
/home/rex/devel/optee/optee_os/lib/libutee/tee_api.c:310
    2290:	d503201f 	nop
    2294:	a8c37bfd 	ldp	x29, x30, [sp],#48
    2298:	d65f03c0 	ret

000000000000229c <TEE_Malloc>:
TEE_Malloc():
/home/rex/devel/optee/optee_os/lib/libutee/tee_api.c:313
    229c:	a9be7bfd 	stp	x29, x30, [sp,#-32]!
    22a0:	910003fd 	mov	x29, sp
    22a4:	b9001fa0 	str	w0, [x29,#28]
    22a8:	b9001ba1 	str	w1, [x29,#24]
/home/rex/devel/optee/optee_os/lib/libutee/tee_api.c:314
    22ac:	b9401fa0 	ldr	w0, [x29,#28]
    22b0:	b9401ba1 	ldr	w1, [x29,#24]
    22b4:	94000189 	bl	28d8 <tee_user_mem_alloc>
/home/rex/devel/optee/optee_os/lib/libutee/tee_api.c:315
    22b8:	a8c27bfd 	ldp	x29, x30, [sp],#32
    22bc:	d65f03c0 	ret

00000000000022c0 <TEE_Realloc>:
TEE_Realloc():
/home/rex/devel/optee/optee_os/lib/libutee/tee_api.c:318
    22c0:	a9be7bfd 	stp	x29, x30, [sp,#-32]!
    22c4:	910003fd 	mov	x29, sp
    22c8:	f9000fa0 	str	x0, [x29,#24]
    22cc:	b90017a1 	str	w1, [x29,#20]
/home/rex/devel/optee/optee_os/lib/libutee/tee_api.c:323
    22d0:	b94017a0 	ldr	w0, [x29,#20]
    22d4:	aa0003e1 	mov	x1, x0
    22d8:	f9400fa0 	ldr	x0, [x29,#24]
    22dc:	940001f3 	bl	2aa8 <tee_user_mem_realloc>
/home/rex/devel/optee/optee_os/lib/libutee/tee_api.c:324
    22e0:	a8c27bfd 	ldp	x29, x30, [sp],#32
    22e4:	d65f03c0 	ret

00000000000022e8 <TEE_Free>:
TEE_Free():
/home/rex/devel/optee/optee_os/lib/libutee/tee_api.c:327
    22e8:	a9be7bfd 	stp	x29, x30, [sp,#-32]!
    22ec:	910003fd 	mov	x29, sp
    22f0:	f9000fa0 	str	x0, [x29,#24]
/home/rex/devel/optee/optee_os/lib/libutee/tee_api.c:328
    22f4:	f9400fa0 	ldr	x0, [x29,#24]
    22f8:	94000230 	bl	2bb8 <tee_user_mem_free>
/home/rex/devel/optee/optee_os/lib/libutee/tee_api.c:329
    22fc:	d503201f 	nop
    2300:	a8c27bfd 	ldp	x29, x30, [sp],#32
    2304:	d65f03c0 	ret

0000000000002308 <TEE_CacheClean>:
TEE_CacheClean():
/home/rex/devel/optee/optee_os/lib/libutee/tee_api.c:333
    2308:	a9be7bfd 	stp	x29, x30, [sp,#-32]!
    230c:	910003fd 	mov	x29, sp
    2310:	f9000fa0 	str	x0, [x29,#24]
    2314:	f9000ba1 	str	x1, [x29,#16]
/home/rex/devel/optee/optee_os/lib/libutee/tee_api.c:334
    2318:	d2800002 	mov	x2, #0x0                   	// #0
    231c:	f9400ba1 	ldr	x1, [x29,#16]
    2320:	f9400fa0 	ldr	x0, [x29,#24]
    2324:	97fff9f4 	bl	af4 <utee_cache_operation>
/home/rex/devel/optee/optee_os/lib/libutee/tee_api.c:335
    2328:	a8c27bfd 	ldp	x29, x30, [sp],#32
    232c:	d65f03c0 	ret

0000000000002330 <TEE_CacheFlush>:
TEE_CacheFlush():
/home/rex/devel/optee/optee_os/lib/libutee/tee_api.c:337
    2330:	a9be7bfd 	stp	x29, x30, [sp,#-32]!
    2334:	910003fd 	mov	x29, sp
    2338:	f9000fa0 	str	x0, [x29,#24]
    233c:	f9000ba1 	str	x1, [x29,#16]
/home/rex/devel/optee/optee_os/lib/libutee/tee_api.c:338
    2340:	d2800022 	mov	x2, #0x1                   	// #1
    2344:	f9400ba1 	ldr	x1, [x29,#16]
    2348:	f9400fa0 	ldr	x0, [x29,#24]
    234c:	97fff9ea 	bl	af4 <utee_cache_operation>
/home/rex/devel/optee/optee_os/lib/libutee/tee_api.c:339
    2350:	a8c27bfd 	ldp	x29, x30, [sp],#32
    2354:	d65f03c0 	ret

0000000000002358 <TEE_CacheInvalidate>:
TEE_CacheInvalidate():
/home/rex/devel/optee/optee_os/lib/libutee/tee_api.c:342
    2358:	a9be7bfd 	stp	x29, x30, [sp,#-32]!
    235c:	910003fd 	mov	x29, sp
    2360:	f9000fa0 	str	x0, [x29,#24]
    2364:	f9000ba1 	str	x1, [x29,#16]
/home/rex/devel/optee/optee_os/lib/libutee/tee_api.c:343
    2368:	d2800042 	mov	x2, #0x2                   	// #2
    236c:	f9400ba1 	ldr	x1, [x29,#16]
    2370:	f9400fa0 	ldr	x0, [x29,#24]
    2374:	97fff9e0 	bl	af4 <utee_cache_operation>
/home/rex/devel/optee/optee_os/lib/libutee/tee_api.c:344
    2378:	a8c27bfd 	ldp	x29, x30, [sp],#32
    237c:	d65f03c0 	ret

0000000000002380 <__TEE_Panic>:
__TEE_Panic():
/home/rex/devel/optee/optee_os/lib/libutee/tee_api_panic.c:35
    2380:	a9be7bfd 	stp	x29, x30, [sp,#-32]!
    2384:	910003fd 	mov	x29, sp
    2388:	b9001fa0 	str	w0, [x29,#28]
/home/rex/devel/optee/optee_os/lib/libutee/tee_api_panic.c:36
    238c:	b9401fa0 	ldr	w0, [x29,#28]
    2390:	97fff90d 	bl	7c4 <utee_panic>

0000000000002394 <TEE_Panic>:
TEE_Panic():
/home/rex/devel/optee/optee_os/lib/libutee/tee_api_panic.c:40
    2394:	a9be7bfd 	stp	x29, x30, [sp,#-32]!
    2398:	910003fd 	mov	x29, sp
    239c:	b9001fa0 	str	w0, [x29,#28]
/home/rex/devel/optee/optee_os/lib/libutee/tee_api_panic.c:41
    23a0:	b9401fa0 	ldr	w0, [x29,#28]
    23a4:	97fffff7 	bl	2380 <__TEE_Panic>

00000000000023a8 <utee_get_ta_exec_id>:
utee_get_ta_exec_id():
/home/rex/devel/optee/optee_os/lib/libutee/arch/arm/utee_misc.c:38
    23a8:	52800000 	mov	w0, #0x0                   	// #0
/home/rex/devel/optee/optee_os/lib/libutee/arch/arm/utee_misc.c:39
    23ac:	d65f03c0 	ret

00000000000023b0 <utee_malloc>:
utee_malloc():
/home/rex/devel/optee/optee_os/lib/libutee/arch/arm/utee_misc.c:43
    23b0:	a9be7bfd 	stp	x29, x30, [sp,#-32]!
    23b4:	910003fd 	mov	x29, sp
    23b8:	f9000fa0 	str	x0, [x29,#24]
/home/rex/devel/optee/optee_os/lib/libutee/arch/arm/utee_misc.c:44
    23bc:	f9400fa0 	ldr	x0, [x29,#24]
    23c0:	94000a54 	bl	4d10 <malloc>
/home/rex/devel/optee/optee_os/lib/libutee/arch/arm/utee_misc.c:45
    23c4:	a8c27bfd 	ldp	x29, x30, [sp],#32
    23c8:	d65f03c0 	ret

00000000000023cc <utee_realloc>:
utee_realloc():
/home/rex/devel/optee/optee_os/lib/libutee/arch/arm/utee_misc.c:48
    23cc:	a9be7bfd 	stp	x29, x30, [sp,#-32]!
    23d0:	910003fd 	mov	x29, sp
    23d4:	f9000fa0 	str	x0, [x29,#24]
    23d8:	f9000ba1 	str	x1, [x29,#16]
/home/rex/devel/optee/optee_os/lib/libutee/arch/arm/utee_misc.c:49
    23dc:	f9400ba1 	ldr	x1, [x29,#16]
    23e0:	f9400fa0 	ldr	x0, [x29,#24]
    23e4:	94000a82 	bl	4dec <realloc>
/home/rex/devel/optee/optee_os/lib/libutee/arch/arm/utee_misc.c:50
    23e8:	a8c27bfd 	ldp	x29, x30, [sp],#32
    23ec:	d65f03c0 	ret

00000000000023f0 <utee_calloc>:
utee_calloc():
/home/rex/devel/optee/optee_os/lib/libutee/arch/arm/utee_misc.c:53
    23f0:	a9be7bfd 	stp	x29, x30, [sp,#-32]!
    23f4:	910003fd 	mov	x29, sp
    23f8:	f9000fa0 	str	x0, [x29,#24]
    23fc:	f9000ba1 	str	x1, [x29,#16]
/home/rex/devel/optee/optee_os/lib/libutee/arch/arm/utee_misc.c:54
    2400:	f9400fa1 	ldr	x1, [x29,#24]
    2404:	f9400ba0 	ldr	x0, [x29,#16]
    2408:	94000a5d 	bl	4d7c <calloc>
/home/rex/devel/optee/optee_os/lib/libutee/arch/arm/utee_misc.c:55
    240c:	a8c27bfd 	ldp	x29, x30, [sp],#32
    2410:	d65f03c0 	ret

0000000000002414 <utee_free>:
utee_free():
/home/rex/devel/optee/optee_os/lib/libutee/arch/arm/utee_misc.c:58
    2414:	a9be7bfd 	stp	x29, x30, [sp,#-32]!
    2418:	910003fd 	mov	x29, sp
    241c:	f9000fa0 	str	x0, [x29,#24]
/home/rex/devel/optee/optee_os/lib/libutee/arch/arm/utee_misc.c:59
    2420:	f9400fa0 	ldr	x0, [x29,#24]
    2424:	94000a4a 	bl	4d4c <free>
/home/rex/devel/optee/optee_os/lib/libutee/arch/arm/utee_misc.c:60
    2428:	d503201f 	nop
    242c:	a8c27bfd 	ldp	x29, x30, [sp],#32
    2430:	d65f03c0 	ret

0000000000002434 <get_rng_array>:
get_rng_array():
/home/rex/devel/optee/optee_os/lib/libutee/arch/arm/utee_misc.c:70
    2434:	a9be7bfd 	stp	x29, x30, [sp,#-32]!
    2438:	910003fd 	mov	x29, sp
    243c:	f9000fa0 	str	x0, [x29,#24]
    2440:	f9000ba1 	str	x1, [x29,#16]
/home/rex/devel/optee/optee_os/lib/libutee/arch/arm/utee_misc.c:71
    2444:	f9400ba1 	ldr	x1, [x29,#16]
    2448:	f9400fa0 	ldr	x0, [x29,#24]
    244c:	97fff93b 	bl	938 <utee_cryp_random_number_generate>
/home/rex/devel/optee/optee_os/lib/libutee/arch/arm/utee_misc.c:72
    2450:	a8c27bfd 	ldp	x29, x30, [sp],#32
    2454:	d65f03c0 	ret

0000000000002458 <buf_addr>:
buf_addr():
/home/rex/devel/optee/optee_os/lib/libutee/tee_user_mem.c:130
    2458:	d10043ff 	sub	sp, sp, #0x10
    245c:	f90007e0 	str	x0, [sp,#8]
/home/rex/devel/optee/optee_os/lib/libutee/tee_user_mem.c:131
    2460:	f94007e0 	ldr	x0, [sp,#8]
    2464:	91008000 	add	x0, x0, #0x20
/home/rex/devel/optee/optee_os/lib/libutee/tee_user_mem.c:132
    2468:	910043ff 	add	sp, sp, #0x10
    246c:	d65f03c0 	ret

0000000000002470 <buf_size>:
buf_size():
/home/rex/devel/optee/optee_os/lib/libutee/tee_user_mem.c:135
    2470:	d10043ff 	sub	sp, sp, #0x10
    2474:	f90007e0 	str	x0, [sp,#8]
/home/rex/devel/optee/optee_os/lib/libutee/tee_user_mem.c:136
    2478:	f94007e0 	ldr	x0, [sp,#8]
    247c:	f9400801 	ldr	x1, [x0,#16]
    2480:	d2800020 	mov	x0, #0x1                   	// #1
    2484:	cb000020 	sub	x0, x1, x0
    2488:	d1008000 	sub	x0, x0, #0x20
/home/rex/devel/optee/optee_os/lib/libutee/tee_user_mem.c:137
    248c:	910043ff 	add	sp, sp, #0x10
    2490:	d65f03c0 	ret

0000000000002494 <elem_addr>:
elem_addr():
/home/rex/devel/optee/optee_os/lib/libutee/tee_user_mem.c:140
    2494:	d10043ff 	sub	sp, sp, #0x10
    2498:	f90007e0 	str	x0, [sp,#8]
/home/rex/devel/optee/optee_os/lib/libutee/tee_user_mem.c:141
    249c:	f94007e0 	ldr	x0, [sp,#8]
    24a0:	d1008000 	sub	x0, x0, #0x20
/home/rex/devel/optee/optee_os/lib/libutee/tee_user_mem.c:142
    24a4:	910043ff 	add	sp, sp, #0x10
    24a8:	d65f03c0 	ret

00000000000024ac <is_buffer_valid>:
is_buffer_valid():
/home/rex/devel/optee/optee_os/lib/libutee/tee_user_mem.c:148
    24ac:	a9bd7bfd 	stp	x29, x30, [sp,#-48]!
    24b0:	910003fd 	mov	x29, sp
    24b4:	f9000fa0 	str	x0, [x29,#24]
/home/rex/devel/optee/optee_os/lib/libutee/tee_user_mem.c:151
    24b8:	90000080 	adrp	x0, 12000 <ta_props>
    24bc:	91040000 	add	x0, x0, #0x100
    24c0:	f9400000 	ldr	x0, [x0]
    24c4:	f90017a0 	str	x0, [x29,#40]
    24c8:	1400000c 	b	24f8 <is_buffer_valid+0x4c>
/home/rex/devel/optee/optee_os/lib/libutee/tee_user_mem.c:152
    24cc:	f94017a0 	ldr	x0, [x29,#40]
    24d0:	97ffffe2 	bl	2458 <buf_addr>
    24d4:	aa0003e1 	mov	x1, x0
    24d8:	f9400fa0 	ldr	x0, [x29,#24]
    24dc:	eb00003f 	cmp	x1, x0
    24e0:	54000061 	b.ne	24ec <is_buffer_valid+0x40>
/home/rex/devel/optee/optee_os/lib/libutee/tee_user_mem.c:153
    24e4:	52800020 	mov	w0, #0x1                   	// #1
    24e8:	14000008 	b	2508 <is_buffer_valid+0x5c>
/home/rex/devel/optee/optee_os/lib/libutee/tee_user_mem.c:151 (discriminator 2)
    24ec:	f94017a0 	ldr	x0, [x29,#40]
    24f0:	f9400000 	ldr	x0, [x0]
    24f4:	f90017a0 	str	x0, [x29,#40]
/home/rex/devel/optee/optee_os/lib/libutee/tee_user_mem.c:151 (discriminator 1)
    24f8:	f94017a0 	ldr	x0, [x29,#40]
    24fc:	f100001f 	cmp	x0, #0x0
    2500:	54fffe61 	b.ne	24cc <is_buffer_valid+0x20>
/home/rex/devel/optee/optee_os/lib/libutee/tee_user_mem.c:155
    2504:	52800000 	mov	w0, #0x0                   	// #0
/home/rex/devel/optee/optee_os/lib/libutee/tee_user_mem.c:156
    2508:	a8c37bfd 	ldp	x29, x30, [sp],#48
    250c:	d65f03c0 	ret

0000000000002510 <print_buf>:
print_buf():
/home/rex/devel/optee/optee_os/lib/libutee/tee_user_mem.c:165
    2510:	d10183ff 	sub	sp, sp, #0x60
    2514:	a9027bfd 	stp	x29, x30, [sp,#32]
    2518:	910083fd 	add	x29, sp, #0x20
    251c:	f9001bf3 	str	x19, [sp,#48]
    2520:	b9003fa0 	str	w0, [x29,#60]
    2524:	f9001ba1 	str	x1, [x29,#48]
    2528:	b9003ba2 	str	w2, [x29,#56]
    252c:	f90017a3 	str	x3, [x29,#40]
    2530:	f90013a4 	str	x4, [x29,#32]
/home/rex/devel/optee/optee_os/lib/libutee/tee_user_mem.c:166
    2534:	f94013a0 	ldr	x0, [x29,#32]
    2538:	97ffffc8 	bl	2458 <buf_addr>
    253c:	aa0003f3 	mov	x19, x0
    2540:	f94013a0 	ldr	x0, [x29,#32]
    2544:	97ffffcb 	bl	2470 <buf_size>
    2548:	aa0003e2 	mov	x2, x0
    254c:	b0000060 	adrp	x0, f000 <__compound_literal.5+0xdc>
    2550:	91090001 	add	x1, x0, #0x240
    2554:	f9000be2 	str	x2, [sp,#16]
    2558:	f90007f3 	str	x19, [sp,#8]
    255c:	f94013a0 	ldr	x0, [x29,#32]
    2560:	f90003e0 	str	x0, [sp]
    2564:	f94017a7 	ldr	x7, [x29,#40]
    2568:	b9403ba6 	ldr	w6, [x29,#56]
    256c:	f9401ba5 	ldr	x5, [x29,#48]
    2570:	aa0103e4 	mov	x4, x1
    2574:	52800023 	mov	w3, #0x1                   	// #1
    2578:	b9403fa2 	ldr	w2, [x29,#60]
    257c:	52800001 	mov	w1, #0x0                   	// #0
    2580:	d2800000 	mov	x0, #0x0                   	// #0
    2584:	94001624 	bl	7e14 <trace_printf>
/home/rex/devel/optee/optee_os/lib/libutee/tee_user_mem.c:169
    2588:	d503201f 	nop
    258c:	f9401bf3 	ldr	x19, [sp,#48]
    2590:	a9427bfd 	ldp	x29, x30, [sp,#32]
    2594:	910183ff 	add	sp, sp, #0x60
    2598:	d65f03c0 	ret

000000000000259c <heap_inc>:
heap_inc():
/home/rex/devel/optee/optee_os/lib/libutee/tee_user_mem.c:195
    259c:	d10043ff 	sub	sp, sp, #0x10
    25a0:	f90007e0 	str	x0, [sp,#8]
/home/rex/devel/optee/optee_os/lib/libutee/tee_user_mem.c:197
    25a4:	b00000c0 	adrp	x0, 1b000 <mempool_u32+0xe80>
    25a8:	91332000 	add	x0, x0, #0xcc8
    25ac:	f9400001 	ldr	x1, [x0]
    25b0:	f94007e0 	ldr	x0, [sp,#8]
    25b4:	8b000021 	add	x1, x1, x0
    25b8:	b00000c0 	adrp	x0, 1b000 <mempool_u32+0xe80>
    25bc:	91332000 	add	x0, x0, #0xcc8
    25c0:	f9000001 	str	x1, [x0]
/home/rex/devel/optee/optee_os/lib/libutee/tee_user_mem.c:199
    25c4:	b00000c0 	adrp	x0, 1b000 <mempool_u32+0xe80>
    25c8:	91334000 	add	x0, x0, #0xcd0
    25cc:	b9400000 	ldr	w0, [x0]
    25d0:	11000401 	add	w1, w0, #0x1
    25d4:	b00000c0 	adrp	x0, 1b000 <mempool_u32+0xe80>
    25d8:	91334000 	add	x0, x0, #0xcd0
    25dc:	b9000001 	str	w1, [x0]
/home/rex/devel/optee/optee_os/lib/libutee/tee_user_mem.c:200
    25e0:	b00000c0 	adrp	x0, 1b000 <mempool_u32+0xe80>
    25e4:	91334000 	add	x0, x0, #0xcd0
    25e8:	f9400401 	ldr	x1, [x0,#8]
    25ec:	f94007e0 	ldr	x0, [sp,#8]
    25f0:	8b000021 	add	x1, x1, x0
    25f4:	b00000c0 	adrp	x0, 1b000 <mempool_u32+0xe80>
    25f8:	91334000 	add	x0, x0, #0xcd0
    25fc:	f9000401 	str	x1, [x0,#8]
/home/rex/devel/optee/optee_os/lib/libutee/tee_user_mem.c:202
    2600:	d503201f 	nop
    2604:	910043ff 	add	sp, sp, #0x10
    2608:	d65f03c0 	ret

000000000000260c <heap_dec>:
heap_dec():
/home/rex/devel/optee/optee_os/lib/libutee/tee_user_mem.c:205
    260c:	d10043ff 	sub	sp, sp, #0x10
    2610:	f90007e0 	str	x0, [sp,#8]
/home/rex/devel/optee/optee_os/lib/libutee/tee_user_mem.c:207
    2614:	b00000c0 	adrp	x0, 1b000 <mempool_u32+0xe80>
    2618:	91332000 	add	x0, x0, #0xcc8
    261c:	f9400001 	ldr	x1, [x0]
    2620:	f94007e0 	ldr	x0, [sp,#8]
    2624:	cb000021 	sub	x1, x1, x0
    2628:	b00000c0 	adrp	x0, 1b000 <mempool_u32+0xe80>
    262c:	91332000 	add	x0, x0, #0xcc8
    2630:	f9000001 	str	x1, [x0]
/home/rex/devel/optee/optee_os/lib/libutee/tee_user_mem.c:209
    2634:	b00000c0 	adrp	x0, 1b000 <mempool_u32+0xe80>
    2638:	91334000 	add	x0, x0, #0xcd0
    263c:	b9400000 	ldr	w0, [x0]
    2640:	51000401 	sub	w1, w0, #0x1
    2644:	b00000c0 	adrp	x0, 1b000 <mempool_u32+0xe80>
    2648:	91334000 	add	x0, x0, #0xcd0
    264c:	b9000001 	str	w1, [x0]
/home/rex/devel/optee/optee_os/lib/libutee/tee_user_mem.c:210
    2650:	b00000c0 	adrp	x0, 1b000 <mempool_u32+0xe80>
    2654:	91334000 	add	x0, x0, #0xcd0
    2658:	f9400401 	ldr	x1, [x0,#8]
    265c:	f94007e0 	ldr	x0, [sp,#8]
    2660:	cb000021 	sub	x1, x1, x0
    2664:	b00000c0 	adrp	x0, 1b000 <mempool_u32+0xe80>
    2668:	91334000 	add	x0, x0, #0xcd0
    266c:	f9000401 	str	x1, [x0,#8]
/home/rex/devel/optee/optee_os/lib/libutee/tee_user_mem.c:212
    2670:	d503201f 	nop
    2674:	910043ff 	add	sp, sp, #0x10
    2678:	d65f03c0 	ret

000000000000267c <check_elem_end>:
check_elem_end():
/home/rex/devel/optee/optee_os/lib/libutee/tee_user_mem.c:218
    267c:	a9bd7bfd 	stp	x29, x30, [sp,#-48]!
    2680:	910003fd 	mov	x29, sp
    2684:	f9000fa0 	str	x0, [x29,#24]
/home/rex/devel/optee/optee_os/lib/libutee/tee_user_mem.c:219
    2688:	f9400fa0 	ldr	x0, [x29,#24]
    268c:	f90017a0 	str	x0, [x29,#40]
/home/rex/devel/optee/optee_os/lib/libutee/tee_user_mem.c:226
    2690:	f9400fa0 	ldr	x0, [x29,#24]
    2694:	f9400801 	ldr	x1, [x0,#16]
    2698:	d2800020 	mov	x0, #0x1                   	// #1
    269c:	cb000020 	sub	x0, x1, x0
    26a0:	f94017a1 	ldr	x1, [x29,#40]
    26a4:	8b000020 	add	x0, x1, x0
    26a8:	39400000 	ldrb	w0, [x0]
    26ac:	92401c01 	and	x1, x0, #0xff
/home/rex/devel/optee/optee_os/lib/libutee/tee_user_mem.c:227
    26b0:	f94017a0 	ldr	x0, [x29,#40]
    26b4:	92401c02 	and	x2, x0, #0xff
    26b8:	d28018a0 	mov	x0, #0xc5                  	// #197
    26bc:	ca000040 	eor	x0, x2, x0
/home/rex/devel/optee/optee_os/lib/libutee/tee_user_mem.c:226
    26c0:	eb00003f 	cmp	x1, x0
    26c4:	540001a0 	b.eq	26f8 <check_elem_end+0x7c>
/home/rex/devel/optee/optee_os/lib/libutee/tee_user_mem.c:228
    26c8:	b0000060 	adrp	x0, f000 <__compound_literal.5+0xdc>
    26cc:	9109a001 	add	x1, x0, #0x268
    26d0:	b0000060 	adrp	x0, f000 <__compound_literal.5+0xdc>
    26d4:	910dc000 	add	x0, x0, #0x370
    26d8:	f9400fa4 	ldr	x4, [x29,#24]
    26dc:	aa0103e3 	mov	x3, x1
    26e0:	52801c82 	mov	w2, #0xe4                  	// #228
    26e4:	aa0003e1 	mov	x1, x0
    26e8:	52800020 	mov	w0, #0x1                   	// #1
    26ec:	97ffff89 	bl	2510 <print_buf>
/home/rex/devel/optee/optee_os/lib/libutee/tee_user_mem.c:229
    26f0:	52800000 	mov	w0, #0x0                   	// #0
    26f4:	14000002 	b	26fc <check_elem_end+0x80>
/home/rex/devel/optee/optee_os/lib/libutee/tee_user_mem.c:232
    26f8:	52800020 	mov	w0, #0x1                   	// #1
/home/rex/devel/optee/optee_os/lib/libutee/tee_user_mem.c:233
    26fc:	a8c37bfd 	ldp	x29, x30, [sp],#48
    2700:	d65f03c0 	ret

0000000000002704 <check_elem>:
check_elem():
/home/rex/devel/optee/optee_os/lib/libutee/tee_user_mem.c:236
    2704:	a9bd7bfd 	stp	x29, x30, [sp,#-48]!
    2708:	910003fd 	mov	x29, sp
    270c:	f9000fa0 	str	x0, [x29,#24]
/home/rex/devel/optee/optee_os/lib/libutee/tee_user_mem.c:240
    2710:	f9400fa0 	ldr	x0, [x29,#24]
    2714:	f100001f 	cmp	x0, #0x0
    2718:	54000061 	b.ne	2724 <check_elem+0x20>
/home/rex/devel/optee/optee_os/lib/libutee/tee_user_mem.c:241
    271c:	52800000 	mov	w0, #0x0                   	// #0
    2720:	1400004e 	b	2858 <check_elem+0x154>
/home/rex/devel/optee/optee_os/lib/libutee/tee_user_mem.c:243
    2724:	f9400fa0 	ldr	x0, [x29,#24]
    2728:	92400400 	and	x0, x0, #0x3
    272c:	f100001f 	cmp	x0, #0x0
    2730:	540002c0 	b.eq	2788 <check_elem+0x84>
/home/rex/devel/optee/optee_os/lib/libutee/tee_user_mem.c:244
    2734:	b0000060 	adrp	x0, f000 <__compound_literal.5+0xdc>
    2738:	9109e001 	add	x1, x0, #0x278
    273c:	b0000060 	adrp	x0, f000 <__compound_literal.5+0xdc>
    2740:	910e0000 	add	x0, x0, #0x380
    2744:	aa0103e4 	mov	x4, x1
    2748:	52800023 	mov	w3, #0x1                   	// #1
    274c:	52800022 	mov	w2, #0x1                   	// #1
    2750:	52801e81 	mov	w1, #0xf4                  	// #244
    2754:	940015b0 	bl	7e14 <trace_printf>
/home/rex/devel/optee/optee_os/lib/libutee/tee_user_mem.c:245
    2758:	b0000060 	adrp	x0, f000 <__compound_literal.5+0xdc>
    275c:	910a4001 	add	x1, x0, #0x290
    2760:	b0000060 	adrp	x0, f000 <__compound_literal.5+0xdc>
    2764:	910e0000 	add	x0, x0, #0x380
    2768:	52800005 	mov	w5, #0x0                   	// #0
    276c:	aa0103e4 	mov	x4, x1
    2770:	52800023 	mov	w3, #0x1                   	// #1
    2774:	52800022 	mov	w2, #0x1                   	// #1
    2778:	52801ea1 	mov	w1, #0xf5                  	// #245
    277c:	940015a6 	bl	7e14 <trace_printf>
    2780:	52800000 	mov	w0, #0x0                   	// #0
    2784:	97fffeff 	bl	2380 <__TEE_Panic>
/home/rex/devel/optee/optee_os/lib/libutee/tee_user_mem.c:248
    2788:	f9400fa0 	ldr	x0, [x29,#24]
    278c:	f9400000 	ldr	x0, [x0]
    2790:	f90017a0 	str	x0, [x29,#40]
/home/rex/devel/optee/optee_os/lib/libutee/tee_user_mem.c:249
    2794:	f94017a0 	ldr	x0, [x29,#40]
    2798:	f100001f 	cmp	x0, #0x0
    279c:	54000280 	b.eq	27ec <check_elem+0xe8>
/home/rex/devel/optee/optee_os/lib/libutee/tee_user_mem.c:249 (discriminator 1)
    27a0:	f94017a0 	ldr	x0, [x29,#40]
    27a4:	f9400400 	ldr	x0, [x0,#8]
    27a8:	f9400400 	ldr	x0, [x0,#8]
    27ac:	f9400001 	ldr	x1, [x0]
    27b0:	f9400fa0 	ldr	x0, [x29,#24]
    27b4:	eb00003f 	cmp	x1, x0
    27b8:	540001a0 	b.eq	27ec <check_elem+0xe8>
/home/rex/devel/optee/optee_os/lib/libutee/tee_user_mem.c:250
    27bc:	b0000060 	adrp	x0, f000 <__compound_literal.5+0xdc>
    27c0:	910a8001 	add	x1, x0, #0x2a0
    27c4:	b0000060 	adrp	x0, f000 <__compound_literal.5+0xdc>
    27c8:	910e0000 	add	x0, x0, #0x380
    27cc:	f94017a4 	ldr	x4, [x29,#40]
    27d0:	aa0103e3 	mov	x3, x1
    27d4:	52801f42 	mov	w2, #0xfa                  	// #250
    27d8:	aa0003e1 	mov	x1, x0
    27dc:	52800020 	mov	w0, #0x1                   	// #1
    27e0:	97ffff4c 	bl	2510 <print_buf>
/home/rex/devel/optee/optee_os/lib/libutee/tee_user_mem.c:251
    27e4:	52800000 	mov	w0, #0x0                   	// #0
    27e8:	1400001c 	b	2858 <check_elem+0x154>
/home/rex/devel/optee/optee_os/lib/libutee/tee_user_mem.c:254
    27ec:	f9400fa0 	ldr	x0, [x29,#24]
    27f0:	f9400400 	ldr	x0, [x0,#8]
    27f4:	f9400400 	ldr	x0, [x0,#8]
    27f8:	f9400000 	ldr	x0, [x0]
    27fc:	f90017a0 	str	x0, [x29,#40]
/home/rex/devel/optee/optee_os/lib/libutee/tee_user_mem.c:255
    2800:	f94017a0 	ldr	x0, [x29,#40]
    2804:	f100001f 	cmp	x0, #0x0
    2808:	54000240 	b.eq	2850 <check_elem+0x14c>
/home/rex/devel/optee/optee_os/lib/libutee/tee_user_mem.c:255 (discriminator 1)
    280c:	f94017a0 	ldr	x0, [x29,#40]
    2810:	f9400001 	ldr	x1, [x0]
    2814:	f9400fa0 	ldr	x0, [x29,#24]
    2818:	eb00003f 	cmp	x1, x0
    281c:	540001a0 	b.eq	2850 <check_elem+0x14c>
/home/rex/devel/optee/optee_os/lib/libutee/tee_user_mem.c:256
    2820:	b0000060 	adrp	x0, f000 <__compound_literal.5+0xdc>
    2824:	910a8001 	add	x1, x0, #0x2a0
    2828:	b0000060 	adrp	x0, f000 <__compound_literal.5+0xdc>
    282c:	910e0000 	add	x0, x0, #0x380
    2830:	f94017a4 	ldr	x4, [x29,#40]
    2834:	aa0103e3 	mov	x3, x1
    2838:	52802002 	mov	w2, #0x100                 	// #256
    283c:	aa0003e1 	mov	x1, x0
    2840:	52800020 	mov	w0, #0x1                   	// #1
    2844:	97ffff33 	bl	2510 <print_buf>
/home/rex/devel/optee/optee_os/lib/libutee/tee_user_mem.c:257
    2848:	52800000 	mov	w0, #0x0                   	// #0
    284c:	14000003 	b	2858 <check_elem+0x154>
/home/rex/devel/optee/optee_os/lib/libutee/tee_user_mem.c:260
    2850:	f9400fa0 	ldr	x0, [x29,#24]
    2854:	97ffff8a 	bl	267c <check_elem_end>
/home/rex/devel/optee/optee_os/lib/libutee/tee_user_mem.c:261
    2858:	a8c37bfd 	ldp	x29, x30, [sp],#48
    285c:	d65f03c0 	ret

0000000000002860 <is_mem_coherent>:
is_mem_coherent():
/home/rex/devel/optee/optee_os/lib/libutee/tee_user_mem.c:265
    2860:	a9be7bfd 	stp	x29, x30, [sp,#-32]!
    2864:	910003fd 	mov	x29, sp
/home/rex/devel/optee/optee_os/lib/libutee/tee_user_mem.c:268
    2868:	90000080 	adrp	x0, 12000 <ta_props>
    286c:	91040000 	add	x0, x0, #0x100
    2870:	f9400000 	ldr	x0, [x0]
    2874:	f9000fa0 	str	x0, [x29,#24]
    2878:	14000012 	b	28c0 <is_mem_coherent+0x60>
/home/rex/devel/optee/optee_os/lib/libutee/tee_user_mem.c:269
    287c:	f9400fa0 	ldr	x0, [x29,#24]
    2880:	97ffffa1 	bl	2704 <check_elem>
    2884:	7100001f 	cmp	w0, #0x0
    2888:	54000161 	b.ne	28b4 <is_mem_coherent+0x54>
/home/rex/devel/optee/optee_os/lib/libutee/tee_user_mem.c:270 (discriminator 1)
    288c:	b0000060 	adrp	x0, f000 <__compound_literal.5+0xdc>
    2890:	910e4002 	add	x2, x0, #0x390
    2894:	b0000060 	adrp	x0, f000 <__compound_literal.5+0xdc>
    2898:	910ac001 	add	x1, x0, #0x2b0
    289c:	b0000060 	adrp	x0, f000 <__compound_literal.5+0xdc>
    28a0:	910b4000 	add	x0, x0, #0x2d0
    28a4:	aa0203e3 	mov	x3, x2
    28a8:	528021c2 	mov	w2, #0x10e                 	// #270
    28ac:	94000211 	bl	30f0 <_assert_log>
    28b0:	94000228 	bl	3150 <_assert_break>
/home/rex/devel/optee/optee_os/lib/libutee/tee_user_mem.c:268 (discriminator 2)
    28b4:	f9400fa0 	ldr	x0, [x29,#24]
    28b8:	f9400000 	ldr	x0, [x0]
    28bc:	f9000fa0 	str	x0, [x29,#24]
/home/rex/devel/optee/optee_os/lib/libutee/tee_user_mem.c:268 (discriminator 1)
    28c0:	f9400fa0 	ldr	x0, [x29,#24]
    28c4:	f100001f 	cmp	x0, #0x0
    28c8:	54fffda1 	b.ne	287c <is_mem_coherent+0x1c>
/home/rex/devel/optee/optee_os/lib/libutee/tee_user_mem.c:274
    28cc:	52800020 	mov	w0, #0x1                   	// #1
/home/rex/devel/optee/optee_os/lib/libutee/tee_user_mem.c:275
    28d0:	a8c27bfd 	ldp	x29, x30, [sp],#32
    28d4:	d65f03c0 	ret

00000000000028d8 <tee_user_mem_alloc>:
tee_user_mem_alloc():
/home/rex/devel/optee/optee_os/lib/libutee/tee_user_mem.c:297
    28d8:	a9bc7bfd 	stp	x29, x30, [sp,#-64]!
    28dc:	910003fd 	mov	x29, sp
    28e0:	f9000fa0 	str	x0, [x29,#24]
    28e4:	b90017a1 	str	w1, [x29,#20]
/home/rex/devel/optee/optee_os/lib/libutee/tee_user_mem.c:299
    28e8:	f9001fbf 	str	xzr, [x29,#56]
/home/rex/devel/optee/optee_os/lib/libutee/tee_user_mem.c:301
    28ec:	d2800021 	mov	x1, #0x1                   	// #1
    28f0:	f9400fa0 	ldr	x0, [x29,#24]
    28f4:	8b000020 	add	x0, x1, x0
/home/rex/devel/optee/optee_os/lib/libutee/tee_user_mem.c:300
    28f8:	91008000 	add	x0, x0, #0x20
    28fc:	f9001ba0 	str	x0, [x29,#48]
/home/rex/devel/optee/optee_os/lib/libutee/tee_user_mem.c:306
    2900:	f9400fa0 	ldr	x0, [x29,#24]
    2904:	7100001f 	cmp	w0, #0x0
    2908:	5400006a 	b.ge	2914 <tee_user_mem_alloc+0x3c>
/home/rex/devel/optee/optee_os/lib/libutee/tee_user_mem.c:308
    290c:	d2800000 	mov	x0, #0x0                   	// #0
    2910:	14000064 	b	2aa0 <tee_user_mem_alloc+0x1c8>
/home/rex/devel/optee/optee_os/lib/libutee/tee_user_mem.c:311
    2914:	f9400fa0 	ldr	x0, [x29,#24]
    2918:	f100001f 	cmp	x0, #0x0
    291c:	540000a1 	b.ne	2930 <tee_user_mem_alloc+0x58>
/home/rex/devel/optee/optee_os/lib/libutee/tee_user_mem.c:313
    2920:	90000080 	adrp	x0, 12000 <ta_props>
    2924:	9103e000 	add	x0, x0, #0xf8
    2928:	f9400000 	ldr	x0, [x0]
    292c:	1400005d 	b	2aa0 <tee_user_mem_alloc+0x1c8>
/home/rex/devel/optee/optee_os/lib/libutee/tee_user_mem.c:317
    2930:	b94017a0 	ldr	w0, [x29,#20]
    2934:	7100001f 	cmp	w0, #0x0
    2938:	54000200 	b.eq	2978 <tee_user_mem_alloc+0xa0>
    293c:	52b00001 	mov	w1, #0x80000000            	// #-2147483648
    2940:	6b01001f 	cmp	w0, w1
    2944:	540001a0 	b.eq	2978 <tee_user_mem_alloc+0xa0>
/home/rex/devel/optee/optee_os/lib/libutee/tee_user_mem.c:322
    2948:	b0000060 	adrp	x0, f000 <__compound_literal.5+0xdc>
    294c:	910b6001 	add	x1, x0, #0x2d8
    2950:	b0000060 	adrp	x0, f000 <__compound_literal.5+0xdc>
    2954:	910e8000 	add	x0, x0, #0x3a0
    2958:	b94017a5 	ldr	w5, [x29,#20]
    295c:	aa0103e4 	mov	x4, x1
    2960:	52800023 	mov	w3, #0x1                   	// #1
    2964:	52800022 	mov	w2, #0x1                   	// #1
    2968:	52802841 	mov	w1, #0x142                 	// #322
    296c:	9400152a 	bl	7e14 <trace_printf>
/home/rex/devel/optee/optee_os/lib/libutee/tee_user_mem.c:324
    2970:	d2800000 	mov	x0, #0x0                   	// #0
    2974:	1400004b 	b	2aa0 <tee_user_mem_alloc+0x1c8>
/home/rex/devel/optee/optee_os/lib/libutee/tee_user_mem.c:320
    2978:	d503201f 	nop
/home/rex/devel/optee/optee_os/lib/libutee/tee_user_mem.c:327
    297c:	f9401ba0 	ldr	x0, [x29,#48]
    2980:	97fffe8c 	bl	23b0 <utee_malloc>
    2984:	f90017a0 	str	x0, [x29,#40]
/home/rex/devel/optee/optee_os/lib/libutee/tee_user_mem.c:328
    2988:	f94017a0 	ldr	x0, [x29,#40]
    298c:	f100001f 	cmp	x0, #0x0
    2990:	54000860 	b.eq	2a9c <tee_user_mem_alloc+0x1c4>
/home/rex/devel/optee/optee_os/lib/libutee/tee_user_mem.c:329
    2994:	f94017a0 	ldr	x0, [x29,#40]
    2998:	f90013a0 	str	x0, [x29,#32]
/home/rex/devel/optee/optee_os/lib/libutee/tee_user_mem.c:330
    299c:	f94013a0 	ldr	x0, [x29,#32]
    29a0:	f9401ba1 	ldr	x1, [x29,#48]
    29a4:	f9000801 	str	x1, [x0,#16]
/home/rex/devel/optee/optee_os/lib/libutee/tee_user_mem.c:331
    29a8:	f94013a0 	ldr	x0, [x29,#32]
    29ac:	b94017a1 	ldr	w1, [x29,#20]
    29b0:	b9001801 	str	w1, [x0,#24]
/home/rex/devel/optee/optee_os/lib/libutee/tee_user_mem.c:332
    29b4:	f9401ba0 	ldr	x0, [x29,#48]
    29b8:	97fffef9 	bl	259c <heap_inc>
/home/rex/devel/optee/optee_os/lib/libutee/tee_user_mem.c:335
    29bc:	f94013a0 	ldr	x0, [x29,#32]
    29c0:	f900001f 	str	xzr, [x0]
    29c4:	90000080 	adrp	x0, 12000 <ta_props>
    29c8:	91040000 	add	x0, x0, #0x100
    29cc:	f9400401 	ldr	x1, [x0,#8]
    29d0:	f94013a0 	ldr	x0, [x29,#32]
    29d4:	f9000401 	str	x1, [x0,#8]
    29d8:	90000080 	adrp	x0, 12000 <ta_props>
    29dc:	91040000 	add	x0, x0, #0x100
    29e0:	f9400400 	ldr	x0, [x0,#8]
    29e4:	f94013a1 	ldr	x1, [x29,#32]
    29e8:	f9000001 	str	x1, [x0]
    29ec:	f94013a1 	ldr	x1, [x29,#32]
    29f0:	90000080 	adrp	x0, 12000 <ta_props>
    29f4:	91040000 	add	x0, x0, #0x100
    29f8:	f9000401 	str	x1, [x0,#8]
/home/rex/devel/optee/optee_os/lib/libutee/tee_user_mem.c:339
    29fc:	d2800020 	mov	x0, #0x1                   	// #1
    2a00:	f9401ba1 	ldr	x1, [x29,#48]
    2a04:	cb000020 	sub	x0, x1, x0
    2a08:	f94017a1 	ldr	x1, [x29,#40]
    2a0c:	8b000020 	add	x0, x1, x0
/home/rex/devel/optee/optee_os/lib/libutee/tee_user_mem.c:340
    2a10:	f94017a1 	ldr	x1, [x29,#40]
    2a14:	12001c22 	and	w2, w1, #0xff
    2a18:	12800741 	mov	w1, #0xffffffc5            	// #-59
    2a1c:	4a010041 	eor	w1, w2, w1
    2a20:	12001c21 	and	w1, w1, #0xff
/home/rex/devel/optee/optee_os/lib/libutee/tee_user_mem.c:339
    2a24:	39000001 	strb	w1, [x0]
/home/rex/devel/optee/optee_os/lib/libutee/tee_user_mem.c:343
    2a28:	b0000060 	adrp	x0, f000 <__compound_literal.5+0xdc>
    2a2c:	910be001 	add	x1, x0, #0x2f8
    2a30:	b0000060 	adrp	x0, f000 <__compound_literal.5+0xdc>
    2a34:	910e8000 	add	x0, x0, #0x3a0
    2a38:	f94013a4 	ldr	x4, [x29,#32]
    2a3c:	aa0103e3 	mov	x3, x1
    2a40:	52802ae2 	mov	w2, #0x157                 	// #343
    2a44:	aa0003e1 	mov	x1, x0
    2a48:	52800080 	mov	w0, #0x4                   	// #4
    2a4c:	97fffeb1 	bl	2510 <print_buf>
/home/rex/devel/optee/optee_os/lib/libutee/tee_user_mem.c:345
    2a50:	f94013a0 	ldr	x0, [x29,#32]
    2a54:	97fffe81 	bl	2458 <buf_addr>
    2a58:	f9001fa0 	str	x0, [x29,#56]
/home/rex/devel/optee/optee_os/lib/libutee/tee_user_mem.c:347
    2a5c:	b94017a0 	ldr	w0, [x29,#20]
    2a60:	7100001f 	cmp	w0, #0x0
    2a64:	540000c1 	b.ne	2a7c <tee_user_mem_alloc+0x1a4>
/home/rex/devel/optee/optee_os/lib/libutee/tee_user_mem.c:348
    2a68:	f9400fa2 	ldr	x2, [x29,#24]
    2a6c:	52800001 	mov	w1, #0x0                   	// #0
    2a70:	f9401fa0 	ldr	x0, [x29,#56]
    2a74:	94000b80 	bl	5874 <memset>
    2a78:	14000009 	b	2a9c <tee_user_mem_alloc+0x1c4>
/home/rex/devel/optee/optee_os/lib/libutee/tee_user_mem.c:350
    2a7c:	b94017a1 	ldr	w1, [x29,#20]
    2a80:	52b00000 	mov	w0, #0x80000000            	// #-2147483648
    2a84:	6b00003f 	cmp	w1, w0
    2a88:	540000a1 	b.ne	2a9c <tee_user_mem_alloc+0x1c4>
/home/rex/devel/optee/optee_os/lib/libutee/tee_user_mem.c:352
    2a8c:	f9400fa2 	ldr	x2, [x29,#24]
    2a90:	52801761 	mov	w1, #0xbb                  	// #187
    2a94:	f9401fa0 	ldr	x0, [x29,#56]
    2a98:	94000b77 	bl	5874 <memset>
/home/rex/devel/optee/optee_os/lib/libutee/tee_user_mem.c:357
    2a9c:	f9401fa0 	ldr	x0, [x29,#56]
/home/rex/devel/optee/optee_os/lib/libutee/tee_user_mem.c:358
    2aa0:	a8c47bfd 	ldp	x29, x30, [sp],#64
    2aa4:	d65f03c0 	ret

0000000000002aa8 <tee_user_mem_realloc>:
tee_user_mem_realloc():
/home/rex/devel/optee/optee_os/lib/libutee/tee_user_mem.c:367
    2aa8:	a9bb7bfd 	stp	x29, x30, [sp,#-80]!
    2aac:	910003fd 	mov	x29, sp
    2ab0:	f9000fa0 	str	x0, [x29,#24]
    2ab4:	f9000ba1 	str	x1, [x29,#16]
/home/rex/devel/optee/optee_os/lib/libutee/tee_user_mem.c:374
    2ab8:	f9400ba0 	ldr	x0, [x29,#16]
    2abc:	7100001f 	cmp	w0, #0x0
    2ac0:	5400006a 	b.ge	2acc <tee_user_mem_realloc+0x24>
/home/rex/devel/optee/optee_os/lib/libutee/tee_user_mem.c:376
    2ac4:	d2800000 	mov	x0, #0x0                   	// #0
    2ac8:	1400003a 	b	2bb0 <tee_user_mem_realloc+0x108>
/home/rex/devel/optee/optee_os/lib/libutee/tee_user_mem.c:384
    2acc:	f9400fa0 	ldr	x0, [x29,#24]
    2ad0:	f100001f 	cmp	x0, #0x0
    2ad4:	54000160 	b.eq	2b00 <tee_user_mem_realloc+0x58>
/home/rex/devel/optee/optee_os/lib/libutee/tee_user_mem.c:384 (discriminator 1)
    2ad8:	90000080 	adrp	x0, 12000 <ta_props>
    2adc:	9103e000 	add	x0, x0, #0xf8
    2ae0:	f9400000 	ldr	x0, [x0]
    2ae4:	f9400fa1 	ldr	x1, [x29,#24]
    2ae8:	eb00003f 	cmp	x1, x0
    2aec:	540000a0 	b.eq	2b00 <tee_user_mem_realloc+0x58>
/home/rex/devel/optee/optee_os/lib/libutee/tee_user_mem.c:384 (discriminator 2)
    2af0:	f9400fa0 	ldr	x0, [x29,#24]
    2af4:	97fffe6e 	bl	24ac <is_buffer_valid>
    2af8:	7100001f 	cmp	w0, #0x0
    2afc:	54000101 	b.ne	2b1c <tee_user_mem_realloc+0x74>
/home/rex/devel/optee/optee_os/lib/libutee/tee_user_mem.c:385
    2b00:	52800000 	mov	w0, #0x0                   	// #0
    2b04:	2a0003e1 	mov	w1, w0
    2b08:	f9400ba0 	ldr	x0, [x29,#16]
    2b0c:	97ffff73 	bl	28d8 <tee_user_mem_alloc>
    2b10:	f9001fa0 	str	x0, [x29,#56]
/home/rex/devel/optee/optee_os/lib/libutee/tee_user_mem.c:387
    2b14:	f9401fa0 	ldr	x0, [x29,#56]
    2b18:	14000026 	b	2bb0 <tee_user_mem_realloc+0x108>
/home/rex/devel/optee/optee_os/lib/libutee/tee_user_mem.c:394
    2b1c:	f9400fa0 	ldr	x0, [x29,#24]
    2b20:	97fffe5d 	bl	2494 <elem_addr>
    2b24:	f90027a0 	str	x0, [x29,#72]
/home/rex/devel/optee/optee_os/lib/libutee/tee_user_mem.c:395
    2b28:	f94027a0 	ldr	x0, [x29,#72]
    2b2c:	97fffe51 	bl	2470 <buf_size>
    2b30:	f90023a0 	str	x0, [x29,#64]
/home/rex/devel/optee/optee_os/lib/libutee/tee_user_mem.c:396
    2b34:	f9400ba1 	ldr	x1, [x29,#16]
    2b38:	f94023a0 	ldr	x0, [x29,#64]
    2b3c:	eb00003f 	cmp	x1, x0
    2b40:	54000061 	b.ne	2b4c <tee_user_mem_realloc+0xa4>
/home/rex/devel/optee/optee_os/lib/libutee/tee_user_mem.c:398
    2b44:	f9400fa0 	ldr	x0, [x29,#24]
    2b48:	1400001a 	b	2bb0 <tee_user_mem_realloc+0x108>
/home/rex/devel/optee/optee_os/lib/libutee/tee_user_mem.c:406
    2b4c:	f94027a0 	ldr	x0, [x29,#72]
    2b50:	b9401800 	ldr	w0, [x0,#24]
    2b54:	2a0003e1 	mov	w1, w0
    2b58:	f9400ba0 	ldr	x0, [x29,#16]
    2b5c:	97ffff5f 	bl	28d8 <tee_user_mem_alloc>
    2b60:	f9001fa0 	str	x0, [x29,#56]
/home/rex/devel/optee/optee_os/lib/libutee/tee_user_mem.c:407
    2b64:	f9401fa0 	ldr	x0, [x29,#56]
    2b68:	f100001f 	cmp	x0, #0x0
    2b6c:	54000200 	b.eq	2bac <tee_user_mem_realloc+0x104>
/home/rex/devel/optee/optee_os/lib/libutee/tee_user_mem.c:408
    2b70:	f9400ba0 	ldr	x0, [x29,#16]
    2b74:	f9001ba0 	str	x0, [x29,#48]
    2b78:	f94023a0 	ldr	x0, [x29,#64]
    2b7c:	f90017a0 	str	x0, [x29,#40]
    2b80:	f9401ba0 	ldr	x0, [x29,#48]
    2b84:	f94017a2 	ldr	x2, [x29,#40]
    2b88:	f94017a1 	ldr	x1, [x29,#40]
    2b8c:	eb00005f 	cmp	x2, x0
    2b90:	9a809020 	csel	x0, x1, x0, ls
    2b94:	aa0003e2 	mov	x2, x0
    2b98:	f9400fa1 	ldr	x1, [x29,#24]
    2b9c:	f9401fa0 	ldr	x0, [x29,#56]
    2ba0:	94000a52 	bl	54e8 <memcpy>
/home/rex/devel/optee/optee_os/lib/libutee/tee_user_mem.c:411
    2ba4:	f9400fa0 	ldr	x0, [x29,#24]
    2ba8:	94000004 	bl	2bb8 <tee_user_mem_free>
/home/rex/devel/optee/optee_os/lib/libutee/tee_user_mem.c:415
    2bac:	f9401fa0 	ldr	x0, [x29,#56]
/home/rex/devel/optee/optee_os/lib/libutee/tee_user_mem.c:416
    2bb0:	a8c57bfd 	ldp	x29, x30, [sp],#80
    2bb4:	d65f03c0 	ret

0000000000002bb8 <tee_user_mem_free>:
tee_user_mem_free():
/home/rex/devel/optee/optee_os/lib/libutee/tee_user_mem.c:423
    2bb8:	a9bd7bfd 	stp	x29, x30, [sp,#-48]!
    2bbc:	910003fd 	mov	x29, sp
    2bc0:	f9000fa0 	str	x0, [x29,#24]
/home/rex/devel/optee/optee_os/lib/libutee/tee_user_mem.c:430
    2bc4:	f9400fa0 	ldr	x0, [x29,#24]
    2bc8:	f100001f 	cmp	x0, #0x0
    2bcc:	54000bc0 	b.eq	2d44 <tee_user_mem_free+0x18c>
/home/rex/devel/optee/optee_os/lib/libutee/tee_user_mem.c:430 (discriminator 1)
    2bd0:	90000080 	adrp	x0, 12000 <ta_props>
    2bd4:	9103e000 	add	x0, x0, #0xf8
    2bd8:	f9400000 	ldr	x0, [x0]
    2bdc:	f9400fa1 	ldr	x1, [x29,#24]
    2be0:	eb00003f 	cmp	x1, x0
    2be4:	54000b00 	b.eq	2d44 <tee_user_mem_free+0x18c>
/home/rex/devel/optee/optee_os/lib/libutee/tee_user_mem.c:434
    2be8:	f9400fa0 	ldr	x0, [x29,#24]
    2bec:	97fffe30 	bl	24ac <is_buffer_valid>
    2bf0:	7100001f 	cmp	w0, #0x0
    2bf4:	54000181 	b.ne	2c24 <tee_user_mem_free+0x6c>
/home/rex/devel/optee/optee_os/lib/libutee/tee_user_mem.c:435
    2bf8:	b0000060 	adrp	x0, f000 <__compound_literal.5+0xdc>
    2bfc:	910c2001 	add	x1, x0, #0x308
    2c00:	b0000060 	adrp	x0, f000 <__compound_literal.5+0xdc>
    2c04:	910ee000 	add	x0, x0, #0x3b8
    2c08:	f9400fa5 	ldr	x5, [x29,#24]
    2c0c:	aa0103e4 	mov	x4, x1
    2c10:	52800023 	mov	w3, #0x1                   	// #1
    2c14:	52800022 	mov	w2, #0x1                   	// #1
    2c18:	52803661 	mov	w1, #0x1b3                 	// #435
    2c1c:	9400147e 	bl	7e14 <trace_printf>
/home/rex/devel/optee/optee_os/lib/libutee/tee_user_mem.c:436
    2c20:	1400004a 	b	2d48 <tee_user_mem_free+0x190>
/home/rex/devel/optee/optee_os/lib/libutee/tee_user_mem.c:439
    2c24:	f9400fa0 	ldr	x0, [x29,#24]
    2c28:	97fffe1b 	bl	2494 <elem_addr>
    2c2c:	f90017a0 	str	x0, [x29,#40]
/home/rex/devel/optee/optee_os/lib/libutee/tee_user_mem.c:440
    2c30:	f94017a0 	ldr	x0, [x29,#40]
    2c34:	f90013a0 	str	x0, [x29,#32]
/home/rex/devel/optee/optee_os/lib/libutee/tee_user_mem.c:442
    2c38:	b0000060 	adrp	x0, f000 <__compound_literal.5+0xdc>
    2c3c:	910ca001 	add	x1, x0, #0x328
    2c40:	b0000060 	adrp	x0, f000 <__compound_literal.5+0xdc>
    2c44:	910ee000 	add	x0, x0, #0x3b8
    2c48:	f94013a4 	ldr	x4, [x29,#32]
    2c4c:	aa0103e3 	mov	x3, x1
    2c50:	52803742 	mov	w2, #0x1ba                 	// #442
    2c54:	aa0003e1 	mov	x1, x0
    2c58:	52800080 	mov	w0, #0x4                   	// #4
    2c5c:	97fffe2d 	bl	2510 <print_buf>
/home/rex/devel/optee/optee_os/lib/libutee/tee_user_mem.c:445
    2c60:	f94013a0 	ldr	x0, [x29,#32]
    2c64:	97fffea8 	bl	2704 <check_elem>
    2c68:	7100001f 	cmp	w0, #0x0
    2c6c:	540002c1 	b.ne	2cc4 <tee_user_mem_free+0x10c>
/home/rex/devel/optee/optee_os/lib/libutee/tee_user_mem.c:446
    2c70:	b0000060 	adrp	x0, f000 <__compound_literal.5+0xdc>
    2c74:	910cc001 	add	x1, x0, #0x330
    2c78:	b0000060 	adrp	x0, f000 <__compound_literal.5+0xdc>
    2c7c:	910ee000 	add	x0, x0, #0x3b8
    2c80:	aa0103e4 	mov	x4, x1
    2c84:	52800023 	mov	w3, #0x1                   	// #1
    2c88:	52800022 	mov	w2, #0x1                   	// #1
    2c8c:	528037c1 	mov	w1, #0x1be                 	// #446
    2c90:	94001461 	bl	7e14 <trace_printf>
/home/rex/devel/optee/optee_os/lib/libutee/tee_user_mem.c:447
    2c94:	b0000060 	adrp	x0, f000 <__compound_literal.5+0xdc>
    2c98:	910a4001 	add	x1, x0, #0x290
    2c9c:	b0000060 	adrp	x0, f000 <__compound_literal.5+0xdc>
    2ca0:	910ee000 	add	x0, x0, #0x3b8
    2ca4:	52800005 	mov	w5, #0x0                   	// #0
    2ca8:	aa0103e4 	mov	x4, x1
    2cac:	52800023 	mov	w3, #0x1                   	// #1
    2cb0:	52800022 	mov	w2, #0x1                   	// #1
    2cb4:	528037e1 	mov	w1, #0x1bf                 	// #447
    2cb8:	94001457 	bl	7e14 <trace_printf>
    2cbc:	52800000 	mov	w0, #0x0                   	// #0
    2cc0:	97fffdb0 	bl	2380 <__TEE_Panic>
/home/rex/devel/optee/optee_os/lib/libutee/tee_user_mem.c:451
    2cc4:	f94013a0 	ldr	x0, [x29,#32]
    2cc8:	f9400000 	ldr	x0, [x0]
    2ccc:	f100001f 	cmp	x0, #0x0
    2cd0:	540000e0 	b.eq	2cec <tee_user_mem_free+0x134>
/home/rex/devel/optee/optee_os/lib/libutee/tee_user_mem.c:451 (discriminator 1)
    2cd4:	f94013a0 	ldr	x0, [x29,#32]
    2cd8:	f9400000 	ldr	x0, [x0]
    2cdc:	f94013a1 	ldr	x1, [x29,#32]
    2ce0:	f9400421 	ldr	x1, [x1,#8]
    2ce4:	f9000401 	str	x1, [x0,#8]
    2ce8:	14000006 	b	2d00 <tee_user_mem_free+0x148>
/home/rex/devel/optee/optee_os/lib/libutee/tee_user_mem.c:451 (discriminator 2)
    2cec:	f94013a0 	ldr	x0, [x29,#32]
    2cf0:	f9400401 	ldr	x1, [x0,#8]
    2cf4:	90000080 	adrp	x0, 12000 <ta_props>
    2cf8:	91040000 	add	x0, x0, #0x100
    2cfc:	f9000401 	str	x1, [x0,#8]
/home/rex/devel/optee/optee_os/lib/libutee/tee_user_mem.c:451 (discriminator 4)
    2d00:	f94013a0 	ldr	x0, [x29,#32]
    2d04:	f9400400 	ldr	x0, [x0,#8]
    2d08:	f94013a1 	ldr	x1, [x29,#32]
    2d0c:	f9400021 	ldr	x1, [x1]
    2d10:	f9000001 	str	x1, [x0]
/home/rex/devel/optee/optee_os/lib/libutee/tee_user_mem.c:453 (discriminator 4)
    2d14:	f94013a0 	ldr	x0, [x29,#32]
    2d18:	f9400800 	ldr	x0, [x0,#16]
    2d1c:	97fffe3c 	bl	260c <heap_dec>
/home/rex/devel/optee/optee_os/lib/libutee/tee_user_mem.c:462 (discriminator 4)
    2d20:	f94013a0 	ldr	x0, [x29,#32]
    2d24:	f9400800 	ldr	x0, [x0,#16]
    2d28:	aa0003e2 	mov	x2, x0
    2d2c:	52801541 	mov	w1, #0xaa                  	// #170
    2d30:	f94017a0 	ldr	x0, [x29,#40]
    2d34:	94000ad0 	bl	5874 <memset>
/home/rex/devel/optee/optee_os/lib/libutee/tee_user_mem.c:465 (discriminator 4)
    2d38:	f94017a0 	ldr	x0, [x29,#40]
    2d3c:	97fffdb6 	bl	2414 <utee_free>
    2d40:	14000002 	b	2d48 <tee_user_mem_free+0x190>
/home/rex/devel/optee/optee_os/lib/libutee/tee_user_mem.c:431
    2d44:	d503201f 	nop
/home/rex/devel/optee/optee_os/lib/libutee/tee_user_mem.c:468
    2d48:	a8c37bfd 	ldp	x29, x30, [sp],#48
    2d4c:	d65f03c0 	ret

0000000000002d50 <tee_user_mem_mark_heap>:
tee_user_mem_mark_heap():
/home/rex/devel/optee/optee_os/lib/libutee/tee_user_mem.c:478
    2d50:	b00000c0 	adrp	x0, 1b000 <mempool_u32+0xe80>
    2d54:	91332000 	add	x0, x0, #0xcc8
    2d58:	f900001f 	str	xzr, [x0]
/home/rex/devel/optee/optee_os/lib/libutee/tee_user_mem.c:480
    2d5c:	d503201f 	nop
    2d60:	d65f03c0 	ret

0000000000002d64 <tee_user_mem_check_heap>:
tee_user_mem_check_heap():
/home/rex/devel/optee/optee_os/lib/libutee/tee_user_mem.c:488
    2d64:	a9be7bfd 	stp	x29, x30, [sp,#-32]!
    2d68:	910003fd 	mov	x29, sp
/home/rex/devel/optee/optee_os/lib/libutee/tee_user_mem.c:489
    2d6c:	b9001fbf 	str	wzr, [x29,#28]
/home/rex/devel/optee/optee_os/lib/libutee/tee_user_mem.c:492
    2d70:	b00000c0 	adrp	x0, 1b000 <mempool_u32+0xe80>
    2d74:	91332000 	add	x0, x0, #0xcc8
    2d78:	f9400000 	ldr	x0, [x0]
    2d7c:	f100001f 	cmp	x0, #0x0
    2d80:	54000240 	b.eq	2dc8 <tee_user_mem_check_heap+0x64>
/home/rex/devel/optee/optee_os/lib/libutee/tee_user_mem.c:493
    2d84:	b00000c0 	adrp	x0, 1b000 <mempool_u32+0xe80>
    2d88:	91332000 	add	x0, x0, #0xcc8
    2d8c:	f9400002 	ldr	x2, [x0]
    2d90:	b0000060 	adrp	x0, f000 <__compound_literal.5+0xdc>
    2d94:	910d2001 	add	x1, x0, #0x348
    2d98:	b0000060 	adrp	x0, f000 <__compound_literal.5+0xdc>
    2d9c:	910f4000 	add	x0, x0, #0x3d0
    2da0:	aa0203e5 	mov	x5, x2
    2da4:	aa0103e4 	mov	x4, x1
    2da8:	52800023 	mov	w3, #0x1                   	// #1
    2dac:	52800022 	mov	w2, #0x1                   	// #1
    2db0:	52803da1 	mov	w1, #0x1ed                 	// #493
    2db4:	94001418 	bl	7e14 <trace_printf>
/home/rex/devel/optee/optee_os/lib/libutee/tee_user_mem.c:495
    2db8:	b00000c0 	adrp	x0, 1b000 <mempool_u32+0xe80>
    2dbc:	91332000 	add	x0, x0, #0xcc8
    2dc0:	f9400000 	ldr	x0, [x0]
    2dc4:	14000007 	b	2de0 <tee_user_mem_check_heap+0x7c>
/home/rex/devel/optee/optee_os/lib/libutee/tee_user_mem.c:498
    2dc8:	97fffea6 	bl	2860 <is_mem_coherent>
    2dcc:	7100001f 	cmp	w0, #0x0
    2dd0:	1a9f17e0 	cset	w0, eq
    2dd4:	12001c00 	and	w0, w0, #0xff
    2dd8:	b9001fa0 	str	w0, [x29,#28]
/home/rex/devel/optee/optee_os/lib/libutee/tee_user_mem.c:501
    2ddc:	b9801fa0 	ldrsw	x0, [x29,#28]
/home/rex/devel/optee/optee_os/lib/libutee/tee_user_mem.c:502
    2de0:	a8c27bfd 	ldp	x29, x30, [sp],#32
    2de4:	d65f03c0 	ret

0000000000002de8 <tee_user_mem_status>:
tee_user_mem_status():
/home/rex/devel/optee/optee_os/lib/libutee/tee_user_mem.c:508
    2de8:	a9bd7bfd 	stp	x29, x30, [sp,#-48]!
    2dec:	910003fd 	mov	x29, sp
    2df0:	f9000fa0 	str	x0, [x29,#24]
/home/rex/devel/optee/optee_os/lib/libutee/tee_user_mem.c:510
    2df4:	f9400fa0 	ldr	x0, [x29,#24]
    2df8:	f100001f 	cmp	x0, #0x0
    2dfc:	540000e0 	b.eq	2e18 <tee_user_mem_status+0x30>
/home/rex/devel/optee/optee_os/lib/libutee/tee_user_mem.c:511
    2e00:	b00000c0 	adrp	x0, 1b000 <mempool_u32+0xe80>
    2e04:	91334000 	add	x0, x0, #0xcd0
    2e08:	d2800202 	mov	x2, #0x10                  	// #16
    2e0c:	aa0003e1 	mov	x1, x0
    2e10:	f9400fa0 	ldr	x0, [x29,#24]
    2e14:	940009b5 	bl	54e8 <memcpy>
/home/rex/devel/optee/optee_os/lib/libutee/tee_user_mem.c:518
    2e18:	90000080 	adrp	x0, 12000 <ta_props>
    2e1c:	91040000 	add	x0, x0, #0x100
    2e20:	f9400000 	ldr	x0, [x0]
    2e24:	f90017a0 	str	x0, [x29,#40]
    2e28:	1400000e 	b	2e60 <tee_user_mem_status+0x78>
/home/rex/devel/optee/optee_os/lib/libutee/tee_user_mem.c:519 (discriminator 3)
    2e2c:	b0000060 	adrp	x0, f000 <__compound_literal.5+0xdc>
    2e30:	910da001 	add	x1, x0, #0x368
    2e34:	b0000060 	adrp	x0, f000 <__compound_literal.5+0xdc>
    2e38:	910fa000 	add	x0, x0, #0x3e8
    2e3c:	f94017a4 	ldr	x4, [x29,#40]
    2e40:	aa0103e3 	mov	x3, x1
    2e44:	528040e2 	mov	w2, #0x207                 	// #519
    2e48:	aa0003e1 	mov	x1, x0
    2e4c:	52800020 	mov	w0, #0x1                   	// #1
    2e50:	97fffdb0 	bl	2510 <print_buf>
/home/rex/devel/optee/optee_os/lib/libutee/tee_user_mem.c:518 (discriminator 3)
    2e54:	f94017a0 	ldr	x0, [x29,#40]
    2e58:	f9400000 	ldr	x0, [x0]
    2e5c:	f90017a0 	str	x0, [x29,#40]
/home/rex/devel/optee/optee_os/lib/libutee/tee_user_mem.c:518 (discriminator 1)
    2e60:	f94017a0 	ldr	x0, [x29,#40]
    2e64:	f100001f 	cmp	x0, #0x0
    2e68:	54fffe21 	b.ne	2e2c <tee_user_mem_status+0x44>
/home/rex/devel/optee/optee_os/lib/libutee/tee_user_mem.c:521
    2e6c:	d503201f 	nop
    2e70:	a8c37bfd 	ldp	x29, x30, [sp],#48
    2e74:	d65f03c0 	ret

0000000000002e78 <tee_user_mem_garbage>:
tee_user_mem_garbage():
/home/rex/devel/optee/optee_os/lib/libutee/tee_user_mem.c:537
    2e78:	a9bf7bfd 	stp	x29, x30, [sp,#-16]!
    2e7c:	910003fd 	mov	x29, sp
/home/rex/devel/optee/optee_os/lib/libutee/tee_user_mem.c:539
    2e80:	d2800000 	mov	x0, #0x0                   	// #0
    2e84:	97ffffd9 	bl	2de8 <tee_user_mem_status>
/home/rex/devel/optee/optee_os/lib/libutee/tee_user_mem.c:542
    2e88:	14000006 	b	2ea0 <tee_user_mem_garbage+0x28>
/home/rex/devel/optee/optee_os/lib/libutee/tee_user_mem.c:543
    2e8c:	90000080 	adrp	x0, 12000 <ta_props>
    2e90:	91040000 	add	x0, x0, #0x100
    2e94:	f9400000 	ldr	x0, [x0]
    2e98:	97fffd70 	bl	2458 <buf_addr>
    2e9c:	97ffff47 	bl	2bb8 <tee_user_mem_free>
/home/rex/devel/optee/optee_os/lib/libutee/tee_user_mem.c:542
    2ea0:	90000080 	adrp	x0, 12000 <ta_props>
    2ea4:	91040000 	add	x0, x0, #0x100
    2ea8:	f9400000 	ldr	x0, [x0]
    2eac:	f100001f 	cmp	x0, #0x0
    2eb0:	54fffee1 	b.ne	2e8c <tee_user_mem_garbage+0x14>
/home/rex/devel/optee/optee_os/lib/libutee/tee_user_mem.c:544
    2eb4:	d503201f 	nop
    2eb8:	a8c17bfd 	ldp	x29, x30, [sp],#16
    2ebc:	d65f03c0 	ret

0000000000002ec0 <trace_ext_puts>:
trace_ext_puts():
/home/rex/devel/optee/optee_os/lib/libutee/trace_ext.c:39
    2ec0:	a9be7bfd 	stp	x29, x30, [sp,#-32]!
    2ec4:	910003fd 	mov	x29, sp
    2ec8:	f9000fa0 	str	x0, [x29,#24]
/home/rex/devel/optee/optee_os/lib/libutee/trace_ext.c:40
    2ecc:	f9400fa0 	ldr	x0, [x29,#24]
    2ed0:	94000adc 	bl	5a40 <strlen>
    2ed4:	aa0003e1 	mov	x1, x0
    2ed8:	f9400fa0 	ldr	x0, [x29,#24]
    2edc:	97fff637 	bl	7b8 <utee_log>
/home/rex/devel/optee/optee_os/lib/libutee/trace_ext.c:41
    2ee0:	d503201f 	nop
    2ee4:	a8c27bfd 	ldp	x29, x30, [sp],#32
    2ee8:	d65f03c0 	ret

0000000000002eec <trace_ext_get_thread_id>:
trace_ext_get_thread_id():
/home/rex/devel/optee/optee_os/lib/libutee/trace_ext.c:45
    2eec:	12800000 	mov	w0, #0xffffffff            	// #-1
/home/rex/devel/optee/optee_os/lib/libutee/trace_ext.c:46
    2ef0:	d65f03c0 	ret

0000000000002ef4 <printf>:
printf():
/home/rex/devel/optee/optee_os/lib/libutee/trace_ext.c:56
    2ef4:	d10903ff 	sub	sp, sp, #0x240
    2ef8:	a9007bfd 	stp	x29, x30, [sp]
    2efc:	910003fd 	mov	x29, sp
    2f00:	f9000bf3 	str	x19, [sp,#16]
    2f04:	f90027a0 	str	x0, [x29,#72]
    2f08:	f90107a1 	str	x1, [x29,#520]
    2f0c:	f9010ba2 	str	x2, [x29,#528]
    2f10:	f9010fa3 	str	x3, [x29,#536]
    2f14:	f90113a4 	str	x4, [x29,#544]
    2f18:	f90117a5 	str	x5, [x29,#552]
    2f1c:	f9011ba6 	str	x6, [x29,#560]
    2f20:	f9011fa7 	str	x7, [x29,#568]
    2f24:	910403a0 	add	x0, x29, #0x100
    2f28:	3d802000 	str	q0, [x0,#128]
    2f2c:	910403a0 	add	x0, x29, #0x100
    2f30:	3d802401 	str	q1, [x0,#144]
    2f34:	910403a0 	add	x0, x29, #0x100
    2f38:	3d802802 	str	q2, [x0,#160]
    2f3c:	910403a0 	add	x0, x29, #0x100
    2f40:	3d802c03 	str	q3, [x0,#176]
    2f44:	910403a0 	add	x0, x29, #0x100
    2f48:	3d803004 	str	q4, [x0,#192]
    2f4c:	910403a0 	add	x0, x29, #0x100
    2f50:	3d803405 	str	q5, [x0,#208]
    2f54:	910403a0 	add	x0, x29, #0x100
    2f58:	3d803806 	str	q6, [x0,#224]
    2f5c:	910403a0 	add	x0, x29, #0x100
    2f60:	3d803c07 	str	q7, [x0,#240]
/home/rex/devel/optee/optee_os/lib/libutee/trace_ext.c:64
    2f64:	9400138b 	bl	7d90 <trace_get_level>
    2f68:	7100001f 	cmp	w0, #0x0
    2f6c:	5400006c 	b.gt	2f78 <printf+0x84>
/home/rex/devel/optee/optee_os/lib/libutee/trace_ext.c:65
    2f70:	52800000 	mov	w0, #0x0                   	// #0
    2f74:	14000050 	b	30b4 <printf+0x1c0>
/home/rex/devel/optee/optee_os/lib/libutee/trace_ext.c:67
    2f78:	b0000060 	adrp	x0, f000 <__compound_literal.5+0xdc>
    2f7c:	91100001 	add	x1, x0, #0x400
    2f80:	9101e3a0 	add	x0, x29, #0x78
    2f84:	d2802002 	mov	x2, #0x100                 	// #256
    2f88:	94001340 	bl	7c88 <strlcpy>
    2f8c:	b9017fa0 	str	w0, [x29,#380]
/home/rex/devel/optee/optee_os/lib/libutee/trace_ext.c:68
    2f90:	b9417fa0 	ldr	w0, [x29,#380]
    2f94:	7103fc1f 	cmp	w0, #0xff
    2f98:	540000c9 	b.ls	2fb0 <printf+0xbc>
/home/rex/devel/optee/optee_os/lib/libutee/trace_ext.c:69
    2f9c:	b0000060 	adrp	x0, f000 <__compound_literal.5+0xdc>
    2fa0:	91104000 	add	x0, x0, #0x410
    2fa4:	94000048 	bl	30c4 <puts>
/home/rex/devel/optee/optee_os/lib/libutee/trace_ext.c:70
    2fa8:	52800000 	mov	w0, #0x0                   	// #0
    2fac:	14000042 	b	30b4 <printf+0x1c0>
/home/rex/devel/optee/optee_os/lib/libutee/trace_ext.c:73
    2fb0:	910903a0 	add	x0, x29, #0x240
    2fb4:	f9002fa0 	str	x0, [x29,#88]
    2fb8:	910903a0 	add	x0, x29, #0x240
    2fbc:	f90033a0 	str	x0, [x29,#96]
    2fc0:	910803a0 	add	x0, x29, #0x200
    2fc4:	f90037a0 	str	x0, [x29,#104]
    2fc8:	128006e0 	mov	w0, #0xffffffc8            	// #-56
    2fcc:	b90073a0 	str	w0, [x29,#112]
    2fd0:	12800fe0 	mov	w0, #0xffffff80            	// #-128
    2fd4:	b90077a0 	str	w0, [x29,#116]
/home/rex/devel/optee/optee_os/lib/libutee/trace_ext.c:74
    2fd8:	b9817fa0 	ldrsw	x0, [x29,#380]
    2fdc:	9101e3a1 	add	x1, x29, #0x78
    2fe0:	8b000024 	add	x4, x1, x0
    2fe4:	b9817fa0 	ldrsw	x0, [x29,#380]
    2fe8:	d2802001 	mov	x1, #0x100                 	// #256
    2fec:	cb000021 	sub	x1, x1, x0
    2ff0:	f9402fa0 	ldr	x0, [x29,#88]
    2ff4:	f90013a0 	str	x0, [x29,#32]
    2ff8:	f94033a0 	ldr	x0, [x29,#96]
    2ffc:	f90017a0 	str	x0, [x29,#40]
    3000:	f94037a0 	ldr	x0, [x29,#104]
    3004:	f9001ba0 	str	x0, [x29,#48]
    3008:	f9403ba0 	ldr	x0, [x29,#112]
    300c:	f9001fa0 	str	x0, [x29,#56]
    3010:	910083a0 	add	x0, x29, #0x20
    3014:	aa0003e3 	mov	x3, x0
    3018:	f94027a2 	ldr	x2, [x29,#72]
    301c:	aa0403e0 	mov	x0, x4
    3020:	940008cf 	bl	535c <vsnprintf>
    3024:	b9017fa0 	str	w0, [x29,#380]
/home/rex/devel/optee/optee_os/lib/libutee/trace_ext.c:77
    3028:	b9417fa0 	ldr	w0, [x29,#380]
    302c:	7100001f 	cmp	w0, #0x0
    3030:	540000ca 	b.ge	3048 <printf+0x154>
/home/rex/devel/optee/optee_os/lib/libutee/trace_ext.c:78
    3034:	90000060 	adrp	x0, f000 <__compound_literal.5+0xdc>
    3038:	91104000 	add	x0, x0, #0x410
    303c:	94000022 	bl	30c4 <puts>
/home/rex/devel/optee/optee_os/lib/libutee/trace_ext.c:79
    3040:	b9417fa0 	ldr	w0, [x29,#380]
    3044:	1400001c 	b	30b4 <printf+0x1c0>
/home/rex/devel/optee/optee_os/lib/libutee/trace_ext.c:81
    3048:	b9417fa0 	ldr	w0, [x29,#380]
    304c:	2a0003f3 	mov	w19, w0
    3050:	90000060 	adrp	x0, f000 <__compound_literal.5+0xdc>
    3054:	91100000 	add	x0, x0, #0x400
    3058:	94000a7a 	bl	5a40 <strlen>
    305c:	aa0003e1 	mov	x1, x0
    3060:	d2802000 	mov	x0, #0x100                 	// #256
    3064:	cb010000 	sub	x0, x0, x1
    3068:	eb00027f 	cmp	x19, x0
    306c:	540001e3 	b.cc	30a8 <printf+0x1b4>
/home/rex/devel/optee/optee_os/lib/libutee/trace_ext.c:82
    3070:	90000060 	adrp	x0, f000 <__compound_literal.5+0xdc>
    3074:	9110a000 	add	x0, x0, #0x428
    3078:	39400001 	ldrb	w1, [x0]
    307c:	3905cfa1 	strb	w1, [x29,#371]
    3080:	39400401 	ldrb	w1, [x0,#1]
    3084:	3905d3a1 	strb	w1, [x29,#372]
    3088:	39400801 	ldrb	w1, [x0,#2]
    308c:	3905d7a1 	strb	w1, [x29,#373]
    3090:	39400c01 	ldrb	w1, [x0,#3]
    3094:	3905dba1 	strb	w1, [x29,#374]
    3098:	39401000 	ldrb	w0, [x0,#4]
    309c:	3905dfa0 	strb	w0, [x29,#375]
/home/rex/devel/optee/optee_os/lib/libutee/trace_ext.c:84
    30a0:	52801e20 	mov	w0, #0xf1                  	// #241
    30a4:	b9017fa0 	str	w0, [x29,#380]
/home/rex/devel/optee/optee_os/lib/libutee/trace_ext.c:87
    30a8:	9101e3a0 	add	x0, x29, #0x78
    30ac:	94000006 	bl	30c4 <puts>
/home/rex/devel/optee/optee_os/lib/libutee/trace_ext.c:89
    30b0:	b9417fa0 	ldr	w0, [x29,#380]
/home/rex/devel/optee/optee_os/lib/libutee/trace_ext.c:90 (discriminator 1)
    30b4:	f9400bf3 	ldr	x19, [sp,#16]
    30b8:	a9407bfd 	ldp	x29, x30, [sp]
    30bc:	910903ff 	add	sp, sp, #0x240
    30c0:	d65f03c0 	ret

00000000000030c4 <puts>:
puts():
/home/rex/devel/optee/optee_os/lib/libutee/trace_ext.c:93
    30c4:	a9be7bfd 	stp	x29, x30, [sp,#-32]!
    30c8:	910003fd 	mov	x29, sp
    30cc:	f9000fa0 	str	x0, [x29,#24]
/home/rex/devel/optee/optee_os/lib/libutee/trace_ext.c:94
    30d0:	94001330 	bl	7d90 <trace_get_level>
    30d4:	7100001f 	cmp	w0, #0x0
    30d8:	5400006d 	b.le	30e4 <puts+0x20>
/home/rex/devel/optee/optee_os/lib/libutee/trace_ext.c:95
    30dc:	f9400fa0 	ldr	x0, [x29,#24]
    30e0:	97ffff78 	bl	2ec0 <trace_ext_puts>
/home/rex/devel/optee/optee_os/lib/libutee/trace_ext.c:96
    30e4:	52800020 	mov	w0, #0x1                   	// #1
/home/rex/devel/optee/optee_os/lib/libutee/trace_ext.c:97
    30e8:	a8c27bfd 	ldp	x29, x30, [sp],#32
    30ec:	d65f03c0 	ret

00000000000030f0 <_assert_log>:
_assert_log():
/home/rex/devel/optee/optee_os/lib/libutee/assert.c:39
    30f0:	d10103ff 	sub	sp, sp, #0x40
    30f4:	a9017bfd 	stp	x29, x30, [sp,#16]
    30f8:	910043fd 	add	x29, sp, #0x10
    30fc:	f90017a0 	str	x0, [x29,#40]
    3100:	f90013a1 	str	x1, [x29,#32]
    3104:	b9001fa2 	str	w2, [x29,#28]
    3108:	f9000ba3 	str	x3, [x29,#16]
/home/rex/devel/optee/optee_os/lib/libutee/assert.c:40
    310c:	90000060 	adrp	x0, f000 <__compound_literal.5+0xdc>
    3110:	9110c001 	add	x1, x0, #0x430
    3114:	f9400ba0 	ldr	x0, [x29,#16]
    3118:	f90003e0 	str	x0, [sp]
    311c:	b9401fa7 	ldr	w7, [x29,#28]
    3120:	f94013a6 	ldr	x6, [x29,#32]
    3124:	f94017a5 	ldr	x5, [x29,#40]
    3128:	aa0103e4 	mov	x4, x1
    312c:	52800023 	mov	w3, #0x1                   	// #1
    3130:	52800022 	mov	w2, #0x1                   	// #1
    3134:	52800001 	mov	w1, #0x0                   	// #0
    3138:	d2800000 	mov	x0, #0x0                   	// #0
    313c:	94001336 	bl	7e14 <trace_printf>
/home/rex/devel/optee/optee_os/lib/libutee/assert.c:42
    3140:	d503201f 	nop
    3144:	a9417bfd 	ldp	x29, x30, [sp,#16]
    3148:	910103ff 	add	sp, sp, #0x40
    314c:	d65f03c0 	ret

0000000000003150 <_assert_break>:
_assert_break():
/home/rex/devel/optee/optee_os/lib/libutee/assert.c:45
    3150:	a9bf7bfd 	stp	x29, x30, [sp,#-16]!
    3154:	910003fd 	mov	x29, sp
/home/rex/devel/optee/optee_os/lib/libutee/assert.c:46
    3158:	d2bfffe0 	mov	x0, #0xffff0000            	// #4294901760
    315c:	97fff59a 	bl	7c4 <utee_panic>

0000000000003160 <malloc_lock>:
malloc_lock():
/home/rex/devel/optee/optee_os/lib/libutils/isoc/bget_malloc.c:140
    3160:	52800000 	mov	w0, #0x0                   	// #0
/home/rex/devel/optee/optee_os/lib/libutils/isoc/bget_malloc.c:141
    3164:	d65f03c0 	ret

0000000000003168 <malloc_unlock>:
malloc_unlock():
/home/rex/devel/optee/optee_os/lib/libutils/isoc/bget_malloc.c:144
    3168:	d10043ff 	sub	sp, sp, #0x10
    316c:	b9000fe0 	str	w0, [sp,#12]
/home/rex/devel/optee/optee_os/lib/libutils/isoc/bget_malloc.c:145
    3170:	d503201f 	nop
    3174:	910043ff 	add	sp, sp, #0x10
    3178:	d65f03c0 	ret

000000000000317c <tag_asan_free>:
tag_asan_free():
/home/rex/devel/optee/optee_os/lib/libutils/isoc/bget_malloc.c:148
    317c:	d10043ff 	sub	sp, sp, #0x10
    3180:	f90007e0 	str	x0, [sp,#8]
    3184:	f90003e1 	str	x1, [sp]
/home/rex/devel/optee/optee_os/lib/libutils/isoc/bget_malloc.c:149
    3188:	d503201f 	nop
    318c:	910043ff 	add	sp, sp, #0x10
    3190:	d65f03c0 	ret

0000000000003194 <tag_asan_alloced>:
tag_asan_alloced():
/home/rex/devel/optee/optee_os/lib/libutils/isoc/bget_malloc.c:152
    3194:	d10043ff 	sub	sp, sp, #0x10
    3198:	f90007e0 	str	x0, [sp,#8]
    319c:	f90003e1 	str	x1, [sp]
/home/rex/devel/optee/optee_os/lib/libutils/isoc/bget_malloc.c:153
    31a0:	d503201f 	nop
    31a4:	910043ff 	add	sp, sp, #0x10
    31a8:	d65f03c0 	ret

00000000000031ac <bget>:
bget():
/home/rex/devel/optee/optee_os/lib/libutils/isoc/bget.c:575
    31ac:	a9bb7bfd 	stp	x29, x30, [sp,#-80]!
    31b0:	910003fd 	mov	x29, sp
    31b4:	f9000fa0 	str	x0, [x29,#24]
/home/rex/devel/optee/optee_os/lib/libutils/isoc/bget.c:576
    31b8:	f9400fa0 	ldr	x0, [x29,#24]
    31bc:	f90027a0 	str	x0, [x29,#72]
/home/rex/devel/optee/optee_os/lib/libutils/isoc/bget.c:586
    31c0:	f94027a0 	ldr	x0, [x29,#72]
    31c4:	f100001f 	cmp	x0, #0x0
    31c8:	5400016c 	b.gt	31f4 <bget+0x48>
/home/rex/devel/optee/optee_os/lib/libutils/isoc/bget.c:586 (discriminator 1)
    31cc:	90000060 	adrp	x0, f000 <__compound_literal.5+0xdc>
    31d0:	9122c002 	add	x2, x0, #0x8b0
    31d4:	90000060 	adrp	x0, f000 <__compound_literal.5+0xdc>
    31d8:	91116001 	add	x1, x0, #0x458
    31dc:	90000060 	adrp	x0, f000 <__compound_literal.5+0xdc>
    31e0:	9111e000 	add	x0, x0, #0x478
    31e4:	aa0203e3 	mov	x3, x2
    31e8:	52804942 	mov	w2, #0x24a                 	// #586
    31ec:	97ffffc1 	bl	30f0 <_assert_log>
    31f0:	97ffffd8 	bl	3150 <_assert_break>
/home/rex/devel/optee/optee_os/lib/libutils/isoc/bget.c:588
    31f4:	f94027a0 	ldr	x0, [x29,#72]
    31f8:	f1003c1f 	cmp	x0, #0xf
    31fc:	54000068 	b.hi	3208 <bget+0x5c>
/home/rex/devel/optee/optee_os/lib/libutils/isoc/bget.c:589
    3200:	d2800200 	mov	x0, #0x10                  	// #16
    3204:	f90027a0 	str	x0, [x29,#72]
/home/rex/devel/optee/optee_os/lib/libutils/isoc/bget.c:593
    3208:	f94027a0 	ldr	x0, [x29,#72]
    320c:	91003c00 	add	x0, x0, #0xf
    3210:	927cec00 	and	x0, x0, #0xfffffffffffffff0
    3214:	f90027a0 	str	x0, [x29,#72]
/home/rex/devel/optee/optee_os/lib/libutils/isoc/bget.c:597
    3218:	f94027a0 	ldr	x0, [x29,#72]
    321c:	91004000 	add	x0, x0, #0x10
    3220:	f90027a0 	str	x0, [x29,#72]
/home/rex/devel/optee/optee_os/lib/libutils/isoc/bget.c:607
    3224:	f0000060 	adrp	x0, 12000 <ta_props>
    3228:	91044000 	add	x0, x0, #0x110
    322c:	f9400800 	ldr	x0, [x0,#16]
    3230:	f90023a0 	str	x0, [x29,#64]
/home/rex/devel/optee/optee_os/lib/libutils/isoc/bget.c:628
    3234:	140000b3 	b	3500 <bget+0x354>
/home/rex/devel/optee/optee_os/lib/libutils/isoc/bget.c:629
    3238:	f94023a0 	ldr	x0, [x29,#64]
    323c:	f9400401 	ldr	x1, [x0,#8]
    3240:	f94027a0 	ldr	x0, [x29,#72]
    3244:	eb00003f 	cmp	x1, x0
    3248:	5400156b 	b.lt	34f4 <bget+0x348>
/home/rex/devel/optee/optee_os/lib/libutils/isoc/bget.c:640
    324c:	f94023a0 	ldr	x0, [x29,#64]
    3250:	f9400401 	ldr	x1, [x0,#8]
    3254:	f94027a0 	ldr	x0, [x29,#72]
    3258:	cb000020 	sub	x0, x1, x0
    325c:	f100801f 	cmp	x0, #0x20
    3260:	540008a9 	b.ls	3374 <bget+0x1c8>
/home/rex/devel/optee/optee_os/lib/libutils/isoc/bget.c:643
    3264:	f94023a0 	ldr	x0, [x29,#64]
    3268:	f9400401 	ldr	x1, [x0,#8]
    326c:	f94027a0 	ldr	x0, [x29,#72]
    3270:	cb000020 	sub	x0, x1, x0
    3274:	aa0003e1 	mov	x1, x0
    3278:	f94023a0 	ldr	x0, [x29,#64]
    327c:	8b010000 	add	x0, x0, x1
    3280:	f9001fa0 	str	x0, [x29,#56]
/home/rex/devel/optee/optee_os/lib/libutils/isoc/bget.c:644
    3284:	f94027a0 	ldr	x0, [x29,#72]
    3288:	f9401fa1 	ldr	x1, [x29,#56]
    328c:	8b000020 	add	x0, x1, x0
    3290:	f9001ba0 	str	x0, [x29,#48]
/home/rex/devel/optee/optee_os/lib/libutils/isoc/bget.c:645
    3294:	f9401ba0 	ldr	x0, [x29,#48]
    3298:	f9400001 	ldr	x1, [x0]
    329c:	f94023a0 	ldr	x0, [x29,#64]
    32a0:	f9400400 	ldr	x0, [x0,#8]
    32a4:	eb00003f 	cmp	x1, x0
    32a8:	54000160 	b.eq	32d4 <bget+0x128>
/home/rex/devel/optee/optee_os/lib/libutils/isoc/bget.c:645 (discriminator 1)
    32ac:	90000060 	adrp	x0, f000 <__compound_literal.5+0xdc>
    32b0:	9122c002 	add	x2, x0, #0x8b0
    32b4:	90000060 	adrp	x0, f000 <__compound_literal.5+0xdc>
    32b8:	91116001 	add	x1, x0, #0x458
    32bc:	90000060 	adrp	x0, f000 <__compound_literal.5+0xdc>
    32c0:	91122000 	add	x0, x0, #0x488
    32c4:	aa0203e3 	mov	x3, x2
    32c8:	528050a2 	mov	w2, #0x285                 	// #645
    32cc:	97ffff89 	bl	30f0 <_assert_log>
    32d0:	97ffffa0 	bl	3150 <_assert_break>
/home/rex/devel/optee/optee_os/lib/libutils/isoc/bget.c:647
    32d4:	f94023a0 	ldr	x0, [x29,#64]
    32d8:	f9400401 	ldr	x1, [x0,#8]
    32dc:	f94027a0 	ldr	x0, [x29,#72]
    32e0:	cb000021 	sub	x1, x1, x0
    32e4:	f94023a0 	ldr	x0, [x29,#64]
    32e8:	f9000401 	str	x1, [x0,#8]
/home/rex/devel/optee/optee_os/lib/libutils/isoc/bget.c:649
    32ec:	f94023a0 	ldr	x0, [x29,#64]
    32f0:	f9400401 	ldr	x1, [x0,#8]
    32f4:	f9401fa0 	ldr	x0, [x29,#56]
    32f8:	f9000001 	str	x1, [x0]
/home/rex/devel/optee/optee_os/lib/libutils/isoc/bget.c:651
    32fc:	f94027a0 	ldr	x0, [x29,#72]
    3300:	cb0003e1 	neg	x1, x0
    3304:	f9401fa0 	ldr	x0, [x29,#56]
    3308:	f9000401 	str	x1, [x0,#8]
/home/rex/devel/optee/optee_os/lib/libutils/isoc/bget.c:653
    330c:	f9401ba0 	ldr	x0, [x29,#48]
    3310:	f900001f 	str	xzr, [x0]
/home/rex/devel/optee/optee_os/lib/libutils/isoc/bget.c:656
    3314:	900000c0 	adrp	x0, 1b000 <mempool_u32+0xe80>
    3318:	91338000 	add	x0, x0, #0xce0
    331c:	f9400001 	ldr	x1, [x0]
    3320:	f94027a0 	ldr	x0, [x29,#72]
    3324:	8b000021 	add	x1, x1, x0
    3328:	900000c0 	adrp	x0, 1b000 <mempool_u32+0xe80>
    332c:	91338000 	add	x0, x0, #0xce0
    3330:	f9000001 	str	x1, [x0]
/home/rex/devel/optee/optee_os/lib/libutils/isoc/bget.c:657
    3334:	900000c0 	adrp	x0, 1b000 <mempool_u32+0xe80>
    3338:	9133a000 	add	x0, x0, #0xce8
    333c:	f9400000 	ldr	x0, [x0]
    3340:	91000401 	add	x1, x0, #0x1
    3344:	900000c0 	adrp	x0, 1b000 <mempool_u32+0xe80>
    3348:	9133a000 	add	x0, x0, #0xce8
    334c:	f9000001 	str	x1, [x0]
/home/rex/devel/optee/optee_os/lib/libutils/isoc/bget.c:659
    3350:	f9401fa0 	ldr	x0, [x29,#56]
    3354:	91004000 	add	x0, x0, #0x10
    3358:	f90017a0 	str	x0, [x29,#40]
/home/rex/devel/optee/optee_os/lib/libutils/isoc/bget.c:660
    335c:	f94027a0 	ldr	x0, [x29,#72]
    3360:	aa0003e1 	mov	x1, x0
    3364:	f94017a0 	ldr	x0, [x29,#40]
    3368:	97ffff8b 	bl	3194 <tag_asan_alloced>
/home/rex/devel/optee/optee_os/lib/libutils/isoc/bget.c:661
    336c:	f94017a0 	ldr	x0, [x29,#40]
    3370:	1400006a 	b	3518 <bget+0x36c>
/home/rex/devel/optee/optee_os/lib/libutils/isoc/bget.c:665
    3374:	f94023a0 	ldr	x0, [x29,#64]
    3378:	f9400400 	ldr	x0, [x0,#8]
    337c:	aa0003e1 	mov	x1, x0
    3380:	f94023a0 	ldr	x0, [x29,#64]
    3384:	8b010000 	add	x0, x0, x1
    3388:	f90013a0 	str	x0, [x29,#32]
/home/rex/devel/optee/optee_os/lib/libutils/isoc/bget.c:666
    338c:	f94013a0 	ldr	x0, [x29,#32]
    3390:	f9400001 	ldr	x1, [x0]
    3394:	f94023a0 	ldr	x0, [x29,#64]
    3398:	f9400400 	ldr	x0, [x0,#8]
    339c:	eb00003f 	cmp	x1, x0
    33a0:	54000160 	b.eq	33cc <bget+0x220>
/home/rex/devel/optee/optee_os/lib/libutils/isoc/bget.c:666 (discriminator 1)
    33a4:	90000060 	adrp	x0, f000 <__compound_literal.5+0xdc>
    33a8:	9122c002 	add	x2, x0, #0x8b0
    33ac:	90000060 	adrp	x0, f000 <__compound_literal.5+0xdc>
    33b0:	91116001 	add	x1, x0, #0x458
    33b4:	90000060 	adrp	x0, f000 <__compound_literal.5+0xdc>
    33b8:	9112a000 	add	x0, x0, #0x4a8
    33bc:	aa0203e3 	mov	x3, x2
    33c0:	52805342 	mov	w2, #0x29a                 	// #666
    33c4:	97ffff4b 	bl	30f0 <_assert_log>
    33c8:	97ffff62 	bl	3150 <_assert_break>
/home/rex/devel/optee/optee_os/lib/libutils/isoc/bget.c:671
    33cc:	f94023a0 	ldr	x0, [x29,#64]
    33d0:	f9400c00 	ldr	x0, [x0,#24]
    33d4:	f9400801 	ldr	x1, [x0,#16]
    33d8:	f94023a0 	ldr	x0, [x29,#64]
    33dc:	eb00003f 	cmp	x1, x0
    33e0:	54000160 	b.eq	340c <bget+0x260>
/home/rex/devel/optee/optee_os/lib/libutils/isoc/bget.c:671 (discriminator 1)
    33e4:	90000060 	adrp	x0, f000 <__compound_literal.5+0xdc>
    33e8:	9122c002 	add	x2, x0, #0x8b0
    33ec:	90000060 	adrp	x0, f000 <__compound_literal.5+0xdc>
    33f0:	91116001 	add	x1, x0, #0x458
    33f4:	90000060 	adrp	x0, f000 <__compound_literal.5+0xdc>
    33f8:	91132000 	add	x0, x0, #0x4c8
    33fc:	aa0203e3 	mov	x3, x2
    3400:	528053e2 	mov	w2, #0x29f                 	// #671
    3404:	97ffff3b 	bl	30f0 <_assert_log>
    3408:	97ffff52 	bl	3150 <_assert_break>
/home/rex/devel/optee/optee_os/lib/libutils/isoc/bget.c:672
    340c:	f94023a0 	ldr	x0, [x29,#64]
    3410:	f9400800 	ldr	x0, [x0,#16]
    3414:	f9400c01 	ldr	x1, [x0,#24]
    3418:	f94023a0 	ldr	x0, [x29,#64]
    341c:	eb00003f 	cmp	x1, x0
    3420:	54000160 	b.eq	344c <bget+0x2a0>
/home/rex/devel/optee/optee_os/lib/libutils/isoc/bget.c:672 (discriminator 1)
    3424:	90000060 	adrp	x0, f000 <__compound_literal.5+0xdc>
    3428:	9122c002 	add	x2, x0, #0x8b0
    342c:	90000060 	adrp	x0, f000 <__compound_literal.5+0xdc>
    3430:	91116001 	add	x1, x0, #0x458
    3434:	90000060 	adrp	x0, f000 <__compound_literal.5+0xdc>
    3438:	9113a000 	add	x0, x0, #0x4e8
    343c:	aa0203e3 	mov	x3, x2
    3440:	52805402 	mov	w2, #0x2a0                 	// #672
    3444:	97ffff2b 	bl	30f0 <_assert_log>
    3448:	97ffff42 	bl	3150 <_assert_break>
/home/rex/devel/optee/optee_os/lib/libutils/isoc/bget.c:673
    344c:	f94023a0 	ldr	x0, [x29,#64]
    3450:	f9400c00 	ldr	x0, [x0,#24]
    3454:	f94023a1 	ldr	x1, [x29,#64]
    3458:	f9400821 	ldr	x1, [x1,#16]
    345c:	f9000801 	str	x1, [x0,#16]
/home/rex/devel/optee/optee_os/lib/libutils/isoc/bget.c:674
    3460:	f94023a0 	ldr	x0, [x29,#64]
    3464:	f9400800 	ldr	x0, [x0,#16]
    3468:	f94023a1 	ldr	x1, [x29,#64]
    346c:	f9400c21 	ldr	x1, [x1,#24]
    3470:	f9000c01 	str	x1, [x0,#24]
/home/rex/devel/optee/optee_os/lib/libutils/isoc/bget.c:677
    3474:	f94023a0 	ldr	x0, [x29,#64]
    3478:	f9400401 	ldr	x1, [x0,#8]
    347c:	900000c0 	adrp	x0, 1b000 <mempool_u32+0xe80>
    3480:	91338000 	add	x0, x0, #0xce0
    3484:	f9400000 	ldr	x0, [x0]
    3488:	8b000021 	add	x1, x1, x0
    348c:	900000c0 	adrp	x0, 1b000 <mempool_u32+0xe80>
    3490:	91338000 	add	x0, x0, #0xce0
    3494:	f9000001 	str	x1, [x0]
/home/rex/devel/optee/optee_os/lib/libutils/isoc/bget.c:678
    3498:	900000c0 	adrp	x0, 1b000 <mempool_u32+0xe80>
    349c:	9133a000 	add	x0, x0, #0xce8
    34a0:	f9400000 	ldr	x0, [x0]
    34a4:	91000401 	add	x1, x0, #0x1
    34a8:	900000c0 	adrp	x0, 1b000 <mempool_u32+0xe80>
    34ac:	9133a000 	add	x0, x0, #0xce8
    34b0:	f9000001 	str	x1, [x0]
/home/rex/devel/optee/optee_os/lib/libutils/isoc/bget.c:681
    34b4:	f94023a0 	ldr	x0, [x29,#64]
    34b8:	f9400400 	ldr	x0, [x0,#8]
    34bc:	cb0003e1 	neg	x1, x0
    34c0:	f94023a0 	ldr	x0, [x29,#64]
    34c4:	f9000401 	str	x1, [x0,#8]
/home/rex/devel/optee/optee_os/lib/libutils/isoc/bget.c:685
    34c8:	f94013a0 	ldr	x0, [x29,#32]
    34cc:	f900001f 	str	xzr, [x0]
/home/rex/devel/optee/optee_os/lib/libutils/isoc/bget.c:688
    34d0:	f94023a0 	ldr	x0, [x29,#64]
    34d4:	91004000 	add	x0, x0, #0x10
    34d8:	f90017a0 	str	x0, [x29,#40]
/home/rex/devel/optee/optee_os/lib/libutils/isoc/bget.c:689
    34dc:	f94027a0 	ldr	x0, [x29,#72]
    34e0:	aa0003e1 	mov	x1, x0
    34e4:	f94017a0 	ldr	x0, [x29,#40]
    34e8:	97ffff2b 	bl	3194 <tag_asan_alloced>
/home/rex/devel/optee/optee_os/lib/libutils/isoc/bget.c:690
    34ec:	f94017a0 	ldr	x0, [x29,#40]
    34f0:	1400000a 	b	3518 <bget+0x36c>
/home/rex/devel/optee/optee_os/lib/libutils/isoc/bget.c:693
    34f4:	f94023a0 	ldr	x0, [x29,#64]
    34f8:	f9400800 	ldr	x0, [x0,#16]
    34fc:	f90023a0 	str	x0, [x29,#64]
/home/rex/devel/optee/optee_os/lib/libutils/isoc/bget.c:628
    3500:	f94023a1 	ldr	x1, [x29,#64]
    3504:	f0000060 	adrp	x0, 12000 <ta_props>
    3508:	91044000 	add	x0, x0, #0x110
    350c:	eb00003f 	cmp	x1, x0
    3510:	54ffe941 	b.ne	3238 <bget+0x8c>
/home/rex/devel/optee/optee_os/lib/libutils/isoc/bget.c:755
    3514:	d2800000 	mov	x0, #0x0                   	// #0
/home/rex/devel/optee/optee_os/lib/libutils/isoc/bget.c:756
    3518:	a8c57bfd 	ldp	x29, x30, [sp],#80
    351c:	d65f03c0 	ret

0000000000003520 <bgetz>:
bgetz():
/home/rex/devel/optee/optee_os/lib/libutils/isoc/bget.c:764
    3520:	a9bc7bfd 	stp	x29, x30, [sp,#-64]!
    3524:	910003fd 	mov	x29, sp
    3528:	f9000fa0 	str	x0, [x29,#24]
/home/rex/devel/optee/optee_os/lib/libutils/isoc/bget.c:765
    352c:	f9400fa0 	ldr	x0, [x29,#24]
    3530:	97ffff1f 	bl	31ac <bget>
    3534:	f9001ba0 	str	x0, [x29,#48]
/home/rex/devel/optee/optee_os/lib/libutils/isoc/bget.c:767
    3538:	f9401ba0 	ldr	x0, [x29,#48]
    353c:	f100001f 	cmp	x0, #0x0
    3540:	54000540 	b.eq	35e8 <bgetz+0xc8>
/home/rex/devel/optee/optee_os/lib/libutils/isoc/bget.c:771
    3544:	f9401ba0 	ldr	x0, [x29,#48]
    3548:	d1004000 	sub	x0, x0, #0x10
    354c:	f90017a0 	str	x0, [x29,#40]
/home/rex/devel/optee/optee_os/lib/libutils/isoc/bget.c:772
    3550:	f94017a0 	ldr	x0, [x29,#40]
    3554:	f9400400 	ldr	x0, [x0,#8]
    3558:	cb0003e0 	neg	x0, x0
    355c:	f9001fa0 	str	x0, [x29,#56]
/home/rex/devel/optee/optee_os/lib/libutils/isoc/bget.c:773
    3560:	f9401fa0 	ldr	x0, [x29,#56]
    3564:	f100001f 	cmp	x0, #0x0
    3568:	54000121 	b.ne	358c <bgetz+0x6c>
/home/rex/devel/optee/optee_os/lib/libutils/isoc/bget.c:776
    356c:	f9401ba0 	ldr	x0, [x29,#48]
    3570:	d1006000 	sub	x0, x0, #0x18
    3574:	f90013a0 	str	x0, [x29,#32]
/home/rex/devel/optee/optee_os/lib/libutils/isoc/bget.c:777
    3578:	f94013a0 	ldr	x0, [x29,#32]
    357c:	f9400000 	ldr	x0, [x0]
    3580:	d1006000 	sub	x0, x0, #0x18
    3584:	f9001fa0 	str	x0, [x29,#56]
    3588:	14000004 	b	3598 <bgetz+0x78>
/home/rex/devel/optee/optee_os/lib/libutils/isoc/bget.c:779
    358c:	f9401fa0 	ldr	x0, [x29,#56]
    3590:	d1004000 	sub	x0, x0, #0x10
    3594:	f9001fa0 	str	x0, [x29,#56]
/home/rex/devel/optee/optee_os/lib/libutils/isoc/bget.c:781
    3598:	f9401fa1 	ldr	x1, [x29,#56]
    359c:	f9400fa0 	ldr	x0, [x29,#24]
    35a0:	eb00003f 	cmp	x1, x0
    35a4:	5400016a 	b.ge	35d0 <bgetz+0xb0>
/home/rex/devel/optee/optee_os/lib/libutils/isoc/bget.c:781 (discriminator 1)
    35a8:	90000060 	adrp	x0, f000 <__compound_literal.5+0xdc>
    35ac:	9122e002 	add	x2, x0, #0x8b8
    35b0:	90000060 	adrp	x0, f000 <__compound_literal.5+0xdc>
    35b4:	91116001 	add	x1, x0, #0x458
    35b8:	90000060 	adrp	x0, f000 <__compound_literal.5+0xdc>
    35bc:	91142000 	add	x0, x0, #0x508
    35c0:	aa0203e3 	mov	x3, x2
    35c4:	528061a2 	mov	w2, #0x30d                 	// #781
    35c8:	97fffeca 	bl	30f0 <_assert_log>
    35cc:	97fffee1 	bl	3150 <_assert_break>
/home/rex/devel/optee/optee_os/lib/libutils/isoc/bget.c:782
    35d0:	f9401fa0 	ldr	x0, [x29,#56]
    35d4:	93407c00 	sxtw	x0, w0
    35d8:	aa0003e2 	mov	x2, x0
    35dc:	52800001 	mov	w1, #0x0                   	// #0
    35e0:	f9401ba0 	ldr	x0, [x29,#48]
    35e4:	940008a4 	bl	5874 <memset>
/home/rex/devel/optee/optee_os/lib/libutils/isoc/bget.c:784
    35e8:	f9401ba0 	ldr	x0, [x29,#48]
/home/rex/devel/optee/optee_os/lib/libutils/isoc/bget.c:785
    35ec:	a8c47bfd 	ldp	x29, x30, [sp],#64
    35f0:	d65f03c0 	ret

00000000000035f4 <bgetr>:
bgetr():
/home/rex/devel/optee/optee_os/lib/libutils/isoc/bget.c:795
    35f4:	a9bc7bfd 	stp	x29, x30, [sp,#-64]!
    35f8:	910003fd 	mov	x29, sp
    35fc:	f9000fa0 	str	x0, [x29,#24]
    3600:	f9000ba1 	str	x1, [x29,#16]
/home/rex/devel/optee/optee_os/lib/libutils/isoc/bget.c:800
    3604:	f9400ba0 	ldr	x0, [x29,#16]
    3608:	97fffee9 	bl	31ac <bget>
    360c:	f9001fa0 	str	x0, [x29,#56]
    3610:	f9401fa0 	ldr	x0, [x29,#56]
    3614:	f100001f 	cmp	x0, #0x0
    3618:	54000061 	b.ne	3624 <bgetr+0x30>
/home/rex/devel/optee/optee_os/lib/libutils/isoc/bget.c:801
    361c:	d2800000 	mov	x0, #0x0                   	// #0
    3620:	1400002d 	b	36d4 <bgetr+0xe0>
/home/rex/devel/optee/optee_os/lib/libutils/isoc/bget.c:803
    3624:	f9400fa0 	ldr	x0, [x29,#24]
    3628:	f100001f 	cmp	x0, #0x0
    362c:	54000061 	b.ne	3638 <bgetr+0x44>
/home/rex/devel/optee/optee_os/lib/libutils/isoc/bget.c:804
    3630:	f9401fa0 	ldr	x0, [x29,#56]
    3634:	14000028 	b	36d4 <bgetr+0xe0>
/home/rex/devel/optee/optee_os/lib/libutils/isoc/bget.c:806
    3638:	f9400fa0 	ldr	x0, [x29,#24]
    363c:	d1004000 	sub	x0, x0, #0x10
    3640:	f9001ba0 	str	x0, [x29,#48]
/home/rex/devel/optee/optee_os/lib/libutils/isoc/bget.c:807
    3644:	f9401ba0 	ldr	x0, [x29,#48]
    3648:	f9400400 	ldr	x0, [x0,#8]
    364c:	cb0003e0 	neg	x0, x0
    3650:	f90017a0 	str	x0, [x29,#40]
/home/rex/devel/optee/optee_os/lib/libutils/isoc/bget.c:817
    3654:	f94017a0 	ldr	x0, [x29,#40]
    3658:	d1004000 	sub	x0, x0, #0x10
    365c:	f90017a0 	str	x0, [x29,#40]
/home/rex/devel/optee/optee_os/lib/libutils/isoc/bget.c:818
    3660:	f94017a0 	ldr	x0, [x29,#40]
    3664:	f100001f 	cmp	x0, #0x0
    3668:	5400016c 	b.gt	3694 <bgetr+0xa0>
/home/rex/devel/optee/optee_os/lib/libutils/isoc/bget.c:818 (discriminator 1)
    366c:	90000060 	adrp	x0, f000 <__compound_literal.5+0xdc>
    3670:	91230002 	add	x2, x0, #0x8c0
    3674:	90000060 	adrp	x0, f000 <__compound_literal.5+0xdc>
    3678:	91116001 	add	x1, x0, #0x458
    367c:	90000060 	adrp	x0, f000 <__compound_literal.5+0xdc>
    3680:	91146000 	add	x0, x0, #0x518
    3684:	aa0203e3 	mov	x3, x2
    3688:	52806642 	mov	w2, #0x332                 	// #818
    368c:	97fffe99 	bl	30f0 <_assert_log>
    3690:	97fffeb0 	bl	3150 <_assert_break>
/home/rex/devel/optee/optee_os/lib/libutils/isoc/bget.c:819
    3694:	f9400ba1 	ldr	x1, [x29,#16]
    3698:	f94017a0 	ldr	x0, [x29,#40]
    369c:	eb00003f 	cmp	x1, x0
    36a0:	5400008a 	b.ge	36b0 <bgetr+0xbc>
/home/rex/devel/optee/optee_os/lib/libutils/isoc/bget.c:820 (discriminator 1)
    36a4:	f9400ba0 	ldr	x0, [x29,#16]
/home/rex/devel/optee/optee_os/lib/libutils/isoc/bget.c:819 (discriminator 1)
    36a8:	93407c00 	sxtw	x0, w0
    36ac:	14000003 	b	36b8 <bgetr+0xc4>
/home/rex/devel/optee/optee_os/lib/libutils/isoc/bget.c:820 (discriminator 2)
    36b0:	f94017a0 	ldr	x0, [x29,#40]
/home/rex/devel/optee/optee_os/lib/libutils/isoc/bget.c:819 (discriminator 2)
    36b4:	93407c00 	sxtw	x0, w0
/home/rex/devel/optee/optee_os/lib/libutils/isoc/bget.c:819 (discriminator 4)
    36b8:	aa0003e2 	mov	x2, x0
    36bc:	f9400fa1 	ldr	x1, [x29,#24]
    36c0:	f9401fa0 	ldr	x0, [x29,#56]
    36c4:	94000789 	bl	54e8 <memcpy>
/home/rex/devel/optee/optee_os/lib/libutils/isoc/bget.c:821 (discriminator 4)
    36c8:	f9400fa0 	ldr	x0, [x29,#24]
    36cc:	94000004 	bl	36dc <brel>
/home/rex/devel/optee/optee_os/lib/libutils/isoc/bget.c:822 (discriminator 4)
    36d0:	f9401fa0 	ldr	x0, [x29,#56]
/home/rex/devel/optee/optee_os/lib/libutils/isoc/bget.c:823
    36d4:	a8c47bfd 	ldp	x29, x30, [sp],#64
    36d8:	d65f03c0 	ret

00000000000036dc <brel>:
brel():
/home/rex/devel/optee/optee_os/lib/libutils/isoc/bget.c:829
    36dc:	a9bb7bfd 	stp	x29, x30, [sp,#-80]!
    36e0:	910003fd 	mov	x29, sp
    36e4:	f9000bf3 	str	x19, [sp,#16]
    36e8:	f90017a0 	str	x0, [x29,#40]
/home/rex/devel/optee/optee_os/lib/libutils/isoc/bget.c:833
    36ec:	f94017a0 	ldr	x0, [x29,#40]
    36f0:	d1004000 	sub	x0, x0, #0x10
    36f4:	f90027a0 	str	x0, [x29,#72]
/home/rex/devel/optee/optee_os/lib/libutils/isoc/bget.c:835
    36f8:	900000c0 	adrp	x0, 1b000 <mempool_u32+0xe80>
    36fc:	9133c000 	add	x0, x0, #0xcf0
    3700:	f9400000 	ldr	x0, [x0]
    3704:	91000401 	add	x1, x0, #0x1
    3708:	900000c0 	adrp	x0, 1b000 <mempool_u32+0xe80>
    370c:	9133c000 	add	x0, x0, #0xcf0
    3710:	f9000001 	str	x1, [x0]
/home/rex/devel/optee/optee_os/lib/libutils/isoc/bget.c:837
    3714:	f94017a0 	ldr	x0, [x29,#40]
    3718:	f100001f 	cmp	x0, #0x0
    371c:	54000161 	b.ne	3748 <brel+0x6c>
/home/rex/devel/optee/optee_os/lib/libutils/isoc/bget.c:837 (discriminator 1)
    3720:	90000060 	adrp	x0, f000 <__compound_literal.5+0xdc>
    3724:	91232002 	add	x2, x0, #0x8c8
    3728:	90000060 	adrp	x0, f000 <__compound_literal.5+0xdc>
    372c:	91116001 	add	x1, x0, #0x458
    3730:	90000060 	adrp	x0, f000 <__compound_literal.5+0xdc>
    3734:	9114a000 	add	x0, x0, #0x528
    3738:	aa0203e3 	mov	x3, x2
    373c:	528068a2 	mov	w2, #0x345                 	// #837
    3740:	97fffe6c 	bl	30f0 <_assert_log>
    3744:	97fffe83 	bl	3150 <_assert_break>
/home/rex/devel/optee/optee_os/lib/libutils/isoc/bget.c:865
    3748:	f94027a0 	ldr	x0, [x29,#72]
    374c:	f9400400 	ldr	x0, [x0,#8]
    3750:	f100001f 	cmp	x0, #0x0
    3754:	5400004b 	b.lt	375c <brel+0x80>
/home/rex/devel/optee/optee_os/lib/libutils/isoc/bget.c:866
    3758:	f90023bf 	str	xzr, [x29,#64]
/home/rex/devel/optee/optee_os/lib/libutils/isoc/bget.c:868
    375c:	f94027a0 	ldr	x0, [x29,#72]
    3760:	f9400400 	ldr	x0, [x0,#8]
    3764:	f100001f 	cmp	x0, #0x0
    3768:	5400016b 	b.lt	3794 <brel+0xb8>
/home/rex/devel/optee/optee_os/lib/libutils/isoc/bget.c:868 (discriminator 1)
    376c:	90000060 	adrp	x0, f000 <__compound_literal.5+0xdc>
    3770:	91232002 	add	x2, x0, #0x8c8
    3774:	90000060 	adrp	x0, f000 <__compound_literal.5+0xdc>
    3778:	91116001 	add	x1, x0, #0x458
    377c:	90000060 	adrp	x0, f000 <__compound_literal.5+0xdc>
    3780:	9114e000 	add	x0, x0, #0x538
    3784:	aa0203e3 	mov	x3, x2
    3788:	52806c82 	mov	w2, #0x364                 	// #868
    378c:	97fffe59 	bl	30f0 <_assert_log>
    3790:	97fffe70 	bl	3150 <_assert_break>
/home/rex/devel/optee/optee_os/lib/libutils/isoc/bget.c:869
    3794:	f94027a0 	ldr	x0, [x29,#72]
    3798:	f9400400 	ldr	x0, [x0,#8]
    379c:	cb0003e0 	neg	x0, x0
    37a0:	f9001fa0 	str	x0, [x29,#56]
/home/rex/devel/optee/optee_os/lib/libutils/isoc/bget.c:874
    37a4:	f94027a0 	ldr	x0, [x29,#72]
    37a8:	f9400400 	ldr	x0, [x0,#8]
    37ac:	cb0003e0 	neg	x0, x0
    37b0:	f94027a1 	ldr	x1, [x29,#72]
    37b4:	8b000020 	add	x0, x1, x0
